
SSD1963_AVR.elf:     file format elf32-avr

Sections:
Idx Name          Size      VMA       LMA       File off  Algn
  0 .text         00005b9c  00000000  00000000  00000074  2**1
                  CONTENTS, ALLOC, LOAD, READONLY, CODE
  1 .data         0000005c  00800060  00005b9c  00005c10  2**0
                  CONTENTS, ALLOC, LOAD, DATA
  2 .comment      0000005c  00000000  00000000  00005c6c  2**0
                  CONTENTS, READONLY
  3 .note.gnu.avr.deviceinfo 0000003c  00000000  00000000  00005cc8  2**2
                  CONTENTS, READONLY
  4 .debug_aranges 00000100  00000000  00000000  00005d04  2**0
                  CONTENTS, READONLY, DEBUGGING
  5 .debug_info   000079ea  00000000  00000000  00005e04  2**0
                  CONTENTS, READONLY, DEBUGGING
  6 .debug_abbrev 00000b5b  00000000  00000000  0000d7ee  2**0
                  CONTENTS, READONLY, DEBUGGING
  7 .debug_line   00003195  00000000  00000000  0000e349  2**0
                  CONTENTS, READONLY, DEBUGGING
  8 .debug_frame  0000065c  00000000  00000000  000114e0  2**2
                  CONTENTS, READONLY, DEBUGGING
  9 .debug_str    000025bb  00000000  00000000  00011b3c  2**0
                  CONTENTS, READONLY, DEBUGGING
 10 .debug_loc    000053ce  00000000  00000000  000140f7  2**0
                  CONTENTS, READONLY, DEBUGGING
 11 .debug_ranges 00000248  00000000  00000000  000194c5  2**0
                  CONTENTS, READONLY, DEBUGGING

Disassembly of section .text:

00000000 <__vectors>:
       0:	0c 94 19 18 	jmp	0x3032	; 0x3032 <__ctors_end>
       4:	0c 94 2d 18 	jmp	0x305a	; 0x305a <__bad_interrupt>
       8:	0c 94 2d 18 	jmp	0x305a	; 0x305a <__bad_interrupt>
       c:	0c 94 2d 18 	jmp	0x305a	; 0x305a <__bad_interrupt>
      10:	0c 94 2d 18 	jmp	0x305a	; 0x305a <__bad_interrupt>
      14:	0c 94 2d 18 	jmp	0x305a	; 0x305a <__bad_interrupt>
      18:	0c 94 2d 18 	jmp	0x305a	; 0x305a <__bad_interrupt>
      1c:	0c 94 2d 18 	jmp	0x305a	; 0x305a <__bad_interrupt>
      20:	0c 94 2d 18 	jmp	0x305a	; 0x305a <__bad_interrupt>
      24:	0c 94 2d 18 	jmp	0x305a	; 0x305a <__bad_interrupt>
      28:	0c 94 2d 18 	jmp	0x305a	; 0x305a <__bad_interrupt>
      2c:	0c 94 2d 18 	jmp	0x305a	; 0x305a <__bad_interrupt>
      30:	0c 94 2d 18 	jmp	0x305a	; 0x305a <__bad_interrupt>
      34:	0c 94 2d 18 	jmp	0x305a	; 0x305a <__bad_interrupt>
      38:	0c 94 2d 18 	jmp	0x305a	; 0x305a <__bad_interrupt>
      3c:	0c 94 2d 18 	jmp	0x305a	; 0x305a <__bad_interrupt>
      40:	0c 94 2d 18 	jmp	0x305a	; 0x305a <__bad_interrupt>
      44:	0c 94 2d 18 	jmp	0x305a	; 0x305a <__bad_interrupt>
      48:	0c 94 2d 18 	jmp	0x305a	; 0x305a <__bad_interrupt>
      4c:	0c 94 2d 18 	jmp	0x305a	; 0x305a <__bad_interrupt>
      50:	0c 94 2d 18 	jmp	0x305a	; 0x305a <__bad_interrupt>

00000054 <Font_32x50_Segment_7_Num_Plus>:
      54:	b6 00 5b 00 2e 3a 32                                ..[..:2

0000005b <Font_32x50_Segment_7_Num_PlusGlyphs>:
      5b:	00 00 07 07 20 0e f5 07 00 00 00 20 00 00 07 00     .... ...... ....
      6b:	1b 2e 20 02 d1 a3 00 06 27 20 17 d4 c1 00 1b 2e     .. .....' ......
      7b:	20 02 d1 5d 01 19 2e 20 04 d1 ed 01 1b 27 20 02      ..]... .....' .
      8b:	d4 71 02 1b 2e 20 02 d1 0d 03 1b 2e 20 02 d1 a9     .q... ...... ...
      9b:	03 17 2a 20 06 d1 22 04 1b 2e 20 02 d1 be 04 1b     ..* .."... .....
      ab:	2e 20 02 d1 5a 05 07 1c 20 0e db                    . ..Z... ..

000000b6 <Font_32x50_Segment_7_Num_PlusBitmaps>:
      b6:	38 fb ff ff ef 8e 00 03 ff f8 00 ff ff 80 3f ff     8.............?.
      c6:	f8 03 ff fe c3 3f ff bc f0 00 0f ff 00 01 ff e0     .....?..........
      d6:	00 3f fc 00 07 ff 80 00 ff f0 00 1f fe 00 03 ff     .?..............
      e6:	c0 00 7f f8 00 0f ff 00 01 ff e0 00 3f fc 00 07     ............?...
      f6:	ff 80 00 ff f0 00 1f fc 00 00 fe 00 00 07 00 00     ................
     106:	00 40 00 00 04 00 00 00 e0 00 00 7f 00 00 3f f0     .@............?.
     116:	00 1f fe 00 03 ff c0 00 7f f8 00 0f ff 00 01 ff     ................
     126:	e0 00 3f fc 00 07 ff 80 00 ff f0 00 1f fe 00 03     ..?.............
     136:	ff c0 00 7f f8 00 0f ff 00 01 ff e0 00 3f 78 00     .............?x.
     146:	03 c6 7f ff 30 1f ff f0 07 ff ff 00 7f ff c0 07     ....0...........
     156:	ff f0 00 31 ef ff ff ff ff ff ff ff ff ff ff 3c     ...1...........<
     166:	30 40 00 33 ff ff ff ff ff ff ff ff ff ff fd e3     0@.3............
     176:	00 03 ff f8 00 ff ff 80 3f ff f8 03 ff fe c0 3f     ........?......?
     186:	ff bc 00 00 0f c0 00 01 f8 00 00 3f 00 00 07 e0     ...........?....
     196:	00 00 fc 00 00 1f 80 00 03 f0 00 00 7e 00 00 0f     ............~...
     1a6:	c0 00 01 f8 00 00 3f 00 00 07 e0 00 00 fc 00 00     ......?.........
     1b6:	1f 80 00 00 f0 7f ff 86 1f ff fc 4f ff ff e4 ff     ...........O....
     1c6:	ff f8 e7 ff fc 1f 00 00 03 f0 00 00 7e 00 00 0f     ............~...
     1d6:	c0 00 01 f8 00 00 3f 00 00 07 e0 00 00 fc 00 00     ......?.........
     1e6:	1f 80 00 03 f0 00 00 7e 00 00 0f c0 00 01 f8 00     .......~........
     1f6:	00 3f 00 00 07 e0 00 00 78 00 00 06 7f ff 00 1f     .?......x.......
     206:	ff f0 07 ff ff 00 7f ff c0 07 ff f0 00 0f ff e0     ................
     216:	0f ff f8 0f ff fe 03 ff fe c0 ff fe f0 00 00 fc     ................
     226:	00 00 7e 00 00 3f 00 00 1f 80 00 0f c0 00 07 e0     ..~..?..........
     236:	00 03 f0 00 01 f8 00 00 fc 00 00 7e 00 00 3f 00     ...........~..?.
     246:	00 1f 80 00 0f c0 00 07 e0 00 00 f1 ff fe 19 ff     ................
     256:	ff c7 ff ff f8 ff ff f8 1f ff f1 80 00 03 c0 00     ................
     266:	07 e0 00 03 f0 00 01 f8 00 00 fc 00 00 7e 00 00     .............~..
     276:	3f 00 00 1f 80 00 0f c0 00 07 e0 00 03 f0 00 01     ?...............
     286:	f8 00 00 fc 00 00 7e 00 00 3f 00 00 0f 07 ff f3     ......~..?......
     296:	07 ff fc 07 ff ff 01 ff ff 00 7f ff 00 00 00 01     ................
     2a6:	86 00 00 79 e0 00 1f fe 00 03 ff c0 00 7f f8 00     ...y............
     2b6:	0f ff 00 01 ff e0 00 3f fc 00 07 ff 80 00 ff f0     .......?........
     2c6:	00 1f fe 00 03 ff c0 00 7f f8 00 0f ff 00 01 ff     ................
     2d6:	e0 00 3f f8 00 01 fc ff ff 0e 3f ff f8 9f ff ff     ..?.......?.....
     2e6:	c1 ff ff f0 0f ff f8 c0 00 00 78 00 00 3f 00 00     ..........x..?..
     2f6:	07 e0 00 00 fc 00 00 1f 80 00 03 f0 00 00 7e 00     ..............~.
     306:	00 0f c0 00 01 f8 00 00 3f 00 00 07 e0 00 00 fc     ........?.......
     316:	00 00 1f 80 00 03 f0 00 00 7e 00 00 07 80 00 00     .........~......
     326:	60 03 ff f8 00 ff ff 80 3f ff f8 03 ff fe 03 3f     `.......?......?
     336:	ff 80 f0 00 00 3f 00 00 07 e0 00 00 fc 00 00 1f     .....?..........
     346:	80 00 03 f0 00 00 7e 00 00 0f c0 00 01 f8 00 00     ......~.........
     356:	3f 00 00 07 e0 00 00 fc 00 00 1f 80 00 03 f0 00     ?...............
     366:	00 7c 00 00 0e 7f ff 81 1f ff fc 0f ff ff e0 ff     .|..............
     376:	ff f8 07 ff fc 60 00 00 3c 00 00 1f 80 00 03 f0     .....`..<.......
     386:	00 00 7e 00 00 0f c0 00 01 f8 00 00 3f 00 00 07     ..~.........?...
     396:	e0 00 00 fc 00 00 1f 80 00 03 f0 00 00 7e 00 00     .............~..
     3a6:	0f c0 00 01 f8 00 00 3f 00 00 03 c0 7f ff 30 1f     .......?......0.
     3b6:	ff f0 07 ff ff 00 7f ff c0 07 ff f0 00 03 ff f8     ................
     3c6:	00 ff ff 80 3f ff f8 03 ff fe 03 3f ff 80 f0 00     ....?......?....
     3d6:	00 3f 00 00 07 e0 00 00 fc 00 00 1f 80 00 03 f0     .?..............
     3e6:	00 00 7e 00 00 0f c0 00 01 f8 00 00 3f 00 00 07     ..~.........?...
     3f6:	e0 00 00 fc 00 00 1f 80 00 03 f0 00 00 7c 00 00     .............|..
     406:	0e 7f ff 81 1f ff fc 0f ff ff e4 ff ff f8 e7 ff     ................
     416:	fc 7f 00 00 3f f0 00 1f fe 00 03 ff c0 00 7f f8     ....?...........
     426:	00 0f ff 00 01 ff e0 00 3f fc 00 07 ff 80 00 ff     ........?.......
     436:	f0 00 1f fe 00 03 ff c0 00 7f f8 00 0f ff 00 01     ................
     446:	ff e0 00 3f 78 00 03 c6 7f ff 30 1f ff f0 07 ff     ...?x.....0.....
     456:	ff 00 7f ff c0 07 ff f0 00 3f ff 80 ff ff 83 ff     .........?......
     466:	ff 83 ff fe c3 ff fb c0 00 0f c0 00 1f 80 00 3f     ...............?
     476:	00 00 7e 00 00 fc 00 01 f8 00 03 f0 00 07 e0 00     ..~.............
     486:	0f c0 00 1f 80 00 3f 00 00 7e 00 00 fc 00 01 f8     ......?..~......
     496:	00 00 f0 00 00 60 00 00 40 00 00 00 00 00 00 00     .....`..@.......
     4a6:	06 00 00 3c 00 01 f8 00 03 f0 00 07 e0 00 0f c0     ...<............
     4b6:	00 1f 80 00 3f 00 00 7e 00 00 fc 00 01 f8 00 03     ....?..~........
     4c6:	f0 00 07 e0 00 0f c0 00 1f 80 00 3f 00 00 3c 00     ...........?..<.
     4d6:	00 30 03 ff f8 00 ff ff 80 3f ff f8 03 ff fe c3     .0.......?......
     4e6:	3f ff bc f0 00 0f ff 00 01 ff e0 00 3f fc 00 07     ?...........?...
     4f6:	ff 80 00 ff f0 00 1f fe 00 03 ff c0 00 7f f8 00     ................
     506:	0f ff 00 01 ff e0 00 3f fc 00 07 ff 80 00 ff f0     .......?........
     516:	00 1f fc 00 00 fe 7f ff 87 1f ff fc 4f ff ff e4     ............O...
     526:	ff ff f8 e7 ff fc 7f 00 00 3f f0 00 1f fe 00 03     .........?......
     536:	ff c0 00 7f f8 00 0f ff 00 01 ff e0 00 3f fc 00     .............?..
     546:	07 ff 80 00 ff f0 00 1f fe 00 03 ff c0 00 7f f8     ................
     556:	00 0f ff 00 01 ff e0 00 3f 78 00 03 c6 7f ff 30     ........?x.....0
     566:	1f ff f0 07 ff ff 00 7f ff c0 07 ff f0 00 03 ff     ................
     576:	f8 00 ff ff 80 3f ff f8 03 ff fe c3 3f ff bc f0     .....?......?...
     586:	00 0f ff 00 01 ff e0 00 3f fc 00 07 ff 80 00 ff     ........?.......
     596:	f0 00 1f fe 00 03 ff c0 00 7f f8 00 0f ff 00 01     ................
     5a6:	ff e0 00 3f fc 00 07 ff 80 00 ff f0 00 1f fc 00     ...?............
     5b6:	00 fe 7f ff 87 1f ff fc 4f ff ff e0 ff ff f8 07     ........O.......
     5c6:	ff fc 60 00 00 3c 00 00 1f 80 00 03 f0 00 00 7e     ..`..<.........~
     5d6:	00 00 0f c0 00 01 f8 00 00 3f 00 00 07 e0 00 00     .........?......
     5e6:	fc 00 00 1f 80 00 03 f0 00 00 7e 00 00 0f c0 00     ..........~.....
     5f6:	01 f8 00 00 3f 00 00 03 c0 7f ff 30 1f ff f0 07     ....?......0....
     606:	ff ff 00 7f ff c0 07 ff f0 00 38 fb ff ff ef 8e     ..........8.....
	...
     622:	07 1f 7f ff fd f1 c0                                .......

00000629 <Font_18x42_Serif>:
     629:	c9 08 30 06 20 7e 2a                                ..0. ~*

00000630 <Font_18x42_SerifGlyphs>:
     630:	00 00 00 00 09 00 01 00 00 04 18 0c 05 e9 0c 00     ................
     640:	08 09 0e 03 e9 15 00 11 17 11 00 ea 46 00 0d 1b     ............F...
     650:	11 02 e8 72 00 19 17 1d 02 ea ba 00 19 19 1b 01     ...r............
     660:	e8 09 01 03 09 07 02 e9 0d 01 09 1e 0c 02 e9 2f     .............../
     670:	01 09 1e 0c 01 ea 51 01 0c 0e 12 03 e9 66 01 10     ......Q......f..
     680:	12 14 02 ef 8a 01 04 09 09 02 fd 8f 01 08 02 0c     ................
     690:	01 f8 91 01 04 04 09 02 fd 93 01 0a 18 0a 00 e9     ................
     6a0:	b1 01 10 18 12 01 e9 e1 01 0a 18 12 03 e9 ff 01     ................
     6b0:	10 18 11 01 e9 2f 02 0d 18 11 02 e9 56 02 10 17     ...../......V...
     6c0:	12 00 ea 84 02 0d 18 11 02 e9 ab 02 10 18 12 01     ................
     6d0:	e9 db 02 0e 17 12 01 ea 04 03 0c 19 12 02 e8 2a     ...............*
     6e0:	03 10 1a 11 01 e8 5e 03 04 11 09 02 f0 67 03 05     ......^......g..
     6f0:	16 09 02 f0 75 03 12 12 14 01 ef 9e 03 12 09 14     ....u...........
     700:	01 f4 b3 03 12 12 14 01 ef dc 03 0d 19 10 02 e8     ................
     710:	05 04 18 19 1e 03 e8 50 04 18 17 19 01 ea 95 04     .......P........
     720:	14 17 16 01 ea cf 04 16 18 17 01 e9 11 05 17 17     ................
     730:	19 01 ea 54 05 14 17 15 02 ea 8e 05 11 17 14 02     ...T............
     740:	ea bf 05 17 18 19 01 e9 04 06 16 17 19 02 ea 44     ...............D
     750:	06 09 17 0b 02 ea 5e 06 0c 17 0d 00 ea 81 06 17     ......^.........
     760:	17 19 02 ea c4 06 13 17 15 02 ea fb 06 1d 17 1f     ................
     770:	01 ea 4f 07 17 17 19 01 ea 92 07 17 18 19 01 e9     ..O.............
     780:	d7 07 12 17 14 01 ea 0b 08 17 1e 19 01 e9 62 08     ..............b.
     790:	15 17 17 02 ea 9f 08 10 18 13 01 e9 cf 08 14 17     ................
     7a0:	15 01 ea 09 09 16 17 19 02 ea 49 09 18 17 19 00     ..........I.....
     7b0:	ea 8e 09 21 17 21 00 ea ed 09 19 17 19 00 ea 35     ...!.!.........5
     7c0:	0a 18 17 19 01 ea 7a 0a 15 17 15 00 ea b7 0a 07     ......z.........
     7d0:	1c 0c 03 ea d0 0a 0a 18 0a 00 e9 ee 0a 07 1c 0c     ................
     7e0:	02 ea 07 0b 0f 0d 10 01 ea 20 0b 12 02 11 00 03     ......... ......
     7f0:	25 0b 08 06 09 01 e9 2b 0b 0d 10 0f 02 f1 45 0b     %......+......E.
     800:	10 19 11 01 e8 77 0b 0e 10 10 01 f1 93 0b 10 19     .....w..........
     810:	11 01 e8 c5 0b 0d 10 10 01 f1 df 0b 0d 19 0d 00     ................
     820:	e8 08 0c 10 18 10 01 f1 38 0c 10 19 11 01 e8 6a     ........8......j
     830:	0c 08 18 0a 00 e9 82 0c 09 20 0c 00 e9 a6 0c 11     ......... ......
     840:	19 12 01 e8 dc 0c 08 19 09 00 e8 f5 0c 1a 10 1b     ................
     850:	01 f1 29 0d 10 10 11 01 f1 49 0d 10 10 11 01 f1     ..)......I......
     860:	69 0d 10 18 11 01 f1 99 0d 10 18 11 01 f1 c9 0d     i...............
     870:	0b 10 0c 01 f1 df 0d 0a 10 0d 01 f1 f3 0d 08 13     ................
     880:	0a 02 ee 06 0e 10 10 11 01 f1 26 0e 10 10 10 00     ..........&.....
     890:	f1 46 0e 18 10 18 00 f1 76 0e 11 10 11 00 f1 98     .F......v.......
     8a0:	0e 10 18 10 00 f1 c8 0e 0e 10 0f 00 f1 e4 0e 08     ................
     8b0:	1e 11 03 e9 02 0f 02 18 07 02 e9 08 0f 08 1e 11     ................
     8c0:	06 ea 26 0f 10 04 11 01 f6                          ..&......

000008c9 <Font_18x42_SerifBitmaps>:
     8c9:	6f ff ff fe 66 66 66 64 40 00 6f f6 e7 e7 e7 e7     o...fffd@.o.....
     8d9:	e7 46 42 42 42 03 06 01 83 00 c1 80 61 c0 30 c0     .FBBB.......a.0.
     8e9:	38 60 18 30 ff ff 7f ff 83 06 01 86 00 c3 00 c1     8`.0............
     8f9:	87 ff ff ff fe 18 30 0c 18 06 18 06 0c 03 06 01     ......0.........
     909:	83 00 c1 80 60 c0 02 00 10 03 e0 64 e6 23 61 1b     ....`......d.#a.
     919:	08 58 42 e2 03 90 1f 80 7e 00 fc 01 f0 0f c0 4e     .XB.....~......N
     929:	02 38 10 e0 87 04 3c 21 e1 1b c9 cf fc 1f 80 10     .8....<!........
     939:	00 80 07 80 20 0f f0 70 0f 07 d0 0f 02 18 07 01     .... ..p........
     949:	18 07 00 8c 03 80 4c 01 80 44 00 c0 26 00 60 22     ......L..D..&.`"
     959:	0f 30 33 1f cc 73 1e 37 f1 8e 19 e1 8e 04 00 86     .03..s.7........
     969:	02 00 c7 01 00 c3 80 80 61 80 80 60 c0 40 30 60     ........a..`.@0`
     979:	40 30 38 e0 30 0f e0 18 03 c0 00 78 00 00 7e 00     @08.0......x..~.
     989:	00 61 80 00 60 60 00 30 30 00 18 18 00 0c 0c 00     .a..``.00.......
     999:	06 0c 00 03 8e 00 01 ce 00 00 7c 3f c0 38 07 80     ..........|?.8..
     9a9:	3e 03 80 77 01 80 73 c0 80 f0 f0 c0 70 7c c0 78     >..w..s.....p|.x
     9b9:	1e 40 3c 07 c0 1e 01 e0 0f 00 78 0f c0 ff 0d f0     .@<.......x.....
     9c9:	c7 fc 7f c1 fc 1f 80 3c 00 ff fe 92 40 00 80 80     .......<....@...
     9d9:	80 80 80 c0 c0 60 70 30 18 1c 0e 07 03 81 c0 e0     .....`p0........
     9e9:	70 38 0c 06 03 80 c0 60 18 0c 03 00 c0 30 0c 80     p8.....`.....0..
     9f9:	30 0c 03 00 c0 60 18 0c 07 01 80 c0 70 38 1c 0e     0....`......p8..
     a09:	07 03 81 c0 e0 60 30 38 18 0c 0c 04 04 04 04 04     .....`08........
     a19:	00 0c 00 c0 0c 0c 46 e4 f7 5e 1f 00 c0 17 8e 4e     ......F..^.....N
     a29:	e4 fc c6 0c 00 c0 01 80 01 80 01 80 01 80 01 80     ................
     a39:	01 80 01 80 01 80 ff ff ff ff 01 80 01 80 01 80     ................
     a49:	01 80 01 80 01 80 01 80 01 80 6f ff 11 24 80 ff     ..........o..$..
     a59:	ff 6f f6 00 c0 60 18 06 03 80 c0 30 1c 06 01 80     .o...`.....0....
     a69:	e0 30 0c 07 01 80 60 38 0c 03 01 c0 60 18 0e 03     .0....`8....`...
     a79:	00 03 e0 0e 70 1c 38 38 1c 38 1c 78 1e 70 0e f0     ....p.88.8.x.p..
     a89:	0f f0 0f f0 0f f0 0f f0 0f f0 0f f0 0f f0 0f f0     ................
     a99:	0f 70 0e 70 0e 78 1e 38 1c 38 1c 1c 38 0c 30 03     .p.p.x.8.8..8.0.
     aa9:	c0 06 03 83 e3 38 0e 03 80 e0 38 0e 03 80 e0 38     .....8....8....8
     ab9:	0e 03 80 e0 38 0e 03 80 e0 38 0e 03 81 e1 ff 07     ....8....8......
     ac9:	c0 1f f0 3f f8 70 f8 60 3c c0 3c 80 1c 00 1c 00     ...?.p.`<.<.....
     ad9:	1c 00 18 00 18 00 30 00 30 00 60 00 c0 00 80 01     ......0.0.`.....
     ae9:	00 02 00 04 00 08 01 10 02 3f fe 7f fc ff fc 0f     .........?......
     af9:	c0 ff 0c 3c 80 e4 03 00 18 00 c0 04 00 40 04 00     ...<.........@..
     b09:	f8 1f e0 0f 00 1c 00 e0 03 00 18 00 c0 06 00 60     ...............`
     b19:	03 78 73 ff 0f c0 00 30 00 30 00 70 00 f0 00 b0     .xs....0.0.p....
     b29:	01 30 03 30 06 30 04 30 08 30 18 30 10 30 20 30     .0.0.0.0.0.0.0 0
     b39:	60 30 c0 30 ff ff ff ff 00 30 00 30 00 30 00 30     `0.0.....0.0.0.0
     b49:	00 30 00 30 00 00 7f c3 fe 1f e1 80 08 00 c0 07     .0.0............
     b59:	c0 7f 81 ff 00 fc 01 e0 07 80 1c 00 60 03 00 18     ............`...
     b69:	00 c0 06 00 60 07 78 73 ff 0f c0 00 0e 00 f8 03     ....`.xs........
     b79:	c0 07 80 0f 00 1e 00 3c 00 7c 00 79 f0 7f fc f8     .......<.|.y....
     b89:	3c f0 1e f0 1f f0 0f f0 0f f0 0f f0 0f 70 0f 78     <............p.x
     b99:	0f 78 0e 3c 1e 1e 3c 0f f8 07 e0 3f fd ff f7 ff     .x.<..<....?....
     ba9:	f0 06 80 18 00 60 03 00 0c 00 30 01 80 06 00 18     .....`....0.....
     bb9:	00 e0 03 00 0c 00 70 01 80 06 00 38 00 c0 03 00     ......p....8....
     bc9:	1c 00 60 00 0f 83 fc 70 e6 07 c0 3c 03 c0 3e 03     ..`....p...<..>.
     bd9:	70 67 8c 3d 81 f0 0f 81 7c 21 e6 0e c0 7c 03 c0     pg.=....|!...|..
     be9:	3c 03 c0 36 06 70 e3 fc 0f 80 07 c0 1f f0 3c 78     <..6.p........<x
     bf9:	38 3c 78 1e 70 1e f0 0e f0 0f f0 0f f0 0f f0 0f     8<x.p...........
     c09:	f0 0f f8 0f 78 0f 3c 3f 1f ee 0f 9e 00 1e 00 3c     ....x.<?.......<
     c19:	00 38 00 78 00 f0 01 e0 07 80 1e 00 70 00 6f f6     .8.x........p.o.
     c29:	00 00 00 00 06 ff 60 67 bc c0 00 00 00 00 00 19     ......`g........
     c39:	ef 78 42 22 20 00 00 c0 00 f0 01 f8 01 f8 01 f8     .xB" ...........
     c49:	01 f0 03 f0 03 f0 00 f0 00 3e 00 07 e0 00 7e 00     .........>....~.
     c59:	03 e0 00 3e 00 03 f0 00 3f 00 03 c0 00 10 ff ff     ...>....?.......
     c69:	ff ff f0 00 00 00 00 00 00 00 00 00 00 03 ff ff     ................
     c79:	ff ff c0 80 00 3c 00 0f c0 00 fc 00 07 c0 00 7c     .....<.........|
     c89:	00 07 e0 00 7e 00 07 c0 00 f0 00 fc 00 fc 00 f8     ....~...........
     c99:	01 f8 01 f8 01 f8 00 f0 00 30 00 00 1f 81 ff 18     .........0......
     ca9:	7d 81 ec 07 f0 3f 81 e0 0f 00 70 03 80 38 01 80     }....?....p..8..
     cb9:	08 00 c0 04 00 20 02 00 10 00 80 00 00 00 03 00     ..... ..........
     cc9:	3c 01 e0 07 00 00 7f 00 01 ff c0 07 80 f0 0f 00     <...............
     cd9:	38 1c 00 1c 38 00 0c 38 00 06 70 1e 02 70 3f e3     8...8..8..p..p?.
     ce9:	f0 71 e1 e0 e0 c1 e0 c0 c1 e0 c1 c1 e1 81 c1 e1     .q..............
     cf9:	81 83 e1 83 82 e1 83 86 71 c7 8c 70 f9 f8 38 f0     ........q..p..8.
     d09:	f0 3c 00 00 1e 00 00 07 80 70 03 ff e0 00 7f 00     .<.......p......
     d19:	00 10 00 00 38 00 00 38 00 00 38 00 00 7c 00 00     ....8..8..8..|..
     d29:	5c 00 00 de 00 00 8e 00 01 8f 00 01 87 00 03 07     \...............
     d39:	80 03 03 80 02 03 c0 06 03 c0 07 ff c0 0f ff e0     ................
     d49:	0c 01 e0 18 00 f0 18 00 f0 30 00 78 30 00 78 70     .........0.x0.xp
     d59:	00 7c fc 01 ff ff fc 03 ff f8 1e 0f c1 e0 3c 1e     .|............<.
     d69:	01 e1 e0 1e 1e 01 e1 e0 1e 1e 03 c1 e0 78 1f fe     .............x..
     d79:	01 ff f0 1e 07 c1 e0 1e 1e 00 f1 e0 0f 1e 00 f1     ................
     d89:	e0 0f 1e 00 f1 e0 1e 1e 07 e3 ff f8 ff fe 00 00     ................
     d99:	fe 08 0f ff 60 fc 1f 87 c0 1e 3c 00 38 f0 00 67     ....`.....<.8..g
     da9:	80 01 9e 00 02 f0 00 03 c0 00 0f 00 00 3c 00 00     .............<..
     db9:	f0 00 03 c0 00 0f 00 00 3c 00 00 78 00 01 e0 00     ........<..x....
     dc9:	03 c0 00 0f 00 02 1f 00 38 3f 03 80 7f fc 00 3f     ........8?.....?
     dd9:	80 ff fc 00 7f ff 00 78 3f 80 f0 0f 81 e0 0f 83     .......x?.......
     de9:	c0 0f 07 80 0f 0f 00 1e 1e 00 1e 3c 00 3c 78 00     ...........<.<x.
     df9:	78 f0 00 f1 e0 01 e3 c0 03 c7 80 07 8f 00 1e 1e     x...............
     e09:	00 3c 3c 00 f0 78 01 e0 f0 0f 81 e0 7e 07 ff f0     .<<..x......~...
     e19:	3f ff 00 00 ff ff 87 ff f8 3c 01 83 c0 08 3c 00     ?........<....<.
     e29:	83 c0 00 3c 00 03 c0 00 3c 02 03 c0 60 3f fe 03     ...<....<...`?..
     e39:	ff e0 3c 06 03 c0 20 3c 00 03 c0 00 3c 00 03 c0     ..<... <....<...
     e49:	01 3c 00 23 c0 06 3c 01 e7 ff fe ff ff c0 ff ff     .<.#..<.........
     e59:	bf ff cf 00 67 80 13 c0 09 e0 00 f0 00 78 00 3c     ....g........x.<
     e69:	02 1e 03 0f ff 87 ff c3 c0 61 e0 10 f0 00 78 00     .........a....x.
     e79:	3c 00 1e 00 0f 00 07 80 03 c0 03 f0 03 fc 00 00     <...............
     e89:	fe 04 07 ff b8 1f 03 f0 f8 01 e3 e0 01 c7 80 01     ................
     e99:	9e 00 01 3c 00 00 f0 00 01 e0 00 03 c0 00 07 80     ...<............
     ea9:	07 ff 00 07 de 00 07 bc 00 0f 78 00 1e 78 00 3c     ..........x..x.<
     eb9:	f0 00 78 f0 00 f1 f0 01 e1 f0 03 c1 f8 1f 00 ff     ..x.............
     ec9:	fc 00 3f 80 ff 03 fd f8 07 e3 c0 0f 0f 00 3c 3c     ..?...........<<
     ed9:	00 f0 f0 03 c3 c0 0f 0f 00 3c 3c 00 f0 f0 03 c3     .........<<.....
     ee9:	ff ff 0f ff fc 3c 00 f0 f0 03 c3 c0 0f 0f 00 3c     .....<.........<
     ef9:	3c 00 f0 f0 03 c3 c0 0f 0f 00 3c 3c 00 f1 f8 07     <.........<<....
     f09:	ef f0 3f c0 ff bf 0f 07 83 c1 e0 f0 78 3c 1e 0f     ..?.........x<..
     f19:	07 83 c1 e0 f0 78 3c 1e 0f 07 83 c3 f3 fe 0f f0     .....x<.........
     f29:	7e 03 c0 3c 03 c0 3c 03 c0 3c 03 c0 3c 03 c0 3c     ~..<..<..<..<..<
     f39:	03 c0 3c 03 c0 3c 03 c0 3c 03 c6 38 f3 8f f0 7c     ..<..<..<..8...|
     f49:	00 ff 07 fc fc 03 c0 f0 07 01 e0 1c 03 c0 60 07     ..............`.
     f59:	81 80 0f 06 00 1e 18 00 3c 60 00 79 80 00 ff 00     ........<`.y....
     f69:	01 ff 00 03 df 00 07 8f 00 0f 0f 00 1e 0f 00 3c     ...............<
     f79:	0f 00 78 0f 00 f0 1f 01 e0 1f 03 c0 1f 0f c0 3f     ..x............?
     f89:	3f c1 ff 80 ff 00 0f c0 00 f0 00 1e 00 03 c0 00     ?...............
     f99:	78 00 0f 00 01 e0 00 3c 00 07 80 00 f0 00 1e 00     x......<........
     fa9:	03 c0 00 78 00 0f 00 01 e0 00 3c 00 07 80 04 f0     ...x......<.....
     fb9:	01 1e 00 63 c0 3c ff ff bf ff e0 fc 00 03 f9 f0     ...c.<..........
     fc9:	00 1f 87 80 01 f8 3e 00 0f c1 f0 00 5e 0b c0 06     ......>.....^...
     fd9:	f0 5e 00 37 82 78 03 3c 13 c0 19 e0 8f 01 8f 04     .^.7.x.<........
     fe9:	78 0c 78 21 e0 c3 c1 0f 06 1e 08 3c 60 f0 41 e3     x.x!.......<`.A.
     ff9:	07 82 07 b0 3c 10 3d 81 e0 81 f8 0f 04 07 c0 78     ....<.=........x
    1009:	20 3c 03 c1 00 e0 1e 1c 06 01 fb f8 10 1f e0 fc      <..............
    1019:	00 fe 78 00 70 78 00 40 f8 00 81 f8 01 02 f8 02     ..x.px.@........
    1029:	04 f8 04 08 f0 08 11 f0 10 21 f0 20 41 f0 40 81     .........!. A.@.
    1039:	f0 81 01 f1 02 01 e2 04 03 e4 08 03 e8 10 03 f0     ................
    1049:	20 03 e0 40 03 c0 80 03 81 00 07 07 00 06 3f 80      ..@..........?.
    1059:	04 00 00 fe 00 07 ff 00 3e 0f 80 f0 07 83 c0 07     ........>.......
    1069:	87 80 07 1e 00 0f 3c 00 1e f0 00 1f e0 00 3f c0     ......<.......?.
    1079:	00 7f 80 00 ff 00 01 fe 00 03 fc 00 07 f8 00 0f     ................
    1089:	78 00 3c f0 00 78 e0 01 e1 e0 03 c1 e0 0f 01 f0     x.<..x..........
    1099:	7c 00 ff e0 00 7f 00 ff f8 1f ff 83 c1 f0 f0 1e     |...............
    10a9:	3c 07 cf 00 f3 c0 3c f0 0f 3c 03 cf 01 f3 c0 78     <.....<..<.....x
    10b9:	f0 7c 3f fe 0f fe 03 c0 00 f0 00 3c 00 0f 00 03     .|?........<....
    10c9:	c0 00 f0 00 3c 00 1f 00 0f f0 00 00 fe 00 07 ff     ....<...........
    10d9:	00 3e 0f 80 f0 07 83 c0 07 87 80 0f 1e 00 0f 3c     .>.............<
    10e9:	00 1e f0 00 1d e0 00 3f c0 00 7f 80 00 ff 00 01     .......?........
    10f9:	fe 00 03 fc 00 07 f8 00 0f 70 00 1c f0 00 79 e0     .........p....y.
    1109:	00 f1 e0 03 c1 c0 07 01 c0 1c 01 e0 f0 00 7f 00     ................
    1119:	00 7c 00 00 7c 00 00 7c 00 00 7e 00 00 1f 00 00     .|..|..|..~.....
    1129:	0f c0 ff f0 03 ff f0 0f 07 c0 78 1e 03 c0 78 1e     ..........x...x.
    1139:	03 c0 f0 1e 07 80 f0 3c 07 81 e0 78 0f 0f 80 7f     .......<...x....
    1149:	f8 03 fe 00 1e 78 00 f1 e0 07 87 80 3c 3c 01 e0     .....x......<<..
    1159:	f0 0f 03 c0 78 0f 03 c0 7c 3f 01 f3 fc 07 e0 07     ....x...|?......
    1169:	84 1f fc 3c 3e 30 0e 70 06 70 06 70 02 78 00 7c     ...<>0.p.p.p.x.|
    1179:	00 3f 00 1f c0 0f e0 03 f8 00 fc 00 3e 00 1f 80     .?..........>...
    1189:	0f 80 0f c0 0f e0 0f 70 1e 78 3c 4f f8 43 f0 ff     .......p.x<O.C..
    1199:	ff ff ff ff e0 f0 7c 0f 03 80 f0 10 0f 00 00 f0     ......|.........
    11a9:	00 0f 00 00 f0 00 0f 00 00 f0 00 0f 00 00 f0 00     ................
    11b9:	0f 00 00 f0 00 0f 00 00 f0 00 0f 00 00 f0 00 0f     ................
    11c9:	00 00 f0 00 1f 80 03 fc 00 ff 01 fd f8 01 c3 c0     ................
    11d9:	02 0f 00 08 3c 00 20 f0 00 83 c0 02 0f 00 08 3c     ....<. ........<
    11e9:	00 20 f0 00 83 c0 02 0f 00 08 3c 00 20 f0 00 83     . ........<. ...
    11f9:	c0 02 0f 00 08 3c 00 20 f0 00 81 e0 04 07 80 30     .....<. .......0
    1209:	0f 81 80 1f fc 00 1f c0 00 ff c0 7f 3e 00 1e 1e     ............>...
    1219:	00 0c 0e 00 18 0f 00 18 07 00 10 07 80 30 07 80     .............0..
    1229:	30 03 c0 60 03 c0 60 01 e0 40 01 e0 c0 00 f0 c0     0..`..`..@......
    1239:	00 f1 80 00 71 80 00 7b 00 00 3b 00 00 3e 00 00     ....q..{..;..>..
    1249:	1e 00 00 1e 00 00 0c 00 00 0c 00 00 08 00 ff 9f     ................
    1259:	f0 3f 9f 03 e0 07 07 80 f0 03 03 c0 78 01 80 e0     .?..........x...
    1269:	1e 00 80 78 0f 00 c0 1c 03 80 60 0f 01 e0 20 07     ...x......`... .
    1279:	81 f0 30 01 c0 bc 18 00 f0 de 08 00 78 67 0c 00     ..0.........xg..
    1289:	1e 23 c4 00 0f 31 e6 00 03 90 7b 00 01 f8 3d 00     .#...1....{...=.
    1299:	00 fc 0f 80 00 3c 07 c0 00 1e 03 c0 00 0f 00 e0     .....<..........
    12a9:	00 03 00 70 00 01 80 10 00 00 80 08 00 7f e0 ff     ...p............
    12b9:	0f c0 1e 03 e0 0e 00 f0 06 00 3c 06 00 0f 06 00     ..........<.....
    12c9:	07 86 00 01 e6 00 00 7b 00 00 3f 00 00 0f 00 00     .......{..?.....
    12d9:	03 c0 00 03 f0 00 03 78 00 01 9e 00 01 87 80 01     .......x........
    12e9:	83 e0 01 80 f0 01 80 3c 01 80 1f 01 c0 07 c1 e0     .......<........
    12f9:	03 f3 fe 0f fe ff c0 ff 7e 00 1c 1e 00 18 1f 00     ........~.......
    1309:	30 0f 00 60 07 80 60 03 c0 c0 03 e1 80 01 e1 80     0..`..`.........
    1319:	00 f3 00 00 fe 00 00 7e 00 00 3c 00 00 3c 00 00     .......~..<..<..
    1329:	3c 00 00 3c 00 00 3c 00 00 3c 00 00 3c 00 00 3c     <..<..<..<..<..<
    1339:	00 00 3c 00 00 7e 00 01 ff 80 3f ff f1 ff ff 9c     ..<..~....?.....
    1349:	00 78 c0 07 84 00 38 00 03 c0 00 3c 00 03 c0 00     .x....8....<....
    1359:	1c 00 01 e0 00 1e 00 01 e0 00 0e 00 00 f0 00 0f     ................
    1369:	00 00 f0 00 07 00 00 78 00 47 80 06 78 00 33 80     .......x.G..x.3.
    1379:	07 3f ff fb ff ff c0 ff 83 06 0c 18 30 60 c1 83     .?..........0`..
    1389:	06 0c 18 30 60 c1 83 06 0c 18 30 60 c1 83 07 f0     ...0`.....0`....
    1399:	c0 18 06 01 80 70 0c 03 00 e0 18 06 01 c0 30 0c     .....p........0.
    13a9:	03 80 60 18 07 00 c0 30 0e 01 80 60 1c 03 fe 0c     ..`....0...`....
    13b9:	18 30 60 c1 83 06 0c 18 30 60 c1 83 06 0c 18 30     .0`.....0`.....0
    13c9:	60 c1 83 06 0c 1f f0 03 80 0f 00 1f 00 76 00 ce     `............v..
    13d9:	03 8c 06 1c 1c 18 30 30 e0 31 80 67 00 6c 00 c0     ......00.1.g.l..
    13e9:	ff ff ff ff f0 c0 e0 70 18 0c 03 1f 03 8c 38 31     .......p......81
    13f9:	c1 8e 0c 00 60 0f 01 98 30 c3 86 38 31 c1 8e 0c     ....`...0..81...
    1409:	78 e5 fb cf 0c 00 00 38 00 f8 00 38 00 38 00 38     x......8...8.8.8
    1419:	00 38 00 38 00 38 00 39 f0 3b fc 3c 3e 38 0e 38     .8.8.8.9.;.<>8.8
    1429:	0f 38 07 38 07 38 07 38 07 38 07 38 06 38 0e 38     .8.8.8.8.8.8.8.8
    1439:	0c 3c 1c 1f f0 07 e0 07 e0 7f e3 87 d8 0f 60 1b     .<............`.
    1449:	00 0c 00 30 00 c0 03 00 0e 00 3c 01 78 19 ff c3     ...0......<.x...
    1459:	fe 03 e0 00 00 00 1c 00 7c 00 1c 00 1c 00 1c 00     ........|.......
    1469:	1c 00 1c 00 1c 07 9c 1f dc 38 7c 70 3c 70 1c 60     .........8|p<p.`
    1479:	1c e0 1c e0 1c e0 1c e0 1c e0 1c f0 1c 70 1c 7c     .............p.|
    1489:	3e 3f df 0f 90 0f 81 ff 08 3c 80 e7 ff 7f ff 00     >?.......<......
    1499:	18 00 c0 07 00 38 03 e0 37 83 3f f0 ff 03 f0 01     .....8..7.?.....
    14a9:	f0 3f c3 8e 18 00 c0 0e 00 70 03 80 1c 03 fe 1f     .?.......p......
    14b9:	f0 38 01 c0 0e 00 70 03 80 1c 00 e0 07 00 38 01     .8....p.......8.
    14c9:	c0 0e 00 70 07 c0 ff 80 0f c0 1f ff 38 ff 70 70     ...p........8.pp
    14d9:	70 70 70 30 70 30 70 30 38 20 1c 60 0f 80 10 00     ppp0p0p08 .`....
    14e9:	20 00 60 00 7f e0 3f fc 1f fe 20 06 40 02 c0 02      .`...?... .@...
    14f9:	c0 04 f0 18 7f f0 1f 80 00 00 38 00 f8 00 38 00     ..........8...8.
    1509:	38 00 38 00 38 00 38 00 38 00 38 f0 3b f8 3e 3c     8.8.8.8.8.8.;.><
    1519:	3c 1c 38 1c 38 1c 38 1c 38 1c 38 1c 38 1c 38 1c     <.8.8.8.8.8.8.8.
    1529:	38 1c 38 1c 38 1c 7c 3e fe 7f 18 3c 3c 18 00 00     8.8.8.|>...<<...
    1539:	00 00 04 3c 7c 1c 1c 1c 1c 1c 1c 1c 1c 1c 1c 1c     ...<|...........
    1549:	3c ff 03 03 c1 e0 60 00 00 00 00 00 83 c3 e0 70     <.....`........p
    1559:	38 1c 0e 07 03 81 c0 e0 70 38 1c 0e 07 03 81 c0     8.......p8......
    1569:	e0 70 37 3b f8 f8 00 00 1c 00 3e 00 07 00 03 80     .p7;......>.....
    1579:	01 c0 00 e0 00 70 00 38 00 1c 3f 8e 0f 07 06 03     .....p.8..?.....
    1589:	86 01 c4 00 e4 00 7e 00 3f 80 1d c0 0e 70 07 1c     ......~.?....p..
    1599:	03 8f 01 c3 c0 e0 f0 f8 3c fe 7f 80 00 1c 7c 1c     ........<.....|.
    15a9:	1c 1c 1c 1c 1c 1c 1c 1c 1c 1c 1c 1c 1c 1c 1c 1c     ................
    15b9:	1c 1c 1c 3c ff 38 f0 7c 3e fe 7f 83 e3 f0 e0 e0     ...<.8.|>.......
    15c9:	70 1c 38 1c 07 0e 07 01 c3 81 c0 70 e0 70 1c 38     p.8........p.p.8
    15d9:	1c 07 0e 07 01 c3 81 c0 70 e0 70 1c 38 1c 07 0e     ........p.p.8...
    15e9:	07 01 c3 81 e0 73 f9 fc 7f 38 f0 fb f8 3e 3c 38     .....s...8...><8
    15f9:	1c 38 1c 38 1c 38 1c 38 1c 38 1c 38 1c 38 1c 38     .8.8.8.8.8.8.8.8
    1609:	1c 38 1c 38 1c 78 3c fe 7f 07 e0 1f f8 3c 7c 78     .8.8.x<......<|x
    1619:	3e 70 1e f0 0f f0 0f f0 0f f0 0f f0 0f f8 0f 78     >p.............x
    1629:	0e 7c 1c 3e 3c 0f f0 07 c0 18 f0 fb fc 3e 1e 38     .|.><........>.8
    1639:	0e 38 0f 38 07 38 07 38 07 38 07 38 07 38 06 38     .8.8.8.8.8.8.8.8
    1649:	0e 38 0c 3e 1c 3b f8 39 e0 38 00 38 00 38 00 38     .8.>.;.9.8.8.8.8
    1659:	00 38 00 38 00 7c 00 ff 00 07 c4 1f ec 3c 3c 70     .8.8.|.......<<p
    1669:	1c 70 1c 60 1c e0 1c e0 1c e0 1c e0 1c e0 1c f0     .p.`............
    1679:	1c 70 1c 78 3c 3f dc 1f 1c 00 1c 00 1c 00 1c 00     .p.x<?..........
    1689:	1c 00 1c 00 1c 00 3e 00 ff 19 ff 7c f3 9c 03 80     ......>....|....
    1699:	70 0e 01 c0 38 07 00 e0 1c 03 80 70 1f 07 f0 3e     p...8......p...>
    16a9:	58 7c 0f 03 c0 7c 07 80 f8 1f 81 f8 1e 03 c0 f0     X|...|..........
    16b9:	3e 1a 7c 10 30 70 fe fe 70 70 70 70 70 70 70 70     >.|.0p..pppppppp
    16c9:	70 70 70 79 7e 3c f8 7c 38 3c 38 1c 38 1c 38 1c     pppy~<.|8<8.8.8.
    16d9:	38 1c 38 1c 38 1c 38 1c 38 1c 38 1c 38 1c 38 1c     8.8.8.8.8.8.8.8.
    16e9:	3c 7c 1f df 0f 18 fe 1f 7c 06 38 04 1c 04 1c 0c     <|......|.8.....
    16f9:	0e 08 0e 18 07 10 07 10 07 20 03 a0 03 e0 01 c0     ......... ......
    1709:	01 c0 00 80 00 80 fc 7f 1f 78 3c 06 38 1c 04 38     .........x<.8..8
    1719:	1c 04 1c 1c 0c 1c 0e 08 1c 1e 18 0e 17 10 0e 37     ...............7
    1729:	10 07 23 30 07 63 a0 07 43 e0 03 c1 c0 03 81 c0     ..#0.c..C.......
    1739:	01 80 80 01 00 80 7f 7e 1e 0c 07 8c 01 c4 00 76     .......~.......v
    1749:	00 3e 00 0e 00 03 80 03 e0 01 70 01 1c 01 8f 01     .>........p.....
    1759:	83 80 80 e0 c0 79 f0 ff fe 0f 7c 06 38 06 1c 04     .....y....|.8...
    1769:	1c 0c 0e 0c 0e 08 0f 18 07 10 07 90 03 b0 03 a0     ................
    1779:	01 e0 01 e0 00 c0 00 c0 00 80 00 80 01 80 01 00     ................
    1789:	03 00 7e 00 7c 00 78 00 7f f9 ff e6 07 10 38 00     ..~.|.x.......8.
    1799:	e0 07 00 38 01 e0 07 00 38 01 e0 07 01 38 0d c0     ...8....8....8..
    17a9:	3f ff bf fe 07 0e 1c 18 18 18 18 18 18 18 18 18     ?...............
    17b9:	18 30 60 60 10 18 18 18 18 18 18 18 18 18 18 1c     .0``............
    17c9:	0e 07 ff ff ff ff ff ff e0 70 38 18 18 18 18 18     .........p8.....
    17d9:	18 18 18 18 18 08 06 06 08 18 18 18 18 18 18 18     ................
    17e9:	18 18 18 38 70 e0 3e 00 7f 87 e3 fe 00 7c           ...8p.>......|

000017f7 <Font_9x22_Serif_Bold>:
    17f7:	97 1a fe 17 20 7e 16                                .... ~.

000017fe <Font_9x22_Serif_BoldGlyphs>:
    17fe:	00 00 00 00 05 00 01 00 00 03 0c 06 01 f5 05 00     ................
    180e:	06 05 0a 02 f5 09 00 09 0d 09 00 f4 18 00 08 0e     ................
    181e:	09 01 f4 26 00 0e 0c 12 02 f5 3b 00 0d 0c 0f 01     ...&......;.....
    182e:	f5 4f 00 02 05 05 01 f5 51 00 04 0f 06 01 f5 59     .O......Q......Y
    183e:	00 04 0f 06 01 f5 61 00 07 07 09 02 f5 68 00 09     ......a......h..
    184e:	09 0c 01 f8 73 00 03 06 04 01 fe 76 00 04 02 06     ....s......v....
    185e:	01 fc 77 00 03 03 04 01 fe 79 00 06 0d 05 00 f5     ..w......y......
    186e:	83 00 09 0c 09 00 f5 91 00 06 0c 09 01 f5 9a 00     ................
    187e:	09 0c 09 00 f5 a8 00 08 0c 09 00 f5 b4 00 08 0c     ................
    188e:	09 01 f5 c0 00 08 0c 09 01 f5 cc 00 08 0c 09 01     ................
    189e:	f5 d8 00 09 0c 09 00 f5 e6 00 08 0c 09 01 f5 f2     ................
    18ae:	00 09 0c 09 00 f5 00 01 03 09 06 01 f8 04 01 03     ................
    18be:	0c 06 02 f8 09 01 0a 0a 0c 01 f7 16 01 0a 05 0c     ................
    18ce:	01 fa 1d 01 0a 0a 0c 01 f8 2a 01 07 0c 09 01 f5     .........*......
    18de:	35 01 0d 0c 11 02 f5 49 01 0d 0c 0d 00 f5 5d 01     5......I......].
    18ee:	0b 0c 0c 00 f5 6e 01 0b 0c 0d 01 f5 7f 01 0b 0c     .....n..........
    18fe:	0d 01 f5 90 01 0b 0c 0c 01 f5 a1 01 0a 0c 0b 01     ................
    190e:	f5 b0 01 0c 0c 0e 01 f5 c2 01 0c 0c 0e 01 f5 d4     ................
    191e:	01 05 0c 07 01 f5 dc 01 08 0e 09 00 f5 ea 01 0d     ................
    192e:	0c 0e 01 f5 fe 01 0b 0c 0c 01 f5 0f 02 10 0c 11     ................
    193e:	00 f5 27 02 0b 0c 0d 01 f5 38 02 0c 0c 0e 01 f5     ..'......8......
    194e:	4a 02 0a 0c 0b 01 f5 59 02 0c 0f 0e 01 f5 70 02     J......Y......p.
    195e:	0c 0c 0d 01 f5 82 02 08 0c 0a 01 f5 8e 02 0c 0c     ................
    196e:	0c 00 f5 a0 02 0b 0c 0d 01 f5 b1 02 0d 0d 0d 00     ................
    197e:	f5 c7 02 12 0c 12 00 f5 e2 02 0d 0c 0d 00 f5 f6     ................
    198e:	02 0d 0c 0d 00 f5 0a 03 0b 0c 0c 01 f5 1b 03 04     ................
    199e:	0f 06 01 f5 23 03 06 0d 05 00 f5 2d 03 04 0f 06     ....#......-....
    19ae:	01 f5 35 03 08 07 0a 01 f5 3c 03 09 01 09 00 03     ..5......<......
    19be:	3e 03 04 03 06 00 f4 40 03 09 09 09 00 f8 4b 03     >......@......K.
    19ce:	0a 0c 0a 00 f5 5a 03 07 09 08 00 f8 62 03 0a 0c     .....Z......b...
    19de:	0a 00 f5 71 03 08 09 08 00 f8 7a 03 07 0c 07 00     ...q......z.....
    19ee:	f5 85 03 07 0d 09 01 f8 91 03 0a 0c 0a 00 f5 a0     ................
    19fe:	03 05 0c 05 00 f5 a8 03 06 10 07 00 f5 b4 03 0a     ................
    1a0e:	0c 0a 00 f5 c3 03 05 0c 05 00 f5 cb 03 0f 09 0f     ................
    1a1e:	00 f8 dc 03 0a 09 0a 00 f8 e8 03 09 09 09 00 f8     ................
    1a2e:	f3 03 0a 0d 0a 00 f8 04 04 0a 0d 0a 00 f8 15 04     ................
    1a3e:	08 09 08 00 f8 1e 04 05 09 07 01 f8 24 04 06 0b     ............$...
    1a4e:	06 00 f6 2d 04 0a 09 0a 00 f8 39 04 09 09 09 00     ...-......9.....
    1a5e:	f8 44 04 0c 09 0d 00 f8 52 04 09 09 09 00 f8 5d     .D......R......]
    1a6e:	04 08 0d 09 00 f8 6a 04 07 09 08 01 f8 72 04 05     ......j......r..
    1a7e:	10 07 00 f4 7c 04 01 0d 04 01 f5 7e 04 05 10 07     ....|......~....
    1a8e:	02 f4 88 04 08 02 09 01 fc                          .........

00001a97 <Font_9x22_Serif_BoldBitmaps>:
    1a97:	ff f4 92 1f f0 cf 3c e3 88 13 09 84 c2 47 f9 90     ......<......G..
    1aa7:	c8 4c ff 13 09 0c 86 40 10 38 d6 92 d2 f0 7c 3e     .L.....@.8....|>
    1ab7:	17 93 93 d6 7c 10 3c 21 cf 0e 24 30 a0 c5 03 34     ....|.<!..$0...4
    1ac7:	e7 26 40 b9 04 c4 23 30 8c 84 1c 0f 00 cc 06 60     .&@...#0.......`
    1ad7:	3e 00 e7 8f 18 9c 8c e4 e3 c7 9e 3c 72 fd e0 ff     >..........<r...
    1ae7:	80 32 44 cc cc cc c4 62 10 84 22 33 33 33 32 64     .2D....b.."3332d
    1af7:	80 31 6b b1 8e d6 8c 00 08 04 02 01 0f f8 40 20     .1k...........@ 
    1b07:	10 08 00 df 95 00 ff ff 80 0c 21 86 10 c3 08 61     ..........!....a
    1b17:	84 30 c0 1c 33 98 dc 7e 3f 1f 8f c7 e3 b1 98 c3     .0..3..~?.......
    1b27:	80 08 e3 8e 38 e3 8e 38 e3 bf 3c 3f 23 c0 e0 70     ....8..8..<?#..p
    1b37:	30 38 18 18 18 5f df e0 7c 8e 0e 0e 0c 1e 07 03     08..._..|.......
    1b47:	03 02 e6 f8 06 0e 0e 3e 2e 4e 8e 8e ff ff 0e 0e     .......>.N......
    1b57:	3f 7e 40 40 f8 fc 1e 06 02 02 e4 f8 07 1c 30 70     ?~@@..........0p
    1b67:	fc e6 e7 e7 e7 67 66 3c 7f 3f a0 d0 40 60 30 10     .....gf<.?..@`0.
    1b77:	18 0c 04 06 03 00 3c c6 c6 c6 fc 7c 3e cf c7 c7     ......<....|>...
    1b87:	c6 7c 3e 33 b8 dc 7e 3f 1d ce 7f 07 07 0f 1c 00     .|>3..~?........
    1b97:	ff 80 3f e0 ff 80 37 e5 40 00 00 70 78 78 78 38     ..?...7.@..pxxx8
    1ba7:	03 80 3c 03 c0 30 ff c0 00 00 00 ff c0 c0 3c 03     ..<..0........<.
    1bb7:	c0 1c 01 c1 e1 e1 e0 e0 00 00 3d 9f 3e 70 e1 04     ..........=.>p..
    1bc7:	08 00 70 e1 c0 0f 81 83 18 c4 89 9c 4c e4 67 22     ..p.........L.g"
    1bd7:	39 22 4f e3 00 0c 10 1f 00 02 00 30 01 c0 0e 00     9"O........0....
    1be7:	b8 05 c0 4f 02 38 3f e1 07 18 3d e3 f0 ff 87 1c     ...O.8?...=.....
    1bf7:	e3 9c 73 9c 7f 0e 71 c7 38 e7 1c e7 7f c0 1f 26     ..s...q.8......&
    1c07:	1d c1 b0 1e 01 c0 38 07 00 e0 0e 04 e1 0f c0 ff     ......8.........
    1c17:	0e 71 c7 38 77 0e e1 dc 3b 87 70 ce 39 c6 7f 80     .q.8w...;.p.9...
    1c27:	ff ce 19 c1 38 87 30 fe 1c c3 88 70 2e 0d c3 7f     ....8.0....p....
    1c37:	e0 ff dc 37 05 c4 73 1f c7 31 c4 70 1c 07 03 e0     ...7..s..1.p....
    1c47:	1f 23 0e 70 6e 02 e0 0e 00 e1 fe 0e 60 e7 0e 38     .#.pn.......`..8
    1c57:	e0 f8 f9 f7 0e 70 e7 0e 70 e7 fe 70 e7 0e 70 e7     .....p..p..p..p.
    1c67:	0e 70 ef 9f fb 9c e7 39 ce 73 9d f0 1f 0e 0e 0e     .p.....9.s......
    1c77:	0e 0e 0e 0e 0e 0e 0e ce cc 78 f9 f3 82 1c 20 e2     .........x.... .
    1c87:	07 20 3f 01 dc 0e 70 73 c3 8f 1c 3d f3 f0 f8 0e     . ?...ps...=....
    1c97:	01 c0 38 07 00 e0 1c 03 80 70 2e 09 c3 7f e0 f8     ..8......p......
    1ca7:	0f 3c 1e 3c 1e 2e 2e 2e 2e 26 4e 27 4e 27 4e 23     .<.<.....&N'N'N#
    1cb7:	8e 23 8e 21 0e 71 1f f0 ee 09 e1 3e 25 e4 9e 91     .#.!.q.....>%...
    1cc7:	d2 1e 43 c8 39 03 70 20 1f 83 0c 70 ee 07 e0 7e     ..C.9.p ...p...~
    1cd7:	07 e0 7e 07 e0 77 0e 30 c1 f8 ff 1c e7 1d c7 71     ..~..w.0.......q
    1ce7:	dc e7 f1 c0 70 1c 07 03 e0 0f 83 9c 70 e6 06 e0     ....p.......p...
    1cf7:	7e 07 e0 7e 07 e0 76 06 30 c1 98 0f 00 78 03 e0     ~..~..v.0....x..
    1d07:	ff 07 38 71 c7 1c 71 c7 38 7e 07 70 77 87 3c 71     ..8q..q.8~.pw.<q
    1d17:	ef 8f 39 47 c1 c0 f0 7c 3e 0f 83 c3 c6 bc ff fc     ..9G...|>.......
    1d27:	e3 8e 10 e0 0e 00 e0 0e 00 e0 0e 00 e0 0e 01 f0     ................
    1d37:	f8 ee 09 c1 38 27 04 e0 9c 13 82 70 4e 08 e2 0f     ....8'.....pN...
    1d47:	80 fc 7b c1 0e 08 70 81 c4 0e 20 7a 01 d0 0e 80     ..{...p... z....
    1d57:	38 01 c0 04 00 20 00 fd fb dc 38 43 87 10 e1 c4     8.... ....8C....
    1d67:	38 f2 07 2e 81 d3 a0 34 70 0e 1c 03 87 00 60 80     8......4p.....`.
    1d77:	10 20 fe f3 c3 0f 10 39 00 f0 03 80 1e 01 70 09     . .....9......p.
    1d87:	c0 8f 08 3d f3 f0 fc 7b c1 8e 08 38 81 e8 07 40     ...=...{...8...@
    1d97:	1c 00 e0 07 00 38 01 c0 1f 00 ff d8 72 1e 43 80     .....8......r.C.
    1da7:	e0 1c 07 01 c0 38 2e 0f 83 7f e0 fc cc cc cc cc     .....8..........
    1db7:	cc cc f0 c1 06 18 20 c3 04 18 60 83 0c f3 33 33     ...... ...`...33
    1dc7:	33 33 33 33 f0 18 1c 34 26 62 43 c1 ff 80 c6 30     3333...4&bC....0
    1dd7:	7c 63 b1 c0 e1 f3 3b 9d ce ff 80 f0 1c 07 01 dc     |c....;.........
    1de7:	7b 9c 77 1d c7 71 dc 77 39 3c 3c ed 9f 0e 1c 38     {.w..q.w9<<....8
    1df7:	39 3c 07 80 e0 38 ee 77 b8 ee 3b 8e e3 b8 e7 78     9<...8.w..;....x
    1e07:	ef 3c 66 e6 fe e0 e0 e0 72 3c 3e ed c7 c7 0e 1c     .<f.....r<>.....
    1e17:	38 70 e1 c7 c0 31 df bf 7e e7 90 60 fc fe 0c 17     8p...1..~..`....
    1e27:	c0 f0 1c 07 01 dc 7b 9c e7 39 ce 73 9c e7 3b ff     ......{..9.s..;.
    1e37:	73 9d e7 39 ce 73 9d f0 1c 71 cf 1c 71 c7 1c 71     s..9.s...q..q..q
    1e47:	c7 1c 7d be f0 1c 07 01 ce 71 1c 87 41 f8 77 1c     ..}......q..A.w.
    1e57:	e7 1b ef f3 9c e7 39 ce 73 9d f0 f7 38 f7 b9 ce     ......9.s...8...
    1e67:	73 9c e7 39 ce 73 9c e7 39 ce ff fe f7 1e e7 39     s..9.s..9......9
    1e77:	ce 73 9c e7 39 ce ff c0 3e 31 b8 fc 7e 3f 1f 8e     .s..9...>1..~?..
    1e87:	c6 3e 00 f7 1e e7 1d c7 71 dc 77 1d ce 7f 1c 07     .>......q.w.....
    1e97:	01 c0 f8 00 3c 9c ee 3b 8e e3 b8 ee 39 ce 3f 80     ....<..;....9.?.
    1ea7:	e0 38 0e 07 c0 f7 7b 70 70 70 70 70 70 f8 7e 73     .8....{pppppp.~s
    1eb7:	c7 8e 39 b0 10 cf 9c 71 c7 1c 71 d3 80 f7 9c e7     ..9....q..q.....
    1ec7:	39 ce 73 9c e7 39 ce 3f c0 fb b8 8c 87 43 c0 e0     9.s..9.?.....C..
    1ed7:	70 10 08 00 f7 b6 31 73 a3 3a 3d a3 dc 18 c1 88     p.....1s.:=.....
    1ee7:	10 80 fb b8 8e 83 81 c0 f0 98 ce ef 80 f7 62 72     ..............br
    1ef7:	34 34 3c 18 18 10 10 10 e0 e0 ff 1c 70 e3 87 1c     44<.........p...
    1f07:	71 fe 19 8c 63 18 cc 61 8c 63 18 c3 ff f8 c3 18     q...c..a.c......
    1f17:	c6 31 86 33 18 c6 31 98 f0 8e                       .1.3..1...

00001f21 <Font_8x12_Default>:
    1f21:	c1 21 28 1f 20 7e 0c                                .!(. ~.

00001f28 <Font_8x12_DefaultGlyphs>:
    1f28:	00 00 00 00 08 00 00 00 00 01 08 08 02 f7 01 00     ................
    1f38:	04 03 08 01 f6 03 00 06 08 08 00 f7 09 00 05 0a     ................
    1f48:	08 00 f6 10 00 06 08 08 00 f7 16 00 06 08 08 00     ................
    1f58:	f7 1c 00 02 03 08 00 f6 1d 00 03 0a 08 03 f6 21     ...............!
    1f68:	00 03 0a 08 01 f6 25 00 05 06 08 00 f8 29 00 05     ......%......)..
    1f78:	07 08 00 f7 2e 00 02 03 08 00 fe 2f 00 05 01 08     .........../....
    1f88:	00 fa 30 00 01 01 08 01 fe 31 00 05 0a 08 00 f6     ..0......1......
    1f98:	38 00 05 08 08 00 f7 3d 00 03 08 08 01 f7 40 00     8......=......@.
    1fa8:	05 08 08 00 f7 45 00 05 08 08 00 f7 4a 00 05 08     .....E......J...
    1fb8:	08 00 f7 4f 00 05 08 08 00 f7 54 00 05 08 08 00     ...O......T.....
    1fc8:	f7 59 00 05 08 08 00 f7 5e 00 05 08 08 00 f7 63     .Y......^......c
    1fd8:	00 05 08 08 00 f7 68 00 01 06 08 02 f9 69 00 01     ......h......i..
    1fe8:	06 08 02 fa 6a 00 05 09 08 01 f6 70 00 05 04 08     ....j......p....
    1ff8:	00 f9 73 00 05 09 08 01 f6 79 00 05 08 08 00 f7     ..s......y......
    2008:	7e 00 05 08 08 00 f7 83 00 06 08 08 00 f7 89 00     ~...............
    2018:	05 08 08 00 f7 8e 00 05 08 08 00 f7 93 00 05 08     ................
    2028:	08 00 f7 98 00 05 08 08 00 f7 9d 00 05 08 08 00     ................
    2038:	f7 a2 00 06 08 08 00 f7 a8 00 06 08 08 00 f7 ae     ................
    2048:	00 05 08 08 00 f7 b3 00 06 09 08 00 f7 ba 00 06     ................
    2058:	08 08 00 f7 c0 00 06 08 08 00 f7 c6 00 05 08 08     ................
    2068:	00 f7 cb 00 06 08 08 00 f7 d1 00 05 08 08 00 f7     ................
    2078:	d6 00 05 08 08 00 f7 db 00 05 09 08 00 f7 e1 00     ................
    2088:	06 08 08 00 f7 e7 00 05 08 08 00 f7 ec 00 05 08     ................
    2098:	08 00 f7 f1 00 06 08 08 00 f7 f7 00 06 08 08 00     ................
    20a8:	f7 fd 00 05 08 08 00 f7 02 01 05 08 08 00 f7 07     ................
    20b8:	01 05 08 08 00 f7 0c 01 05 08 08 00 f7 11 01 03     ................
    20c8:	0a 08 02 f6 15 01 04 09 08 01 f6 1a 01 03 0a 08     ................
    20d8:	01 f6 1e 01 03 02 08 01 f6 1f 01 06 01 08 00 00     ................
    20e8:	20 01 01 01 08 02 f6 21 01 05 05 08 01 fa 25 01      ......!......%.
    20f8:	05 08 08 00 f7 2a 01 04 05 08 01 fa 2d 01 05 08     .....*......-...
    2108:	08 01 f7 32 01 04 05 08 01 fa 35 01 05 08 08 01     ...2......5.....
    2118:	f7 3a 01 05 07 08 01 fa 3f 01 06 08 08 00 f7 45     .:......?......E
    2128:	01 03 08 08 01 f7 48 01 04 0a 08 00 f7 4d 01 06     ......H......M..
    2138:	08 08 00 f7 53 01 05 08 08 00 f7 58 01 05 05 08     ....S......X....
    2148:	00 fa 5c 01 06 05 08 00 fa 60 01 04 05 08 01 fa     ..\......`......
    2158:	63 01 05 07 08 00 fa 68 01 05 07 08 01 fa 6d 01     c......h......m.
    2168:	05 05 08 00 fa 71 01 04 05 08 01 fa 74 01 04 07     .....q......t...
    2178:	08 01 f8 78 01 06 05 08 00 fa 7c 01 06 05 08 00     ...x......|.....
    2188:	fa 80 01 05 05 08 00 fa 84 01 05 05 08 00 fa 88     ................
    2198:	01 06 07 08 00 fa 8e 01 04 05 08 01 fa 91 01 03     ................
    21a8:	0a 08 02 f6 95 01 01 0c 08 03 f5 97 01 03 0a 08     ................
    21b8:	01 f6 9b 01 06 03 08 00 f5                          .........

000021c1 <Font_8x12_DefaultBitmaps>:
    21c1:	fd 5a a0 28 af ca 53 f5 14 23 eb 46 18 b5 f1 00     .Z.(..S..#.F....
    21d1:	4a ab 14 28 d5 52 21 45 1e aa a9 1b 58 2a 49 24     J..(.R!E....X*I$
    21e1:	44 88 92 49 50 25 5c ea 90 21 09 f2 10 80 58 f8     D..IP%\..!....X.
    21f1:	80 08 84 22 11 08 44 00 74 63 18 c6 2e 59 24 97     ..."..D.tc...Y$.
    2201:	74 62 22 22 1f 74 42 60 86 2e 11 94 a9 3c 43 fc     tb"".tB`.....<C.
    2211:	21 e0 86 2e 74 a1 e8 c6 2e fc 84 42 10 84 74 62     !...t......B..tb
    2221:	e8 c6 2e 74 63 17 85 2e 84 8c 08 88 88 20 82 08     ...tc........ ..
    2231:	f8 01 f0 82 08 20 88 88 80 74 62 22 10 04 74 67     ..... ...tb"..tg
    2241:	5a de 0f 20 83 14 51 e4 b3 f2 52 e4 a5 3e 7c 61     Z.. ..Q...R..>|a
    2251:	08 42 2e f2 52 94 a5 3e fa 54 e5 21 3f fa 54 e5     .B..R..>.T.!?.T.
    2261:	21 1c 39 28 20 9e 24 8c cd 24 9e 49 24 b3 f9 08     !.9( .$..$.I$...
    2271:	42 10 9f 7c 41 04 10 41 24 e0 ed 25 18 51 44 bb     B..|A..A$..%.QD.
    2281:	e1 04 10 41 04 7f de f7 ba d6 b5 dd 26 9a 59 64     ...A........&.Yd
    2291:	ba 74 63 18 c6 2e f2 52 e4 21 1c 74 63 18 f6 6e     .tc....R.!.tc..n
    22a1:	18 f1 24 9c 51 24 bb 7c 60 c1 06 3e fd 48 42 10     ..$.Q$.|`..>.HB.
    22b1:	8e cd 24 92 49 24 8c cd 24 94 50 c2 08 ad 6a e5     ..$.I$..$.P...j.
    22c1:	29 4a da 94 42 29 5b da 94 42 10 8e fc 84 42 21     )J..B)[..B....B!
    22d1:	3f f2 49 24 9c 88 84 42 22 10 e4 92 49 3c 54 fc     ?.I$...B"...I<T.
    22e1:	80 64 9d 27 80 c2 10 e4 a5 2e 79 88 70 30 84 e9     .d.'......y.p0..
    22f1:	4a 4f 69 f8 70 3a 11 e4 21 1e 7c 99 0f 45 c0 c1     JOi.p:..!.|..E..
    2301:	04 1c 49 24 bb 40 64 97 10 03 11 11 1e c1 04 17     ..I$.@d.........
    2311:	51 c4 bb e1 08 42 10 9f f5 6b 5a 80 f1 24 92 ec     Q....B...kZ..$..
    2321:	69 99 60 f2 52 97 23 80 74 a5 27 08 e0 db 10 8e     i.`.R.#.t.'.....
    2331:	00 f8 61 f0 44 e4 44 30 d9 24 92 3c ed 25 0c 20     ..a.D.D0.$.<.%. 
    2341:	ad 5c a5 00 da 88 ad 80 ed 25 0c 20 8c 00 f2 44     .\.......%. ...D
    2351:	f0 69 28 92 4c ff f0 c9 22 92 58 42 91 80           .i(.L...".XB..

0000235f <Font_5x5_Org>:
    235f:	ff 25 66 23 20 7e 07                                .%f# ~.

00002366 <Font_5x5_OrgGlyphs>:
    2366:	00 00 00 00 06 00 01 00 00 01 05 02 00 fc 01 00     ................
    2376:	03 01 04 00 fc 02 00 05 05 06 00 fc 06 00 05 05     ................
    2386:	06 00 fc 0a 00 05 05 06 00 fc 0e 00 05 05 06 00     ................
    2396:	fc 12 00 01 01 02 00 fc 13 00 02 05 03 00 fc 15     ................
    23a6:	00 02 05 03 00 fc 17 00 03 03 04 00 fd 19 00 03     ................
    23b6:	03 04 00 fd 1b 00 01 02 02 00 00 1c 00 04 01 05     ................
    23c6:	00 fe 1d 00 01 01 02 00 00 1e 00 05 05 06 00 fc     ................
    23d6:	22 00 05 05 06 00 fc 26 00 01 05 02 00 fc 27 00     "......&......'.
    23e6:	05 05 06 00 fc 2b 00 05 05 06 00 fc 2f 00 05 05     .....+....../...
    23f6:	06 00 fc 33 00 05 05 06 00 fc 37 00 05 05 06 00     ...3......7.....
    2406:	fc 3b 00 05 05 06 00 fc 3f 00 05 05 06 00 fc 43     .;......?......C
    2416:	00 05 05 06 00 fc 47 00 01 04 02 00 fd 48 00 01     ......G......H..
    2426:	04 02 00 fd 49 00 03 05 04 00 fc 4b 00 04 03 05     ....I......K....
    2436:	00 fd 4d 00 03 05 04 00 fc 4f 00 05 05 06 00 fc     ..M......O......
    2446:	53 00 05 05 06 00 fc 57 00 05 05 06 00 fc 5b 00     S......W......[.
    2456:	05 05 06 00 fc 5f 00 05 05 06 00 fc 63 00 05 05     ....._......c...
    2466:	06 00 fc 67 00 05 05 06 00 fc 6b 00 05 05 06 00     ...g......k.....
    2476:	fc 6f 00 05 05 06 00 fc 73 00 05 05 06 00 fc 77     .o......s......w
    2486:	00 05 05 06 00 fc 7b 00 05 05 06 00 fc 7f 00 05     ......{.........
    2496:	05 06 00 fc 83 00 05 05 06 00 fc 87 00 05 05 06     ................
    24a6:	00 fc 8b 00 05 05 06 00 fc 8f 00 05 05 06 00 fc     ................
    24b6:	93 00 05 05 06 00 fc 97 00 05 05 06 00 fc 9b 00     ................
    24c6:	05 05 06 00 fc 9f 00 05 05 06 00 fc a3 00 05 05     ................
    24d6:	06 00 fc a7 00 05 05 06 00 fc ab 00 05 05 06 00     ................
    24e6:	fc af 00 05 05 06 00 fc b3 00 05 05 06 00 fc b7     ................
    24f6:	00 05 05 06 00 fc bb 00 05 05 06 00 fc bf 00 02     ................
    2506:	05 03 00 fc c1 00 05 05 06 00 fc c5 00 02 05 03     ................
    2516:	00 fc c7 00 03 02 04 00 fc c8 00 05 01 06 00 01     ................
    2526:	c9 00 01 01 02 00 fc ca 00 04 04 05 00 fd cc 00     ................
    2536:	04 05 05 00 fc cf 00 04 04 05 00 fd d1 00 04 05     ................
    2546:	05 00 fc d4 00 04 04 05 00 fd d6 00 03 05 04 00     ................
    2556:	fc d8 00 04 05 05 00 fd db 00 04 05 05 00 fc de     ................
    2566:	00 01 04 02 00 fd df 00 02 05 03 00 fd e1 00 04     ................
    2576:	05 05 00 fc e4 00 01 05 02 00 fc e5 00 05 04 06     ................
    2586:	00 fd e8 00 04 04 05 00 fd ea 00 04 04 05 00 fd     ................
    2596:	ec 00 04 05 05 00 fd ef 00 04 05 05 00 fd f2 00     ................
    25a6:	04 04 05 00 fd f4 00 04 04 05 00 fd f6 00 05 05     ................
    25b6:	06 00 fc fa 00 04 04 05 00 fd fc 00 04 04 05 00     ................
    25c6:	fd fe 00 05 04 06 00 fd 01 01 04 04 05 00 fd 03     ................
    25d6:	01 04 05 05 00 fd 06 01 04 04 05 00 fd 08 01 03     ................
    25e6:	05 04 00 fc 0a 01 01 05 02 00 fc 0b 01 03 05 04     ................
    25f6:	00 fc 0d 01 05 03 06 00 fd                          .........

000025ff <Font_5x5_OrgBitmaps>:
    25ff:	e8 a0 57 d5 f5 00 fd 3e 5f 80 88 88 88 80 f4 bf     ..W....>_.......
    260f:	2e 80 80 6a 40 95 80 aa 80 5d 00 c0 f0 80 08 88     ...j@....]......
    261f:	88 00 fc 63 1f 80 f8 f8 7f 0f 80 f8 7e 1f 80 8c     ...c........~...
    262f:	7e 10 80 fc 3e 1f 80 fc 3f 1f 80 f8 42 10 80 fc     ~...>...?...B...
    263f:	7f 1f 80 fc 7e 1f 80 90 b0 2a 22 f0 f0 88 a8 f8     ....~....*".....
    264f:	4e 02 00 fd 6f 0f 80 fc 7f 18 80 f4 7d 1f 00 fc     N...o.......}...
    265f:	21 0f 80 f4 63 1f 00 fc 3f 0f 80 fc 3f 08 00 fc     !...c...?...?...
    266f:	2f 1f 80 8c 7f 18 80 f9 08 4f 80 78 85 2f 80 8d     /........O.x./..
    267f:	b1 68 80 84 21 0f 80 fd 6b 5a 80 fc 63 18 80 fc     .h..!...kZ..c...
    268f:	63 1f 80 fc 7f 08 00 fc 63 3f 80 fc 7f 29 00 fc     c.......c?...)..
    269f:	3e 1f 80 f9 08 42 00 8c 63 1f 80 8c 62 a2 00 ad     >....B..c...b...
    26af:	6b 5f 80 8a 88 a8 80 8c 54 42 00 f8 7f 0f 80 ea     k_......TB......
    26bf:	c0 82 08 20 80 d5 c0 54 f8 80 f1 ff 8f 99 f0 f8     ... ...T........
    26cf:	8f 1f 99 f0 ff 8f 6b a4 f9 9f 10 8f 99 90 f0 55     ......k........U
    26df:	c0 8a f9 90 f8 fd 63 10 f9 99 f9 9f f9 9f 80 f9     ......c.........
    26ef:	9f 20 f8 88 47 1f 27 c8 42 00 99 9f 99 97 8c 6b     . ..G.'.B......k
    26ff:	f0 96 69 99 9f 10 2e 8f 2b 22 f8 89 a8 0f e0        ..i.....+".....

0000270e <Font_3x5_TomThumb_Extended>:
    270e:	a9 2c 15 27 20 7e 06                                .,.' ~.

00002715 <Font_3x5_TomThumb_ExtendedGlyphs>:
    2715:	00 00 08 01 02 00 fb 01 00 08 05 02 00 fb 06 00     ................
    2725:	08 02 04 00 fb 08 00 08 05 04 00 fb 0d 00 08 05     ................
    2735:	04 00 fb 12 00 08 05 04 00 fb 17 00 08 05 04 00     ................
    2745:	fb 1c 00 08 02 02 00 fb 1e 00 08 05 03 00 fb 23     ...............#
    2755:	00 08 05 03 00 fb 28 00 08 03 04 00 fb 2b 00 08     ......(......+..
    2765:	03 04 00 fc 2e 00 08 02 03 00 fe 30 00 08 01 04     ...........0....
    2775:	00 fd 31 00 08 01 02 00 ff 32 00 08 05 04 00 fb     ..1......2......
    2785:	37 00 08 05 04 00 fb 3c 00 08 05 03 00 fb 41 00     7......<......A.
    2795:	08 05 04 00 fb 46 00 08 05 04 00 fb 4b 00 08 05     .....F......K...
    27a5:	04 00 fb 50 00 08 05 04 00 fb 55 00 08 05 04 00     ...P......U.....
    27b5:	fb 5a 00 08 05 04 00 fb 5f 00 08 05 04 00 fb 64     .Z......_......d
    27c5:	00 08 05 04 00 fb 69 00 08 03 02 00 fc 6c 00 08     ......i......l..
    27d5:	04 03 00 fc 70 00 08 05 04 00 fb 75 00 08 03 04     ....p......u....
    27e5:	00 fc 78 00 08 05 04 00 fb 7d 00 08 05 04 00 fb     ..x......}......
    27f5:	82 00 08 05 04 00 fb 87 00 08 05 04 00 fb 8c 00     ................
    2805:	08 05 04 00 fb 91 00 08 05 04 00 fb 96 00 08 05     ................
    2815:	04 00 fb 9b 00 08 05 04 00 fb a0 00 08 05 04 00     ................
    2825:	fb a5 00 08 05 04 00 fb aa 00 08 05 04 00 fb af     ................
    2835:	00 08 05 04 00 fb b4 00 08 05 04 00 fb b9 00 08     ................
    2845:	05 04 00 fb be 00 08 05 04 00 fb c3 00 08 05 04     ................
    2855:	00 fb c8 00 08 05 04 00 fb cd 00 08 05 04 00 fb     ................
    2865:	d2 00 08 05 04 00 fb d7 00 08 05 04 00 fb dc 00     ................
    2875:	08 05 04 00 fb e1 00 08 05 04 00 fb e6 00 08 05     ................
    2885:	04 00 fb eb 00 08 05 04 00 fb f0 00 08 05 04 00     ................
    2895:	fb f5 00 08 05 04 00 fb fa 00 08 05 04 00 fb ff     ................
    28a5:	00 08 05 04 00 fb 04 01 08 05 04 00 fb 09 01 08     ................
    28b5:	05 04 00 fb 0e 01 08 03 04 00 fc 11 01 08 05 04     ................
    28c5:	00 fb 16 01 08 02 04 00 fb 18 01 08 01 04 00 ff     ................
    28d5:	19 01 08 02 03 00 fb 1b 01 08 04 04 00 fc 1f 01     ................
    28e5:	08 05 04 00 fb 24 01 08 04 04 00 fc 28 01 08 05     .....$......(...
    28f5:	04 00 fb 2d 01 08 04 04 00 fc 31 01 08 05 04 00     ...-......1.....
    2905:	fb 36 01 08 05 04 00 fc 3b 01 08 05 04 00 fb 40     .6......;......@
    2915:	01 08 05 02 00 fb 45 01 08 06 04 00 fb 4b 01 08     ......E......K..
    2925:	05 04 00 fb 50 01 08 05 04 00 fb 55 01 08 04 04     ....P......U....
    2935:	00 fc 59 01 08 04 04 00 fc 5d 01 08 04 04 00 fc     ..Y......]......
    2945:	61 01 08 05 04 00 fc 66 01 08 05 04 00 fc 6b 01     a......f......k.
    2955:	08 04 04 00 fc 6f 01 08 04 04 00 fc 73 01 08 05     .....o......s...
    2965:	04 00 fb 78 01 08 04 04 00 fc 7c 01 08 04 04 00     ...x......|.....
    2975:	fc 80 01 08 04 04 00 fc 84 01 08 04 04 00 fc 88     ................
    2985:	01 08 05 04 00 fc 8d 01 08 04 04 00 fc 91 01 08     ................
    2995:	05 04 00 fb 96 01 08 05 02 00 fb 9b 01 08 05 04     ................
    29a5:	00 fb a0 01 08 02 04 00 fb a2 01 08 05 02 00 fb     ................
    29b5:	a7 01 08 05 04 00 fb ac 01 08 05 04 00 fb b1 01     ................
    29c5:	08 05 04 00 fb b6 01 08 05 04 00 fb bb 01 08 05     ................
    29d5:	02 00 fb c0 01 08 05 04 00 fb c5 01 08 01 04 00     ................
    29e5:	fb c6 01 08 03 04 00 fb c9 01 08 05 04 00 fb ce     ................
    29f5:	01 08 03 03 00 fb d1 01 08 02 04 00 fc d3 01 08     ................
    2a05:	01 03 00 fd d4 01 08 03 04 00 fb d7 01 08 01 04     ................
    2a15:	00 fb d8 01 08 03 04 00 fb db 01 08 05 04 00 fb     ................
    2a25:	e0 01 08 03 04 00 fb e3 01 08 03 04 00 fb e6 01     ................
    2a35:	08 02 03 00 fb e8 01 08 05 04 00 fb ed 01 08 05     ................
    2a45:	04 00 fb f2 01 08 03 04 00 fc f5 01 08 03 04 00     ................
    2a55:	fd f8 01 08 03 02 00 fb fb 01 08 05 04 00 fb 00     ................
    2a65:	02 08 03 03 00 fb 03 02 08 05 04 00 fb 08 02 08     ................
    2a75:	05 04 00 fb 0d 02 08 05 04 00 fb 12 02 08 05 04     ................
    2a85:	00 fb 17 02 08 05 04 00 fb 1c 02 08 05 04 00 fb     ................
    2a95:	21 02 08 05 04 00 fb 26 02 08 05 04 00 fb 2b 02     !......&......+.
    2aa5:	08 05 04 00 fb 30 02 08 05 04 00 fb 35 02 08 05     .....0......5...
    2ab5:	04 00 fb 3a 02 08 06 04 00 fb 40 02 08 05 04 00     ...:......@.....
    2ac5:	fb 45 02 08 05 04 00 fb 4a 02 08 05 04 00 fb 4f     .E......J......O
    2ad5:	02 08 05 04 00 fb 54 02 08 05 04 00 fb 59 02 08     ......T......Y..
    2ae5:	05 04 00 fb 5e 02 08 05 04 00 fb 63 02 08 05 04     ....^......c....
    2af5:	00 fb 68 02 08 05 04 00 fb 6d 02 08 05 04 00 fb     ..h......m......
    2b05:	72 02 08 05 04 00 fb 77 02 08 05 04 00 fb 7c 02     r......w......|.
    2b15:	08 05 04 00 fb 81 02 08 05 04 00 fb 86 02 08 05     ................
    2b25:	04 00 fb 8b 02 08 03 04 00 fc 8e 02 08 05 04 00     ................
    2b35:	fb 93 02 08 05 04 00 fb 98 02 08 05 04 00 fb 9d     ................
    2b45:	02 08 05 04 00 fb a2 02 08 05 04 00 fb a7 02 08     ................
    2b55:	05 04 00 fb ac 02 08 05 04 00 fb b1 02 08 06 04     ................
    2b65:	00 fb b7 02 08 05 04 00 fb bc 02 08 05 04 00 fb     ................
    2b75:	c1 02 08 05 04 00 fb c6 02 08 05 04 00 fb cb 02     ................
    2b85:	08 05 04 00 fb d0 02 08 05 04 00 fb d5 02 08 04     ................
    2b95:	04 00 fc d9 02 08 05 04 00 fc de 02 08 05 04 00     ................
    2ba5:	fb e3 02 08 05 04 00 fb e8 02 08 05 04 00 fb ed     ................
    2bb5:	02 08 05 04 00 fb f2 02 08 05 03 00 fb f7 02 08     ................
    2bc5:	05 03 00 fb fc 02 08 05 04 00 fb 01 03 08 05 04     ................
    2bd5:	00 fb 06 03 08 05 04 00 fb 0b 03 08 05 04 00 fb     ................
    2be5:	10 03 08 05 04 00 fb 15 03 08 05 04 00 fb 1a 03     ................
    2bf5:	08 05 04 00 fb 1f 03 08 05 04 00 fb 24 03 08 05     ............$...
    2c05:	04 00 fb 29 03 08 05 04 00 fb 2e 03 08 04 04 00     ...)............
    2c15:	fc 32 03 08 05 04 00 fb 37 03 08 05 04 00 fb 3c     .2......7......<
    2c25:	03 08 05 04 00 fb 41 03 08 05 04 00 fb 46 03 08     ......A......F..
    2c35:	06 04 00 fb 4c 03 08 05 04 00 fc 51 03 08 06 04     ....L......Q....
    2c45:	00 fb 57 03 08 01 02 00 ff 58 03 08 05 04 00 fb     ..W......X......
    2c55:	5d 03 08 04 04 00 fc 61 03 08 05 04 00 fb 66 03     ]......a......f.
    2c65:	08 05 04 00 fb 6b 03 08 05 04 00 fb 70 03 08 05     .....k......p...
    2c75:	04 00 fb 75 03 08 05 04 00 fb 7a 03 08 01 02 00     ...u......z.....
    2c85:	ff 7b 03 08 01 02 00 ff 7c 03 08 01 02 00 fd 7d     .{......|......}
    2c95:	03 08 01 04 00 ff 7e 03 08 05 04 00 fb 83 03 08     ......~.........
    2ca5:	05 04 00 fb                                         ....

00002ca9 <Font_3x5_TomThumb_ExtendedBitmaps>:
    2ca9:	00 80 80 80 00 80 a0 a0 a0 e0 a0 e0 a0 60 c0 60     .............`.`
    2cb9:	c0 40 80 20 40 80 20 c0 c0 e0 a0 60 80 80 40 80     .@. @. ....`..@.
    2cc9:	80 80 40 80 40 40 40 80 a0 40 a0 40 e0 40 40 80     ..@.@@@..@.@.@@.
    2cd9:	e0 80 20 20 40 80 80 60 a0 a0 a0 c0 40 c0 40 40     ..  @..`....@.@@
    2ce9:	40 c0 20 40 80 e0 c0 20 40 20 c0 a0 a0 e0 20 20     @. @... @ ....  
    2cf9:	e0 80 c0 20 c0 60 80 e0 a0 e0 e0 20 40 80 80 e0     ... .`..... @...
    2d09:	a0 e0 a0 e0 e0 a0 e0 20 c0 80 00 80 40 00 40 80     ....... ....@.@.
    2d19:	20 40 80 40 20 e0 00 e0 80 40 20 40 80 e0 20 40      @.@ ....@ @.. @
    2d29:	00 40 40 a0 e0 80 60 40 a0 e0 a0 a0 c0 a0 c0 a0     .@@...`@........
    2d39:	c0 60 80 80 80 60 c0 a0 a0 a0 c0 e0 80 e0 80 e0     .`...`..........
    2d49:	e0 80 e0 80 80 60 80 e0 a0 60 a0 a0 e0 a0 a0 e0     .....`...`......
    2d59:	40 40 40 e0 20 20 20 a0 40 a0 a0 c0 a0 a0 80 80     @@@.   .@.......
    2d69:	80 80 e0 a0 e0 e0 a0 a0 a0 e0 e0 e0 a0 40 a0 a0     .............@..
    2d79:	a0 40 c0 a0 c0 80 80 40 a0 a0 e0 60 c0 a0 e0 c0     .@.....@...`....
    2d89:	a0 60 80 40 20 c0 e0 40 40 40 40 a0 a0 a0 a0 60     .`.@ ..@@@@....`
    2d99:	a0 a0 a0 40 40 a0 a0 e0 e0 a0 a0 a0 40 a0 a0 a0     ...@@.......@...
    2da9:	a0 40 40 40 e0 20 40 80 e0 e0 80 80 80 e0 80 40     .@@@. @........@
    2db9:	20 e0 20 20 20 e0 40 a0 e0 80 40 c0 60 a0 e0 80      .   .@...@.`...
    2dc9:	c0 a0 a0 c0 60 80 80 60 20 60 a0 a0 60 60 a0 c0     ....`..` `..``..
    2dd9:	60 20 40 e0 40 40 60 a0 e0 20 40 80 c0 a0 a0 a0     ` @.@@`.. @.....
    2de9:	80 00 80 80 80 20 00 20 20 a0 40 80 a0 c0 c0 a0     ..... .  .@.....
    2df9:	c0 40 40 40 e0 e0 e0 e0 a0 c0 a0 a0 a0 40 a0 a0     .@@@.........@..
    2e09:	40 c0 a0 a0 c0 80 60 a0 a0 60 20 60 80 80 80 60     @.....`..` `...`
    2e19:	c0 60 c0 40 e0 40 40 60 a0 a0 a0 60 a0 a0 e0 40     .`.@.@@`...`...@
    2e29:	a0 e0 e0 e0 a0 40 40 a0 a0 a0 60 20 40 e0 60 c0     .....@@...` @.`.
    2e39:	e0 60 40 80 40 60 80 80 00 80 80 c0 40 20 40 c0     .`@.@`......@ @.
    2e49:	60 c0 80 00 80 80 80 40 e0 80 e0 40 60 40 e0 40     `......@...@`@.@
    2e59:	e0 a0 40 e0 40 a0 a0 a0 40 e0 40 80 80 00 80 80     ..@.@...@.@.....
    2e69:	60 40 a0 40 c0 a0 60 80 60 60 a0 e0 00 e0 40 80     `@.@..`.``....@.
    2e79:	40 e0 20 c0 c0 c0 a0 e0 40 a0 40 40 e0 40 00 e0     @. .....@.@@.@..
    2e89:	c0 40 60 e0 60 e0 40 80 a0 a0 a0 c0 80 60 a0 60     .@`.`.@......`.`
    2e99:	60 60 e0 e0 e0 40 20 c0 80 80 80 40 a0 40 00 e0     ``...@ ....@.@..
    2ea9:	80 40 80 80 80 00 60 20 80 80 00 c0 60 c0 c0 00     .@....` ....`...
    2eb9:	60 20 40 00 40 80 e0 40 20 40 e0 a0 40 80 40 e0     ` @.@..@ @..@.@.
    2ec9:	a0 e0 00 40 e0 a0 60 c0 40 e0 a0 a0 40 a0 e0 a0     ...@..`.@...@...
    2ed9:	c0 c0 a0 e0 a0 60 c0 e0 c0 e0 60 80 80 60 20 40     .....`....`..` @
    2ee9:	40 20 e0 c0 e0 40 80 e0 c0 e0 e0 00 e0 c0 e0 a0     @ ...@..........
    2ef9:	00 e0 c0 e0 40 20 e0 40 e0 40 80 e0 40 e0 e0 00     ....@ .@.@..@...
    2f09:	e0 40 e0 a0 00 e0 40 e0 c0 a0 e0 a0 c0 c0 60 a0     .@....@.......`.
    2f19:	e0 a0 40 20 e0 a0 e0 40 80 e0 a0 e0 e0 00 e0 a0     ..@ ...@........
    2f29:	e0 c0 60 e0 a0 e0 a0 00 e0 a0 e0 a0 40 a0 60 a0     ..`.........@.`.
    2f39:	e0 a0 c0 80 40 a0 a0 e0 20 40 a0 a0 e0 e0 00 a0     ....@... @......
    2f49:	a0 e0 a0 00 a0 a0 e0 20 40 a0 e0 40 80 e0 a0 e0     ....... @..@....
    2f59:	80 60 a0 c0 a0 c0 80 40 20 60 a0 e0 40 80 60 a0     .`.....@ `..@.`.
    2f69:	e0 e0 00 60 a0 e0 60 c0 60 a0 e0 a0 00 60 a0 e0     ...`..`.`....`..
    2f79:	60 60 60 a0 e0 60 e0 e0 c0 60 80 60 20 40 40 20     ```..`...`.` @@ 
    2f89:	60 e0 60 40 80 60 e0 60 e0 00 60 e0 60 a0 00 60     `.`@.`.`..`.`..`
    2f99:	e0 60 80 40 80 80 80 40 80 40 40 40 e0 00 40 40     .`.@...@.@@@..@@
    2fa9:	40 a0 00 40 40 40 60 c0 60 a0 60 c0 60 c0 a0 a0     @..@@@`.`.`.`...
    2fb9:	40 20 40 a0 40 40 80 40 a0 40 e0 00 40 a0 40 c0     @ @.@@.@.@..@.@.
    2fc9:	60 40 a0 40 a0 00 40 a0 40 40 00 e0 00 40 60 e0     `@.@..@.@@...@`.
    2fd9:	a0 c0 80 40 a0 a0 60 20 40 a0 a0 60 e0 00 a0 a0     ...@..` @..`....
    2fe9:	60 a0 00 a0 a0 60 20 40 a0 60 20 40 80 c0 a0 c0     `....` @.` @....
    2ff9:	80 a0 00 a0 60 20 40 00 60 c0 e0 c0 60 60 e0 c0     ....` @.`...``..
    3009:	e0 a0 60 c0 60 c0 a0 60 c0 60 c0 a0 00 a0 40 40     ..`.`..`.`....@@
    3019:	a0 e0 60 c0 e0 a0 e0 60 c0 e0 00 00 80 a0 60 e0     ..`....`......`.
    3029:	e0 c0 60 e0 a0 a0 a0 e0 00                          ..`......

00003032 <__ctors_end>:
    3032:	11 24       	eor	r1, r1
    3034:	1f be       	out	0x3f, r1	; 63
    3036:	cf e5       	ldi	r28, 0x5F	; 95
    3038:	d8 e0       	ldi	r29, 0x08	; 8
    303a:	de bf       	out	0x3e, r29	; 62
    303c:	cd bf       	out	0x3d, r28	; 61

0000303e <__do_copy_data>:
    303e:	10 e0       	ldi	r17, 0x00	; 0
    3040:	a0 e6       	ldi	r26, 0x60	; 96
    3042:	b0 e0       	ldi	r27, 0x00	; 0
    3044:	ec e9       	ldi	r30, 0x9C	; 156
    3046:	fb e5       	ldi	r31, 0x5B	; 91
    3048:	02 c0       	rjmp	.+4      	; 0x304e <__do_copy_data+0x10>
    304a:	05 90       	lpm	r0, Z+
    304c:	0d 92       	st	X+, r0
    304e:	ac 3b       	cpi	r26, 0xBC	; 188
    3050:	b1 07       	cpc	r27, r17
    3052:	d9 f7       	brne	.-10     	; 0x304a <__do_copy_data+0xc>
    3054:	04 d0       	rcall	.+8      	; 0x305e <main>
    3056:	0c 94 cc 2d 	jmp	0x5b98	; 0x5b98 <_exit>

0000305a <__bad_interrupt>:
    305a:	0c 94 00 00 	jmp	0	; 0x0 <__vectors>

0000305e <main>:
//#include "fonts/Font_96x144_Segment_7_Num.h"
//#include "fonts/Font_96x144_Segment_16_Num.h"
//#include "fonts/Font_128x192_Segment_16_Num.h"

int main(void)
{
    305e:	cf 93       	push	r28
    3060:	df 93       	push	r29
    3062:	00 d0       	rcall	.+0      	; 0x3064 <main+0x6>
    3064:	1f 92       	push	r1
    3066:	cd b7       	in	r28, 0x3d	; 61
    3068:	de b7       	in	r29, 0x3e	; 62
	LCD_Init();
    306a:	0e 94 0c 25 	call	0x4a18	; 0x4a18 <LCD_Init>
	XPT2046_Init();
    306e:	0e 94 a4 27 	call	0x4f48	; 0x4f48 <XPT2046_Init>
	
	LCD_Rect_Fill(0, 0, 800, 480, BLUE);
    3072:	e1 2c       	mov	r14, r1
    3074:	f1 2c       	mov	r15, r1
    3076:	87 01       	movw	r16, r14
    3078:	ea 94       	dec	r14
    307a:	20 ee       	ldi	r18, 0xE0	; 224
    307c:	31 e0       	ldi	r19, 0x01	; 1
    307e:	40 e2       	ldi	r20, 0x20	; 32
    3080:	53 e0       	ldi	r21, 0x03	; 3
    3082:	60 e0       	ldi	r22, 0x00	; 0
    3084:	70 e0       	ldi	r23, 0x00	; 0
    3086:	80 e0       	ldi	r24, 0x00	; 0
    3088:	90 e0       	ldi	r25, 0x00	; 0
    308a:	e9 d1       	rcall	.+978    	; 0x345e <LCD_Rect_Fill>
	LCD_Rect_Fill(1, 1, 798, 478, BLACK);
    308c:	e1 2c       	mov	r14, r1
    308e:	f1 2c       	mov	r15, r1
    3090:	87 01       	movw	r16, r14
    3092:	2e ed       	ldi	r18, 0xDE	; 222
    3094:	31 e0       	ldi	r19, 0x01	; 1
    3096:	4e e1       	ldi	r20, 0x1E	; 30
    3098:	53 e0       	ldi	r21, 0x03	; 3
    309a:	61 e0       	ldi	r22, 0x01	; 1
    309c:	70 e0       	ldi	r23, 0x00	; 0
    309e:	81 e0       	ldi	r24, 0x01	; 1
    30a0:	90 e0       	ldi	r25, 0x00	; 0
    30a2:	dd d1       	rcall	.+954    	; 0x345e <LCD_Rect_Fill>
	#else
		//round up by default
		__ticks_dc = (uint32_t)(ceil(fabs(__tmp)));
	#endif

	__builtin_avr_delay_cycles(__ticks_dc);
    30a4:	2f e7       	ldi	r18, 0x7F	; 127
    30a6:	8a e1       	ldi	r24, 0x1A	; 26
    30a8:	96 e0       	ldi	r25, 0x06	; 6
    30aa:	21 50       	subi	r18, 0x01	; 1
    30ac:	80 40       	sbci	r24, 0x00	; 0
    30ae:	90 40       	sbci	r25, 0x00	; 0
    30b0:	e1 f7       	brne	.-8      	; 0x30aa <main+0x4c>
    30b2:	00 c0       	rjmp	.+0      	; 0x30b4 <main+0x56>
    30b4:	00 00       	nop
	
	_delay_ms(250);
	LCD_Rect_Fill(0, 0, 160, 128, BLACK);
    30b6:	20 e8       	ldi	r18, 0x80	; 128
    30b8:	30 e0       	ldi	r19, 0x00	; 0
    30ba:	40 ea       	ldi	r20, 0xA0	; 160
    30bc:	50 e0       	ldi	r21, 0x00	; 0
    30be:	60 e0       	ldi	r22, 0x00	; 0
    30c0:	70 e0       	ldi	r23, 0x00	; 0
    30c2:	80 e0       	ldi	r24, 0x00	; 0
    30c4:	90 e0       	ldi	r25, 0x00	; 0
    30c6:	cb d1       	rcall	.+918    	; 0x345e <LCD_Rect_Fill>
    30c8:	68 94       	set
    30ca:	aa 24       	eor	r10, r10
    30cc:	a3 f8       	bld	r10, 3
    30ce:	b1 2c       	mov	r11, r1
	for(uint8_t x = 8; x <= 160; x += 8)
	{
		LCD_Line(0, 0, x, 128, 1, GREEN);
    30d0:	c1 2c       	mov	r12, r1
    30d2:	d1 2c       	mov	r13, r1
    30d4:	76 01       	movw	r14, r12
    30d6:	da 94       	dec	r13
    30d8:	01 e0       	ldi	r16, 0x01	; 1
    30da:	20 e8       	ldi	r18, 0x80	; 128
    30dc:	30 e0       	ldi	r19, 0x00	; 0
    30de:	a5 01       	movw	r20, r10
    30e0:	60 e0       	ldi	r22, 0x00	; 0
    30e2:	70 e0       	ldi	r23, 0x00	; 0
    30e4:	80 e0       	ldi	r24, 0x00	; 0
    30e6:	90 e0       	ldi	r25, 0x00	; 0
    30e8:	9f d2       	rcall	.+1342   	; 0x3628 <LCD_Line>
    30ea:	e8 e0       	ldi	r30, 0x08	; 8
    30ec:	ae 0e       	add	r10, r30
    30ee:	b1 1c       	adc	r11, r1
	LCD_Rect_Fill(0, 0, 800, 480, BLUE);
	LCD_Rect_Fill(1, 1, 798, 478, BLACK);
	
	_delay_ms(250);
	LCD_Rect_Fill(0, 0, 160, 128, BLACK);
	for(uint8_t x = 8; x <= 160; x += 8)
    30f0:	f8 ea       	ldi	r31, 0xA8	; 168
    30f2:	af 16       	cp	r10, r31
    30f4:	b1 04       	cpc	r11, r1
    30f6:	61 f7       	brne	.-40     	; 0x30d0 <main+0x72>
    30f8:	68 94       	set
    30fa:	aa 24       	eor	r10, r10
    30fc:	a3 f8       	bld	r10, 3
    30fe:	b1 2c       	mov	r11, r1
	{
		LCD_Line(0, 0, x, 128, 1, GREEN);
	}
	for(uint8_t y = 8; y <= 128; y += 8) {
		LCD_Line(0, 0, 160, y, 1, GREEN);
    3100:	c1 2c       	mov	r12, r1
    3102:	d1 2c       	mov	r13, r1
    3104:	76 01       	movw	r14, r12
    3106:	da 94       	dec	r13
    3108:	01 e0       	ldi	r16, 0x01	; 1
    310a:	95 01       	movw	r18, r10
    310c:	40 ea       	ldi	r20, 0xA0	; 160
    310e:	50 e0       	ldi	r21, 0x00	; 0
    3110:	60 e0       	ldi	r22, 0x00	; 0
    3112:	70 e0       	ldi	r23, 0x00	; 0
    3114:	80 e0       	ldi	r24, 0x00	; 0
    3116:	90 e0       	ldi	r25, 0x00	; 0
    3118:	87 d2       	rcall	.+1294   	; 0x3628 <LCD_Line>
    311a:	28 e0       	ldi	r18, 0x08	; 8
    311c:	a2 0e       	add	r10, r18
    311e:	b1 1c       	adc	r11, r1
	LCD_Rect_Fill(0, 0, 160, 128, BLACK);
	for(uint8_t x = 8; x <= 160; x += 8)
	{
		LCD_Line(0, 0, x, 128, 1, GREEN);
	}
	for(uint8_t y = 8; y <= 128; y += 8) {
    3120:	88 e8       	ldi	r24, 0x88	; 136
    3122:	a8 16       	cp	r10, r24
    3124:	b1 04       	cpc	r11, r1
    3126:	61 f7       	brne	.-40     	; 0x3100 <main+0xa2>
    3128:	9f e7       	ldi	r25, 0x7F	; 127
    312a:	ea e1       	ldi	r30, 0x1A	; 26
    312c:	f6 e0       	ldi	r31, 0x06	; 6
    312e:	91 50       	subi	r25, 0x01	; 1
    3130:	e0 40       	sbci	r30, 0x00	; 0
    3132:	f0 40       	sbci	r31, 0x00	; 0
    3134:	e1 f7       	brne	.-8      	; 0x312e <main+0xd0>
    3136:	00 c0       	rjmp	.+0      	; 0x3138 <main+0xda>
    3138:	00 00       	nop
    313a:	68 94       	set
    313c:	aa 24       	eor	r10, r10
    313e:	a4 f8       	bld	r10, 4
    3140:	b1 2c       	mov	r11, r1
    3142:	0f 2e       	mov	r0, r31
    3144:	f4 e1       	ldi	r31, 0x14	; 20
    3146:	8f 2e       	mov	r8, r31
    3148:	91 2c       	mov	r9, r1
    314a:	f0 2d       	mov	r31, r0
	
	uint8_t h = 16;
	uint8_t w = 20;
	for(uint8_t i = 0; i < 8; i++)
	{
		LCD_Rect(80 - w / 2, 64 - h / 2, w, h, 2, YELLOW);
    314c:	68 94       	set
    314e:	44 24       	eor	r4, r4
    3150:	46 f8       	bld	r4, 6
    3152:	51 2c       	mov	r5, r1
    3154:	0f 2e       	mov	r0, r31
    3156:	f0 e5       	ldi	r31, 0x50	; 80
    3158:	6f 2e       	mov	r6, r31
    315a:	71 2c       	mov	r7, r1
    315c:	f0 2d       	mov	r31, r0
    315e:	8a 2d       	mov	r24, r10
    3160:	86 95       	lsr	r24
    3162:	b2 01       	movw	r22, r4
    3164:	68 1b       	sub	r22, r24
    3166:	71 09       	sbc	r23, r1
    3168:	88 2d       	mov	r24, r8
    316a:	86 95       	lsr	r24
    316c:	c1 2c       	mov	r12, r1
    316e:	dd 24       	eor	r13, r13
    3170:	da 94       	dec	r13
    3172:	ed 2c       	mov	r14, r13
    3174:	f1 2c       	mov	r15, r1
    3176:	02 e0       	ldi	r16, 0x02	; 2
    3178:	95 01       	movw	r18, r10
    317a:	a4 01       	movw	r20, r8
    317c:	f3 01       	movw	r30, r6
    317e:	e8 1b       	sub	r30, r24
    3180:	f1 09       	sbc	r31, r1
    3182:	cf 01       	movw	r24, r30
    3184:	49 d3       	rcall	.+1682   	; 0x3818 <LCD_Rect>
    3186:	f4 e1       	ldi	r31, 0x14	; 20
    3188:	8f 0e       	add	r8, r31
    318a:	91 1c       	adc	r9, r1
    318c:	20 e1       	ldi	r18, 0x10	; 16
    318e:	a2 0e       	add	r10, r18
    3190:	b1 1c       	adc	r11, r1
	}
	_delay_ms(250);
	
	uint8_t h = 16;
	uint8_t w = 20;
	for(uint8_t i = 0; i < 8; i++)
    3192:	80 e9       	ldi	r24, 0x90	; 144
    3194:	a8 16       	cp	r10, r24
    3196:	b1 04       	cpc	r11, r1
    3198:	11 f7       	brne	.-60     	; 0x315e <main+0x100>
    319a:	9f e7       	ldi	r25, 0x7F	; 127
    319c:	ea e1       	ldi	r30, 0x1A	; 26
    319e:	f6 e0       	ldi	r31, 0x06	; 6
    31a0:	91 50       	subi	r25, 0x01	; 1
    31a2:	e0 40       	sbci	r30, 0x00	; 0
    31a4:	f0 40       	sbci	r31, 0x00	; 0
    31a6:	e1 f7       	brne	.-8      	; 0x31a0 <main+0x142>
    31a8:	00 c0       	rjmp	.+0      	; 0x31aa <main+0x14c>
    31aa:	00 00       	nop
		LCD_Rect(80 - w / 2, 64 - h / 2, w, h, 2, YELLOW);
		h += 16;
		w += 20;
	}
	_delay_ms(250);
	LCD_Rect_Fill(0, 0, 160, 128, BLUE);
    31ac:	e1 2c       	mov	r14, r1
    31ae:	f1 2c       	mov	r15, r1
    31b0:	87 01       	movw	r16, r14
    31b2:	ea 94       	dec	r14
    31b4:	20 e8       	ldi	r18, 0x80	; 128
    31b6:	30 e0       	ldi	r19, 0x00	; 0
    31b8:	40 ea       	ldi	r20, 0xA0	; 160
    31ba:	50 e0       	ldi	r21, 0x00	; 0
    31bc:	60 e0       	ldi	r22, 0x00	; 0
    31be:	70 e0       	ldi	r23, 0x00	; 0
    31c0:	80 e0       	ldi	r24, 0x00	; 0
    31c2:	90 e0       	ldi	r25, 0x00	; 0
    31c4:	4c d1       	rcall	.+664    	; 0x345e <LCD_Rect_Fill>
	LCD_Rect_Fill(1, 1, 158, 126, BLACK);
    31c6:	e1 2c       	mov	r14, r1
    31c8:	f1 2c       	mov	r15, r1
    31ca:	87 01       	movw	r16, r14
    31cc:	2e e7       	ldi	r18, 0x7E	; 126
    31ce:	30 e0       	ldi	r19, 0x00	; 0
    31d0:	4e e9       	ldi	r20, 0x9E	; 158
    31d2:	50 e0       	ldi	r21, 0x00	; 0
    31d4:	61 e0       	ldi	r22, 0x01	; 1
    31d6:	70 e0       	ldi	r23, 0x00	; 0
    31d8:	81 e0       	ldi	r24, 0x01	; 1
    31da:	90 e0       	ldi	r25, 0x00	; 0
    31dc:	40 d1       	rcall	.+640    	; 0x345e <LCD_Rect_Fill>
	LCD_Font(5, 40, "This is\n just a Test\nST7735\n", _3x5_TomThumb_Extended, 1, YELLOW);
    31de:	c1 2c       	mov	r12, r1
    31e0:	dd 24       	eor	r13, r13
    31e2:	da 94       	dec	r13
    31e4:	ed 2c       	mov	r14, r13
    31e6:	f1 2c       	mov	r15, r1
    31e8:	01 e0       	ldi	r16, 0x01	; 1
    31ea:	2e e0       	ldi	r18, 0x0E	; 14
    31ec:	37 e2       	ldi	r19, 0x27	; 39
    31ee:	40 e6       	ldi	r20, 0x60	; 96
    31f0:	50 e0       	ldi	r21, 0x00	; 0
    31f2:	68 e2       	ldi	r22, 0x28	; 40
    31f4:	70 e0       	ldi	r23, 0x00	; 0
    31f6:	85 e0       	ldi	r24, 0x05	; 5
    31f8:	90 e0       	ldi	r25, 0x00	; 0
    31fa:	0e 94 bb 23 	call	0x4776	; 0x4776 <LCD_Font>
	LCD_Line(23, 20, 137, 20, 1, MAGENTA);
    31fe:	cc 24       	eor	r12, r12
    3200:	ca 94       	dec	r12
    3202:	d1 2c       	mov	r13, r1
    3204:	76 01       	movw	r14, r12
    3206:	24 e1       	ldi	r18, 0x14	; 20
    3208:	30 e0       	ldi	r19, 0x00	; 0
    320a:	49 e8       	ldi	r20, 0x89	; 137
    320c:	50 e0       	ldi	r21, 0x00	; 0
    320e:	64 e1       	ldi	r22, 0x14	; 20
    3210:	70 e0       	ldi	r23, 0x00	; 0
    3212:	87 e1       	ldi	r24, 0x17	; 23
    3214:	90 e0       	ldi	r25, 0x00	; 0
    3216:	08 d2       	rcall	.+1040   	; 0x3628 <LCD_Line>
	LCD_Line(23, 21, 137, 21, 1, BLUE);
    3218:	c1 2c       	mov	r12, r1
    321a:	d1 2c       	mov	r13, r1
    321c:	76 01       	movw	r14, r12
    321e:	ca 94       	dec	r12
    3220:	25 e1       	ldi	r18, 0x15	; 21
    3222:	30 e0       	ldi	r19, 0x00	; 0
    3224:	49 e8       	ldi	r20, 0x89	; 137
    3226:	50 e0       	ldi	r21, 0x00	; 0
    3228:	65 e1       	ldi	r22, 0x15	; 21
    322a:	70 e0       	ldi	r23, 0x00	; 0
    322c:	87 e1       	ldi	r24, 0x17	; 23
    322e:	90 e0       	ldi	r25, 0x00	; 0
	LCD_Line(23, 21, 137, 21, 1, BLUE);
    3230:	fb d1       	rcall	.+1014   	; 0x3628 <LCD_Line>
    3232:	25 e1       	ldi	r18, 0x15	; 21
    3234:	30 e0       	ldi	r19, 0x00	; 0
    3236:	49 e8       	ldi	r20, 0x89	; 137
    3238:	50 e0       	ldi	r21, 0x00	; 0
    323a:	65 e1       	ldi	r22, 0x15	; 21
    323c:	70 e0       	ldi	r23, 0x00	; 0
    323e:	87 e1       	ldi	r24, 0x17	; 23
    3240:	90 e0       	ldi	r25, 0x00	; 0
    3242:	f2 d1       	rcall	.+996    	; 0x3628 <LCD_Line>
	LCD_Font(41, 10, "SSD1289 DRIVER", _5x5_Org, 1, MAGENTA);
    3244:	cc 24       	eor	r12, r12
    3246:	ca 94       	dec	r12
    3248:	d1 2c       	mov	r13, r1
    324a:	76 01       	movw	r14, r12
    324c:	2f e5       	ldi	r18, 0x5F	; 95
    324e:	33 e2       	ldi	r19, 0x23	; 35
    3250:	4d e7       	ldi	r20, 0x7D	; 125
    3252:	50 e0       	ldi	r21, 0x00	; 0
    3254:	6a e0       	ldi	r22, 0x0A	; 10
    3256:	70 e0       	ldi	r23, 0x00	; 0
    3258:	89 e2       	ldi	r24, 0x29	; 41
    325a:	90 e0       	ldi	r25, 0x00	; 0
    325c:	0e 94 bb 23 	call	0x4776	; 0x4776 <LCD_Font>
	LCD_Font(45, 35, "STM 32 HAL", _9x22_Serif_Bold, 1, RED);
    3260:	c1 2c       	mov	r12, r1
    3262:	d1 2c       	mov	r13, r1
    3264:	76 01       	movw	r14, r12
    3266:	ea 94       	dec	r14
    3268:	27 ef       	ldi	r18, 0xF7	; 247
    326a:	37 e1       	ldi	r19, 0x17	; 23
    326c:	4c e8       	ldi	r20, 0x8C	; 140
    326e:	50 e0       	ldi	r21, 0x00	; 0
    3270:	63 e2       	ldi	r22, 0x23	; 35
    3272:	70 e0       	ldi	r23, 0x00	; 0
    3274:	8d e2       	ldi	r24, 0x2D	; 45
    3276:	90 e0       	ldi	r25, 0x00	; 0
    3278:	0e 94 bb 23 	call	0x4776	; 0x4776 <LCD_Font>
	LCD_Circle(40, 90, 30, 0, 1, RED);
    327c:	20 e0       	ldi	r18, 0x00	; 0
    327e:	4e e1       	ldi	r20, 0x1E	; 30
    3280:	6a e5       	ldi	r22, 0x5A	; 90
    3282:	70 e0       	ldi	r23, 0x00	; 0
    3284:	88 e2       	ldi	r24, 0x28	; 40
    3286:	90 e0       	ldi	r25, 0x00	; 0
	LCD_Circle(45, 90, 20, 1, 1, BLUE);
    3288:	5a d6       	rcall	.+3252   	; 0x3f3e <LCD_Circle>
    328a:	c1 2c       	mov	r12, r1
    328c:	d1 2c       	mov	r13, r1
    328e:	76 01       	movw	r14, r12
    3290:	ca 94       	dec	r12
    3292:	21 e0       	ldi	r18, 0x01	; 1
    3294:	44 e1       	ldi	r20, 0x14	; 20
    3296:	6a e5       	ldi	r22, 0x5A	; 90
    3298:	70 e0       	ldi	r23, 0x00	; 0
    329a:	8d e2       	ldi	r24, 0x2D	; 45
    329c:	90 e0       	ldi	r25, 0x00	; 0
    329e:	4f d6       	rcall	.+3230   	; 0x3f3e <LCD_Circle>
	LCD_Triangle(5, 5, 5, 20, 25, 25, 2, BLUE);
    32a0:	81 2c       	mov	r8, r1
    32a2:	91 2c       	mov	r9, r1
    32a4:	54 01       	movw	r10, r8
    32a6:	8a 94       	dec	r8
    32a8:	68 94       	set
    32aa:	cc 24       	eor	r12, r12
    32ac:	c1 f8       	bld	r12, 1
    32ae:	0f 2e       	mov	r0, r31
    32b0:	f9 e1       	ldi	r31, 0x19	; 25
    32b2:	ef 2e       	mov	r14, r31
    32b4:	f1 2c       	mov	r15, r1
    32b6:	f0 2d       	mov	r31, r0
    32b8:	09 e1       	ldi	r16, 0x19	; 25
    32ba:	10 e0       	ldi	r17, 0x00	; 0
    32bc:	24 e1       	ldi	r18, 0x14	; 20
    32be:	30 e0       	ldi	r19, 0x00	; 0
    32c0:	45 e0       	ldi	r20, 0x05	; 5
    32c2:	50 e0       	ldi	r21, 0x00	; 0
    32c4:	65 e0       	ldi	r22, 0x05	; 5
    32c6:	70 e0       	ldi	r23, 0x00	; 0
    32c8:	85 e0       	ldi	r24, 0x05	; 5
    32ca:	90 e0       	ldi	r25, 0x00	; 0
    32cc:	58 d2       	rcall	.+1200   	; 0x377e <LCD_Triangle>
	LCD_Rect(60, 45, 30, 20, 2, GREEN);
    32ce:	c1 2c       	mov	r12, r1
    32d0:	d1 2c       	mov	r13, r1
    32d2:	76 01       	movw	r14, r12
    32d4:	da 94       	dec	r13
    32d6:	02 e0       	ldi	r16, 0x02	; 2
    32d8:	24 e1       	ldi	r18, 0x14	; 20
    32da:	30 e0       	ldi	r19, 0x00	; 0
    32dc:	4e e1       	ldi	r20, 0x1E	; 30
    32de:	50 e0       	ldi	r21, 0x00	; 0
    32e0:	6d e2       	ldi	r22, 0x2D	; 45
    32e2:	70 e0       	ldi	r23, 0x00	; 0
    32e4:	8c e3       	ldi	r24, 0x3C	; 60
    32e6:	90 e0       	ldi	r25, 0x00	; 0
    32e8:	97 d2       	rcall	.+1326   	; 0x3818 <LCD_Rect>
    32ea:	aa 24       	eor	r10, r10
	LCD_Rect_Round(80, 70, 60, 25, 10, 3, WHITE);
    32ec:	aa 94       	dec	r10
    32ee:	ba 2c       	mov	r11, r10
    32f0:	ca 2c       	mov	r12, r10
    32f2:	d1 2c       	mov	r13, r1
    32f4:	0f 2e       	mov	r0, r31
    32f6:	f3 e0       	ldi	r31, 0x03	; 3
    32f8:	ef 2e       	mov	r14, r31
    32fa:	f0 2d       	mov	r31, r0
    32fc:	0a e0       	ldi	r16, 0x0A	; 10
    32fe:	10 e0       	ldi	r17, 0x00	; 0
    3300:	29 e1       	ldi	r18, 0x19	; 25
    3302:	30 e0       	ldi	r19, 0x00	; 0
    3304:	4c e3       	ldi	r20, 0x3C	; 60
    3306:	50 e0       	ldi	r21, 0x00	; 0
    3308:	66 e4       	ldi	r22, 0x46	; 70
    330a:	70 e0       	ldi	r23, 0x00	; 0
    330c:	80 e5       	ldi	r24, 0x50	; 80
    330e:	90 e0       	ldi	r25, 0x00	; 0
    3310:	0e 94 c2 21 	call	0x4384	; 0x4384 <LCD_Rect_Round>
    3314:	cc 24       	eor	r12, r12
	LCD_Rect_Round_Fill(80, 100, 60, 25, 10, WHITE);
    3316:	ca 94       	dec	r12
    3318:	dc 2c       	mov	r13, r12
    331a:	ec 2c       	mov	r14, r12
    331c:	f1 2c       	mov	r15, r1
    331e:	29 e1       	ldi	r18, 0x19	; 25
    3320:	30 e0       	ldi	r19, 0x00	; 0
    3322:	4c e3       	ldi	r20, 0x3C	; 60
    3324:	50 e0       	ldi	r21, 0x00	; 0
    3326:	64 e6       	ldi	r22, 0x64	; 100
    3328:	70 e0       	ldi	r23, 0x00	; 0
    332a:	80 e5       	ldi	r24, 0x50	; 80
    332c:	90 e0       	ldi	r25, 0x00	; 0
    332e:	0e 94 50 23 	call	0x46a0	; 0x46a0 <LCD_Rect_Round_Fill>
    3332:	a1 2c       	mov	r10, r1
	LCD_Ellipse(60, 100, 30, 20, 0, 2, YELLOW);
    3334:	bb 24       	eor	r11, r11
    3336:	ba 94       	dec	r11
    3338:	cb 2c       	mov	r12, r11
    333a:	d1 2c       	mov	r13, r1
    333c:	68 94       	set
    333e:	ee 24       	eor	r14, r14
    3340:	e1 f8       	bld	r14, 1
    3342:	00 e0       	ldi	r16, 0x00	; 0
    3344:	24 e1       	ldi	r18, 0x14	; 20
    3346:	30 e0       	ldi	r19, 0x00	; 0
    3348:	4e e1       	ldi	r20, 0x1E	; 30
    334a:	50 e0       	ldi	r21, 0x00	; 0
    334c:	64 e6       	ldi	r22, 0x64	; 100
    334e:	70 e0       	ldi	r23, 0x00	; 0
    3350:	8c e3       	ldi	r24, 0x3C	; 60
    3352:	90 e0       	ldi	r25, 0x00	; 0
    3354:	a0 d2       	rcall	.+1344   	; 0x3896 <LCD_Ellipse>
	LCD_Ellipse(125, 60, 25, 15, 1, 1, YELLOW);
    3356:	ee 24       	eor	r14, r14
    3358:	e3 94       	inc	r14
    335a:	01 e0       	ldi	r16, 0x01	; 1
    335c:	2f e0       	ldi	r18, 0x0F	; 15
    335e:	30 e0       	ldi	r19, 0x00	; 0
    3360:	49 e1       	ldi	r20, 0x19	; 25
    3362:	50 e0       	ldi	r21, 0x00	; 0
    3364:	6c e3       	ldi	r22, 0x3C	; 60
    3366:	70 e0       	ldi	r23, 0x00	; 0
    3368:	8d e7       	ldi	r24, 0x7D	; 125
    336a:	90 e0       	ldi	r25, 0x00	; 0
    336c:	94 d2       	rcall	.+1320   	; 0x3896 <LCD_Ellipse>
    336e:	c1 2c       	mov	r12, r1
	LCD_Font(0, 200, "1234567890", _32x50_Segment_7_Num_Plus, 1, RED);
    3370:	d1 2c       	mov	r13, r1
    3372:	76 01       	movw	r14, r12
    3374:	ea 94       	dec	r14
    3376:	24 e5       	ldi	r18, 0x54	; 84
    3378:	30 e0       	ldi	r19, 0x00	; 0
    337a:	47 e9       	ldi	r20, 0x97	; 151
    337c:	50 e0       	ldi	r21, 0x00	; 0
    337e:	68 ec       	ldi	r22, 0xC8	; 200
    3380:	70 e0       	ldi	r23, 0x00	; 0
    3382:	80 e0       	ldi	r24, 0x00	; 0
    3384:	90 e0       	ldi	r25, 0x00	; 0
    3386:	0e 94 bb 23 	call	0x4776	; 0x4776 <LCD_Font>
    338a:	21 e2       	ldi	r18, 0x21	; 33
	LCD_Font(10, 220, "1234567890 TEST FONT", _8x12_Default, 1, RED);
    338c:	3f e1       	ldi	r19, 0x1F	; 31
    338e:	42 ea       	ldi	r20, 0xA2	; 162
    3390:	50 e0       	ldi	r21, 0x00	; 0
    3392:	6c ed       	ldi	r22, 0xDC	; 220
    3394:	70 e0       	ldi	r23, 0x00	; 0
    3396:	8a e0       	ldi	r24, 0x0A	; 10
    3398:	90 e0       	ldi	r25, 0x00	; 0
    339a:	0e 94 bb 23 	call	0x4776	; 0x4776 <LCD_Font>
    339e:	0f 2e       	mov	r0, r31
			{
				LCD_Rect_Fill(tX, tY, 2, 2, WHITE);
				
				LCD_Rect_Fill(2, 205, 180, 30, BLUE_D);
				char str[3] = { 0 };
				sprintf(str, "%.3d", tX);
    33a0:	f7 eb       	ldi	r31, 0xB7	; 183
    33a2:	6f 2e       	mov	r6, r31
    33a4:	f0 e0       	ldi	r31, 0x00	; 0
    33a6:	7f 2e       	mov	r7, r31
    33a8:	f0 2d       	mov	r31, r0
    33aa:	ce 01       	movw	r24, r28
    33ac:	01 96       	adiw	r24, 0x01	; 1
    33ae:	4c 01       	movw	r8, r24
    33b0:	b2 99       	sbic	0x16, 2	; 22
	LCD_Font(10, 220, "1234567890 TEST FONT", _8x12_Default, 1, RED);
	
	
	while (1)
	{
		if (!(PINB & (1 << XPT2046_IRQ_PIN)))
    33b2:	fe cf       	rjmp	.-4      	; 0x33b0 <main+0x352>
    33b4:	0e 94 dd 27 	call	0x4fba	; 0x4fba <getX>
		{
			uint16_t tX = getX();
    33b8:	6c 01       	movw	r12, r24
    33ba:	0e 94 55 28 	call	0x50aa	; 0x50aa <getY>
			uint16_t tY = getY();
    33be:	5c 01       	movw	r10, r24
			
			if (tX && tY)
    33c0:	c1 14       	cp	r12, r1
    33c2:	d1 04       	cpc	r13, r1
    33c4:	a9 f3       	breq	.-22     	; 0x33b0 <main+0x352>
    33c6:	00 97       	sbiw	r24, 0x00	; 0
    33c8:	99 f3       	breq	.-26     	; 0x33b0 <main+0x352>
			{
				LCD_Rect_Fill(tX, tY, 2, 2, WHITE);
    33ca:	ee 24       	eor	r14, r14
    33cc:	ea 94       	dec	r14
    33ce:	fe 2c       	mov	r15, r14
    33d0:	0f ef       	ldi	r16, 0xFF	; 255
    33d2:	10 e0       	ldi	r17, 0x00	; 0
    33d4:	22 e0       	ldi	r18, 0x02	; 2
    33d6:	30 e0       	ldi	r19, 0x00	; 0
    33d8:	42 e0       	ldi	r20, 0x02	; 2
    33da:	50 e0       	ldi	r21, 0x00	; 0
    33dc:	bc 01       	movw	r22, r24
    33de:	c6 01       	movw	r24, r12
    33e0:	3e d0       	rcall	.+124    	; 0x345e <LCD_Rect_Fill>
				
				LCD_Rect_Fill(2, 205, 180, 30, BLUE_D);
    33e2:	10 ea       	ldi	r17, 0xA0	; 160
    33e4:	e1 2e       	mov	r14, r17
    33e6:	f1 2c       	mov	r15, r1
    33e8:	00 e0       	ldi	r16, 0x00	; 0
    33ea:	10 e0       	ldi	r17, 0x00	; 0
    33ec:	2e e1       	ldi	r18, 0x1E	; 30
    33ee:	30 e0       	ldi	r19, 0x00	; 0
    33f0:	44 eb       	ldi	r20, 0xB4	; 180
    33f2:	50 e0       	ldi	r21, 0x00	; 0
    33f4:	6d ec       	ldi	r22, 0xCD	; 205
    33f6:	70 e0       	ldi	r23, 0x00	; 0
    33f8:	82 e0       	ldi	r24, 0x02	; 2
    33fa:	90 e0       	ldi	r25, 0x00	; 0
    33fc:	30 d0       	rcall	.+96     	; 0x345e <LCD_Rect_Fill>
    33fe:	19 82       	std	Y+1, r1	; 0x01
				char str[3] = { 0 };
    3400:	1a 82       	std	Y+2, r1	; 0x02
    3402:	1b 82       	std	Y+3, r1	; 0x03
    3404:	df 92       	push	r13
				sprintf(str, "%.3d", tX);
    3406:	cf 92       	push	r12
    3408:	7f 92       	push	r7
    340a:	6f 92       	push	r6
    340c:	9f 92       	push	r9
    340e:	8f 92       	push	r8
    3410:	0e 94 f4 2a 	call	0x55e8	; 0x55e8 <sprintf>
    3414:	c1 2c       	mov	r12, r1
				LCD_Font(10, 230, str, _18x42_Serif, 1, RED);
    3416:	d1 2c       	mov	r13, r1
    3418:	76 01       	movw	r14, r12
    341a:	ea 94       	dec	r14
    341c:	01 e0       	ldi	r16, 0x01	; 1
    341e:	29 e2       	ldi	r18, 0x29	; 41
    3420:	36 e0       	ldi	r19, 0x06	; 6
    3422:	a4 01       	movw	r20, r8
    3424:	66 ee       	ldi	r22, 0xE6	; 230
    3426:	70 e0       	ldi	r23, 0x00	; 0
    3428:	8a e0       	ldi	r24, 0x0A	; 10
    342a:	90 e0       	ldi	r25, 0x00	; 0
    342c:	0e 94 bb 23 	call	0x4776	; 0x4776 <LCD_Font>
    3430:	bf 92       	push	r11
				sprintf(str, "%.3d", tY);
    3432:	af 92       	push	r10
    3434:	7f 92       	push	r7
    3436:	6f 92       	push	r6
    3438:	9f 92       	push	r9
    343a:	8f 92       	push	r8
    343c:	0e 94 f4 2a 	call	0x55e8	; 0x55e8 <sprintf>
    3440:	29 e2       	ldi	r18, 0x29	; 41
				LCD_Font(100, 230, str, _18x42_Serif, 1, RED);
    3442:	36 e0       	ldi	r19, 0x06	; 6
    3444:	a4 01       	movw	r20, r8
    3446:	66 ee       	ldi	r22, 0xE6	; 230
    3448:	70 e0       	ldi	r23, 0x00	; 0
    344a:	84 e6       	ldi	r24, 0x64	; 100
    344c:	90 e0       	ldi	r25, 0x00	; 0
    344e:	0e 94 bb 23 	call	0x4776	; 0x4776 <LCD_Font>
    3452:	0f b6       	in	r0, 0x3f	; 63
    3454:	f8 94       	cli
    3456:	de bf       	out	0x3e, r29	; 62
    3458:	0f be       	out	0x3f, r0	; 63
    345a:	cd bf       	out	0x3d, r28	; 61
    345c:	a9 cf       	rjmp	.-174    	; 0x33b0 <main+0x352>

0000345e <LCD_Rect_Fill>:
    345e:	9f 92       	push	r9
			if (byte & (1 << (bit_pos % 8))) LCD_Send_Dat(H24_RGB565(0, color24_set));
			else LCD_Send_Dat(H24_RGB565(0, color24_unset));
			bit_pos++;
		}
	}
}
    3460:	af 92       	push	r10
    3462:	bf 92       	push	r11
    3464:	cf 92       	push	r12
    3466:	df 92       	push	r13
    3468:	ef 92       	push	r14
    346a:	ff 92       	push	r15
    346c:	0f 93       	push	r16
    346e:	1f 93       	push	r17
    3470:	cf 93       	push	r28
    3472:	df 93       	push	r29
    3474:	5c 01       	movw	r10, r24
    3476:	eb 01       	movw	r28, r22
    3478:	f9 01       	movw	r30, r18
    347a:	9e 2c       	mov	r9, r14
    347c:	1f 2d       	mov	r17, r15
    347e:	9a 01       	movw	r18, r20
    3480:	df 01       	movw	r26, r30
    3482:	0e 94 cc 2a 	call	0x5598	; 0x5598 <__umulhisi3>
    3486:	6b 01       	movw	r12, r22
    3488:	7c 01       	movw	r14, r24
    348a:	c5 01       	movw	r24, r10
    348c:	01 97       	sbiw	r24, 0x01	; 1
    348e:	48 0f       	add	r20, r24
    3490:	59 1f       	adc	r21, r25
    3492:	ce 01       	movw	r24, r28
    3494:	01 97       	sbiw	r24, 0x01	; 1
    3496:	e8 0f       	add	r30, r24
    3498:	f9 1f       	adc	r31, r25
    349a:	d8 98       	cbi	0x1b, 0	; 27
    349c:	da 9a       	sbi	0x1b, 2	; 27
    349e:	db 98       	cbi	0x1b, 3	; 27
    34a0:	8a e2       	ldi	r24, 0x2A	; 42
    34a2:	85 bb       	out	0x15, r24	; 21
    34a4:	12 ba       	out	0x12, r1	; 18
    34a6:	d9 98       	cbi	0x1b, 1	; 27
    34a8:	8d e0       	ldi	r24, 0x0D	; 13
    34aa:	8a 95       	dec	r24
    34ac:	f1 f7       	brne	.-4      	; 0x34aa <LCD_Rect_Fill+0x4c>
    34ae:	00 00       	nop
    34b0:	d9 9a       	sbi	0x1b, 1	; 27
    34b2:	db 9a       	sbi	0x1b, 3	; 27
    34b4:	d8 9a       	sbi	0x1b, 0	; 27
    34b6:	da 9a       	sbi	0x1b, 2	; 27
    34b8:	db 98       	cbi	0x1b, 3	; 27
    34ba:	b5 ba       	out	0x15, r11	; 21
    34bc:	12 ba       	out	0x12, r1	; 18
    34be:	d9 98       	cbi	0x1b, 1	; 27
    34c0:	8d e0       	ldi	r24, 0x0D	; 13
    34c2:	8a 95       	dec	r24
    34c4:	f1 f7       	brne	.-4      	; 0x34c2 <LCD_Rect_Fill+0x64>
    34c6:	00 00       	nop
    34c8:	d9 9a       	sbi	0x1b, 1	; 27
    34ca:	db 9a       	sbi	0x1b, 3	; 27
    34cc:	d8 9a       	sbi	0x1b, 0	; 27
    34ce:	da 9a       	sbi	0x1b, 2	; 27
    34d0:	db 98       	cbi	0x1b, 3	; 27
    34d2:	a5 ba       	out	0x15, r10	; 21
    34d4:	12 ba       	out	0x12, r1	; 18
    34d6:	d9 98       	cbi	0x1b, 1	; 27
    34d8:	8d e0       	ldi	r24, 0x0D	; 13
    34da:	8a 95       	dec	r24
    34dc:	f1 f7       	brne	.-4      	; 0x34da <LCD_Rect_Fill+0x7c>
    34de:	00 00       	nop
    34e0:	d9 9a       	sbi	0x1b, 1	; 27
    34e2:	db 9a       	sbi	0x1b, 3	; 27
    34e4:	d8 9a       	sbi	0x1b, 0	; 27
    34e6:	da 9a       	sbi	0x1b, 2	; 27
    34e8:	db 98       	cbi	0x1b, 3	; 27
    34ea:	55 bb       	out	0x15, r21	; 21
    34ec:	12 ba       	out	0x12, r1	; 18
    34ee:	d9 98       	cbi	0x1b, 1	; 27
    34f0:	8d e0       	ldi	r24, 0x0D	; 13
    34f2:	8a 95       	dec	r24
    34f4:	f1 f7       	brne	.-4      	; 0x34f2 <LCD_Rect_Fill+0x94>
    34f6:	00 00       	nop
    34f8:	d9 9a       	sbi	0x1b, 1	; 27
    34fa:	db 9a       	sbi	0x1b, 3	; 27
    34fc:	d8 9a       	sbi	0x1b, 0	; 27
    34fe:	da 9a       	sbi	0x1b, 2	; 27
    3500:	db 98       	cbi	0x1b, 3	; 27
    3502:	45 bb       	out	0x15, r20	; 21
    3504:	12 ba       	out	0x12, r1	; 18
    3506:	d9 98       	cbi	0x1b, 1	; 27
    3508:	4d e0       	ldi	r20, 0x0D	; 13
    350a:	4a 95       	dec	r20
    350c:	f1 f7       	brne	.-4      	; 0x350a <LCD_Rect_Fill+0xac>
    350e:	00 00       	nop
    3510:	d9 9a       	sbi	0x1b, 1	; 27
    3512:	db 9a       	sbi	0x1b, 3	; 27
    3514:	d8 98       	cbi	0x1b, 0	; 27
    3516:	da 9a       	sbi	0x1b, 2	; 27
    3518:	db 98       	cbi	0x1b, 3	; 27
    351a:	8b e2       	ldi	r24, 0x2B	; 43
    351c:	85 bb       	out	0x15, r24	; 21
    351e:	12 ba       	out	0x12, r1	; 18
    3520:	d9 98       	cbi	0x1b, 1	; 27
    3522:	8d e0       	ldi	r24, 0x0D	; 13
    3524:	8a 95       	dec	r24
    3526:	f1 f7       	brne	.-4      	; 0x3524 <LCD_Rect_Fill+0xc6>
    3528:	00 00       	nop
    352a:	d9 9a       	sbi	0x1b, 1	; 27
    352c:	db 9a       	sbi	0x1b, 3	; 27
    352e:	d8 9a       	sbi	0x1b, 0	; 27
    3530:	da 9a       	sbi	0x1b, 2	; 27
    3532:	db 98       	cbi	0x1b, 3	; 27
    3534:	d5 bb       	out	0x15, r29	; 21
    3536:	12 ba       	out	0x12, r1	; 18
    3538:	d9 98       	cbi	0x1b, 1	; 27
    353a:	8d e0       	ldi	r24, 0x0D	; 13
    353c:	8a 95       	dec	r24
    353e:	f1 f7       	brne	.-4      	; 0x353c <LCD_Rect_Fill+0xde>
    3540:	00 00       	nop
    3542:	d9 9a       	sbi	0x1b, 1	; 27
    3544:	db 9a       	sbi	0x1b, 3	; 27
    3546:	d8 9a       	sbi	0x1b, 0	; 27
    3548:	da 9a       	sbi	0x1b, 2	; 27
    354a:	db 98       	cbi	0x1b, 3	; 27
    354c:	c5 bb       	out	0x15, r28	; 21
    354e:	12 ba       	out	0x12, r1	; 18
    3550:	d9 98       	cbi	0x1b, 1	; 27
    3552:	8d e0       	ldi	r24, 0x0D	; 13
    3554:	8a 95       	dec	r24
    3556:	f1 f7       	brne	.-4      	; 0x3554 <LCD_Rect_Fill+0xf6>
    3558:	00 00       	nop
    355a:	d9 9a       	sbi	0x1b, 1	; 27
    355c:	db 9a       	sbi	0x1b, 3	; 27
    355e:	d8 9a       	sbi	0x1b, 0	; 27
    3560:	da 9a       	sbi	0x1b, 2	; 27
    3562:	db 98       	cbi	0x1b, 3	; 27
    3564:	f5 bb       	out	0x15, r31	; 21
    3566:	12 ba       	out	0x12, r1	; 18
    3568:	d9 98       	cbi	0x1b, 1	; 27
    356a:	4d e0       	ldi	r20, 0x0D	; 13
    356c:	4a 95       	dec	r20
    356e:	f1 f7       	brne	.-4      	; 0x356c <LCD_Rect_Fill+0x10e>
    3570:	00 00       	nop
    3572:	d9 9a       	sbi	0x1b, 1	; 27
    3574:	db 9a       	sbi	0x1b, 3	; 27
    3576:	d8 9a       	sbi	0x1b, 0	; 27
    3578:	da 9a       	sbi	0x1b, 2	; 27
    357a:	db 98       	cbi	0x1b, 3	; 27
    357c:	e5 bb       	out	0x15, r30	; 21
    357e:	12 ba       	out	0x12, r1	; 18
    3580:	d9 98       	cbi	0x1b, 1	; 27
    3582:	8d e0       	ldi	r24, 0x0D	; 13
    3584:	8a 95       	dec	r24
    3586:	f1 f7       	brne	.-4      	; 0x3584 <LCD_Rect_Fill+0x126>
    3588:	00 00       	nop
    358a:	d9 9a       	sbi	0x1b, 1	; 27
    358c:	db 9a       	sbi	0x1b, 3	; 27
    358e:	d8 98       	cbi	0x1b, 0	; 27
    3590:	da 9a       	sbi	0x1b, 2	; 27
    3592:	db 98       	cbi	0x1b, 3	; 27
    3594:	8c e2       	ldi	r24, 0x2C	; 44
    3596:	85 bb       	out	0x15, r24	; 21
    3598:	12 ba       	out	0x12, r1	; 18
    359a:	d9 98       	cbi	0x1b, 1	; 27
    359c:	4d e0       	ldi	r20, 0x0D	; 13
    359e:	4a 95       	dec	r20
    35a0:	f1 f7       	brne	.-4      	; 0x359e <LCD_Rect_Fill+0x140>
    35a2:	00 00       	nop
    35a4:	d9 9a       	sbi	0x1b, 1	; 27
    35a6:	db 9a       	sbi	0x1b, 3	; 27
    35a8:	c1 14       	cp	r12, r1
    35aa:	d1 04       	cpc	r13, r1
    35ac:	e1 04       	cpc	r14, r1
    35ae:	f1 04       	cpc	r15, r1
    35b0:	79 f1       	breq	.+94     	; 0x3610 <LCD_Rect_Fill+0x1b2>
    35b2:	06 95       	lsr	r16
    35b4:	06 95       	lsr	r16
    35b6:	06 95       	lsr	r16
    35b8:	80 2f       	mov	r24, r16
    35ba:	90 e0       	ldi	r25, 0x00	; 0
    35bc:	98 2f       	mov	r25, r24
    35be:	88 27       	eor	r24, r24
    35c0:	99 0f       	add	r25, r25
    35c2:	99 0f       	add	r25, r25
    35c4:	99 0f       	add	r25, r25
    35c6:	16 95       	lsr	r17
    35c8:	16 95       	lsr	r17
    35ca:	40 e2       	ldi	r20, 0x20	; 32
    35cc:	14 9f       	mul	r17, r20
    35ce:	90 01       	movw	r18, r0
    35d0:	11 24       	eor	r1, r1
    35d2:	82 2b       	or	r24, r18
    35d4:	93 2b       	or	r25, r19
    35d6:	96 94       	lsr	r9
    35d8:	96 94       	lsr	r9
    35da:	96 94       	lsr	r9
    35dc:	89 29       	or	r24, r9
    35de:	38 2f       	mov	r19, r24
    35e0:	29 2f       	mov	r18, r25
    35e2:	80 e0       	ldi	r24, 0x00	; 0
    35e4:	90 e0       	ldi	r25, 0x00	; 0
    35e6:	dc 01       	movw	r26, r24
    35e8:	d8 9a       	sbi	0x1b, 0	; 27
    35ea:	da 9a       	sbi	0x1b, 2	; 27
    35ec:	db 98       	cbi	0x1b, 3	; 27
    35ee:	35 bb       	out	0x15, r19	; 21
    35f0:	22 bb       	out	0x12, r18	; 18
    35f2:	d9 98       	cbi	0x1b, 1	; 27
    35f4:	4d e0       	ldi	r20, 0x0D	; 13
    35f6:	4a 95       	dec	r20
    35f8:	f1 f7       	brne	.-4      	; 0x35f6 <LCD_Rect_Fill+0x198>
    35fa:	00 00       	nop
    35fc:	d9 9a       	sbi	0x1b, 1	; 27
    35fe:	db 9a       	sbi	0x1b, 3	; 27
    3600:	01 96       	adiw	r24, 0x01	; 1
    3602:	a1 1d       	adc	r26, r1
    3604:	b1 1d       	adc	r27, r1
    3606:	c8 16       	cp	r12, r24
    3608:	d9 06       	cpc	r13, r25
    360a:	ea 06       	cpc	r14, r26
    360c:	fb 06       	cpc	r15, r27
    360e:	61 f7       	brne	.-40     	; 0x35e8 <LCD_Rect_Fill+0x18a>
    3610:	df 91       	pop	r29
    3612:	cf 91       	pop	r28
    3614:	1f 91       	pop	r17
    3616:	0f 91       	pop	r16
    3618:	ff 90       	pop	r15
    361a:	ef 90       	pop	r14
    361c:	df 90       	pop	r13
    361e:	cf 90       	pop	r12
    3620:	bf 90       	pop	r11
    3622:	af 90       	pop	r10
    3624:	9f 90       	pop	r9
    3626:	08 95       	ret

00003628 <LCD_Line>:
    3628:	2f 92       	push	r2
    362a:	3f 92       	push	r3
    362c:	4f 92       	push	r4
    362e:	5f 92       	push	r5
    3630:	6f 92       	push	r6
    3632:	7f 92       	push	r7
    3634:	8f 92       	push	r8
    3636:	9f 92       	push	r9
    3638:	af 92       	push	r10
    363a:	bf 92       	push	r11
    363c:	cf 92       	push	r12
    363e:	df 92       	push	r13
    3640:	ef 92       	push	r14
    3642:	ff 92       	push	r15
    3644:	0f 93       	push	r16
    3646:	1f 93       	push	r17
    3648:	cf 93       	push	r28
    364a:	df 93       	push	r29
    364c:	cd b7       	in	r28, 0x3d	; 61
    364e:	de b7       	in	r29, 0x3e	; 62
    3650:	2e 97       	sbiw	r28, 0x0e	; 14
    3652:	0f b6       	in	r0, 0x3f	; 63
    3654:	f8 94       	cli
    3656:	de bf       	out	0x3e, r29	; 62
    3658:	0f be       	out	0x3f, r0	; 63
    365a:	cd bf       	out	0x3d, r28	; 61
    365c:	9e 87       	std	Y+14, r25	; 0x0e
    365e:	8d 87       	std	Y+13, r24	; 0x0d
    3660:	4b 01       	movw	r8, r22
    3662:	2a 01       	movw	r4, r20
    3664:	3c 87       	std	Y+12, r19	; 0x0c
    3666:	2b 87       	std	Y+11, r18	; 0x0b
    3668:	cb 82       	std	Y+3, r12	; 0x03
    366a:	dc 82       	std	Y+4, r13	; 0x04
    366c:	ed 82       	std	Y+5, r14	; 0x05
    366e:	fe 82       	std	Y+6, r15	; 0x06
    3670:	ca 01       	movw	r24, r20
    3672:	2d 85       	ldd	r18, Y+13	; 0x0d
    3674:	3e 85       	ldd	r19, Y+14	; 0x0e
    3676:	82 1b       	sub	r24, r18
    3678:	93 0b       	sbc	r25, r19
    367a:	6c 01       	movw	r12, r24
    367c:	22 f4       	brpl	.+8      	; 0x3686 <LCD_Line+0x5e>
    367e:	cc 24       	eor	r12, r12
    3680:	dd 24       	eor	r13, r13
    3682:	c8 1a       	sub	r12, r24
    3684:	d9 0a       	sbc	r13, r25
    3686:	2b 85       	ldd	r18, Y+11	; 0x0b
    3688:	3c 85       	ldd	r19, Y+12	; 0x0c
    368a:	28 19       	sub	r18, r8
    368c:	39 09       	sbc	r19, r9
    368e:	c9 01       	movw	r24, r18
    3690:	99 23       	and	r25, r25
    3692:	24 f4       	brge	.+8      	; 0x369c <LCD_Line+0x74>
    3694:	88 27       	eor	r24, r24
    3696:	99 27       	eor	r25, r25
    3698:	82 1b       	sub	r24, r18
    369a:	93 0b       	sbc	r25, r19
    369c:	98 87       	std	Y+8, r25	; 0x08
    369e:	8f 83       	std	Y+7, r24	; 0x07
    36a0:	4d 85       	ldd	r20, Y+13	; 0x0d
    36a2:	5e 85       	ldd	r21, Y+14	; 0x0e
    36a4:	44 15       	cp	r20, r4
    36a6:	55 05       	cpc	r21, r5
    36a8:	28 f0       	brcs	.+10     	; 0x36b4 <LCD_Line+0x8c>
    36aa:	8f ef       	ldi	r24, 0xFF	; 255
    36ac:	9f ef       	ldi	r25, 0xFF	; 255
    36ae:	9a 87       	std	Y+10, r25	; 0x0a
    36b0:	89 87       	std	Y+9, r24	; 0x09
    36b2:	04 c0       	rjmp	.+8      	; 0x36bc <LCD_Line+0x94>
    36b4:	21 e0       	ldi	r18, 0x01	; 1
    36b6:	30 e0       	ldi	r19, 0x00	; 0
    36b8:	3a 87       	std	Y+10, r19	; 0x0a
    36ba:	29 87       	std	Y+9, r18	; 0x09
    36bc:	4b 85       	ldd	r20, Y+11	; 0x0b
    36be:	5c 85       	ldd	r21, Y+12	; 0x0c
    36c0:	84 16       	cp	r8, r20
    36c2:	95 06       	cpc	r9, r21
    36c4:	20 f0       	brcs	.+8      	; 0x36ce <LCD_Line+0xa6>
    36c6:	22 24       	eor	r2, r2
    36c8:	2a 94       	dec	r2
    36ca:	32 2c       	mov	r3, r2
    36cc:	03 c0       	rjmp	.+6      	; 0x36d4 <LCD_Line+0xac>
    36ce:	22 24       	eor	r2, r2
    36d0:	23 94       	inc	r2
    36d2:	31 2c       	mov	r3, r1
    36d4:	56 01       	movw	r10, r12
    36d6:	8f 81       	ldd	r24, Y+7	; 0x07
    36d8:	98 85       	ldd	r25, Y+8	; 0x08
    36da:	a8 1a       	sub	r10, r24
    36dc:	b9 0a       	sbc	r11, r25
    36de:	20 2f       	mov	r18, r16
    36e0:	30 e0       	ldi	r19, 0x00	; 0
    36e2:	3a 83       	std	Y+2, r19	; 0x02
    36e4:	29 83       	std	Y+1, r18	; 0x01
    36e6:	3c 01       	movw	r6, r24
    36e8:	71 94       	neg	r7
    36ea:	61 94       	neg	r6
    36ec:	71 08       	sbc	r7, r1
    36ee:	eb 80       	ldd	r14, Y+3	; 0x03
    36f0:	fc 80       	ldd	r15, Y+4	; 0x04
    36f2:	0d 81       	ldd	r16, Y+5	; 0x05
    36f4:	1e 81       	ldd	r17, Y+6	; 0x06
    36f6:	29 81       	ldd	r18, Y+1	; 0x01
    36f8:	3a 81       	ldd	r19, Y+2	; 0x02
    36fa:	a9 01       	movw	r20, r18
    36fc:	b4 01       	movw	r22, r8
    36fe:	8d 85       	ldd	r24, Y+13	; 0x0d
    3700:	9e 85       	ldd	r25, Y+14	; 0x0e
    3702:	ad de       	rcall	.-678    	; 0x345e <LCD_Rect_Fill>
    3704:	8d 85       	ldd	r24, Y+13	; 0x0d
    3706:	9e 85       	ldd	r25, Y+14	; 0x0e
    3708:	84 15       	cp	r24, r4
    370a:	95 05       	cpc	r25, r5
    370c:	29 f4       	brne	.+10     	; 0x3718 <LCD_Line+0xf0>
    370e:	2b 85       	ldd	r18, Y+11	; 0x0b
    3710:	3c 85       	ldd	r19, Y+12	; 0x0c
    3712:	82 16       	cp	r8, r18
    3714:	93 06       	cpc	r9, r19
    3716:	d1 f0       	breq	.+52     	; 0x374c <LCD_Line+0x124>
    3718:	c5 01       	movw	r24, r10
    371a:	88 0f       	add	r24, r24
    371c:	99 1f       	adc	r25, r25
    371e:	68 16       	cp	r6, r24
    3720:	79 06       	cpc	r7, r25
    3722:	64 f4       	brge	.+24     	; 0x373c <LCD_Line+0x114>
    3724:	4f 81       	ldd	r20, Y+7	; 0x07
    3726:	58 85       	ldd	r21, Y+8	; 0x08
    3728:	a4 1a       	sub	r10, r20
    372a:	b5 0a       	sbc	r11, r21
    372c:	2d 85       	ldd	r18, Y+13	; 0x0d
    372e:	3e 85       	ldd	r19, Y+14	; 0x0e
    3730:	49 85       	ldd	r20, Y+9	; 0x09
    3732:	5a 85       	ldd	r21, Y+10	; 0x0a
    3734:	24 0f       	add	r18, r20
    3736:	35 1f       	adc	r19, r21
    3738:	3e 87       	std	Y+14, r19	; 0x0e
    373a:	2d 87       	std	Y+13, r18	; 0x0d
    373c:	8c 15       	cp	r24, r12
    373e:	9d 05       	cpc	r25, r13
    3740:	b4 f6       	brge	.-84     	; 0x36ee <LCD_Line+0xc6>
    3742:	ac 0c       	add	r10, r12
    3744:	bd 1c       	adc	r11, r13
    3746:	82 0c       	add	r8, r2
    3748:	93 1c       	adc	r9, r3
    374a:	d1 cf       	rjmp	.-94     	; 0x36ee <LCD_Line+0xc6>
    374c:	2e 96       	adiw	r28, 0x0e	; 14
    374e:	0f b6       	in	r0, 0x3f	; 63
    3750:	f8 94       	cli
    3752:	de bf       	out	0x3e, r29	; 62
    3754:	0f be       	out	0x3f, r0	; 63
    3756:	cd bf       	out	0x3d, r28	; 61
    3758:	df 91       	pop	r29
    375a:	cf 91       	pop	r28
    375c:	1f 91       	pop	r17
    375e:	0f 91       	pop	r16
    3760:	ff 90       	pop	r15
    3762:	ef 90       	pop	r14
    3764:	df 90       	pop	r13
    3766:	cf 90       	pop	r12
    3768:	bf 90       	pop	r11
    376a:	af 90       	pop	r10
    376c:	9f 90       	pop	r9
    376e:	8f 90       	pop	r8
    3770:	7f 90       	pop	r7
    3772:	6f 90       	pop	r6
    3774:	5f 90       	pop	r5
    3776:	4f 90       	pop	r4
    3778:	3f 90       	pop	r3
    377a:	2f 90       	pop	r2
    377c:	08 95       	ret

0000377e <LCD_Triangle>:
    377e:	2f 92       	push	r2
    3780:	3f 92       	push	r3
    3782:	4f 92       	push	r4
    3784:	5f 92       	push	r5
    3786:	6f 92       	push	r6
    3788:	7f 92       	push	r7
    378a:	8f 92       	push	r8
    378c:	9f 92       	push	r9
    378e:	af 92       	push	r10
    3790:	bf 92       	push	r11
    3792:	cf 92       	push	r12
    3794:	df 92       	push	r13
    3796:	ef 92       	push	r14
    3798:	ff 92       	push	r15
    379a:	0f 93       	push	r16
    379c:	1f 93       	push	r17
    379e:	cf 93       	push	r28
    37a0:	df 93       	push	r29
    37a2:	00 d0       	rcall	.+0      	; 0x37a4 <LCD_Triangle+0x26>
    37a4:	00 d0       	rcall	.+0      	; 0x37a6 <LCD_Triangle+0x28>
    37a6:	00 d0       	rcall	.+0      	; 0x37a8 <LCD_Triangle+0x2a>
    37a8:	cd b7       	in	r28, 0x3d	; 61
    37aa:	de b7       	in	r29, 0x3e	; 62
    37ac:	9a 83       	std	Y+2, r25	; 0x02
    37ae:	89 83       	std	Y+1, r24	; 0x01
    37b0:	1b 01       	movw	r2, r22
    37b2:	3a 01       	movw	r6, r20
    37b4:	29 01       	movw	r4, r18
    37b6:	1c 83       	std	Y+4, r17	; 0x04
    37b8:	0b 83       	std	Y+3, r16	; 0x03
    37ba:	fe 82       	std	Y+6, r15	; 0x06
    37bc:	ed 82       	std	Y+5, r14	; 0x05
    37be:	1c 2d       	mov	r17, r12
    37c0:	75 01       	movw	r14, r10
    37c2:	64 01       	movw	r12, r8
    37c4:	01 2f       	mov	r16, r17
    37c6:	30 df       	rcall	.-416    	; 0x3628 <LCD_Line>
    37c8:	2d 81       	ldd	r18, Y+5	; 0x05
    37ca:	3e 81       	ldd	r19, Y+6	; 0x06
    37cc:	4b 81       	ldd	r20, Y+3	; 0x03
    37ce:	5c 81       	ldd	r21, Y+4	; 0x04
    37d0:	b2 01       	movw	r22, r4
    37d2:	c3 01       	movw	r24, r6
    37d4:	29 df       	rcall	.-430    	; 0x3628 <LCD_Line>
    37d6:	91 01       	movw	r18, r2
    37d8:	49 81       	ldd	r20, Y+1	; 0x01
    37da:	5a 81       	ldd	r21, Y+2	; 0x02
    37dc:	6d 81       	ldd	r22, Y+5	; 0x05
    37de:	7e 81       	ldd	r23, Y+6	; 0x06
    37e0:	8b 81       	ldd	r24, Y+3	; 0x03
    37e2:	9c 81       	ldd	r25, Y+4	; 0x04
    37e4:	21 df       	rcall	.-446    	; 0x3628 <LCD_Line>
    37e6:	26 96       	adiw	r28, 0x06	; 6
    37e8:	0f b6       	in	r0, 0x3f	; 63
    37ea:	f8 94       	cli
    37ec:	de bf       	out	0x3e, r29	; 62
    37ee:	0f be       	out	0x3f, r0	; 63
    37f0:	cd bf       	out	0x3d, r28	; 61
    37f2:	df 91       	pop	r29
    37f4:	cf 91       	pop	r28
    37f6:	1f 91       	pop	r17
    37f8:	0f 91       	pop	r16
    37fa:	ff 90       	pop	r15
    37fc:	ef 90       	pop	r14
    37fe:	df 90       	pop	r13
    3800:	cf 90       	pop	r12
    3802:	bf 90       	pop	r11
    3804:	af 90       	pop	r10
    3806:	9f 90       	pop	r9
    3808:	8f 90       	pop	r8
    380a:	7f 90       	pop	r7
    380c:	6f 90       	pop	r6
    380e:	5f 90       	pop	r5
    3810:	4f 90       	pop	r4
    3812:	3f 90       	pop	r3
    3814:	2f 90       	pop	r2
    3816:	08 95       	ret

00003818 <LCD_Rect>:
    3818:	2f 92       	push	r2
    381a:	3f 92       	push	r3
    381c:	4f 92       	push	r4
    381e:	5f 92       	push	r5
    3820:	6f 92       	push	r6
    3822:	7f 92       	push	r7
    3824:	8f 92       	push	r8
    3826:	9f 92       	push	r9
    3828:	af 92       	push	r10
    382a:	bf 92       	push	r11
    382c:	cf 92       	push	r12
    382e:	df 92       	push	r13
    3830:	ef 92       	push	r14
    3832:	ff 92       	push	r15
    3834:	0f 93       	push	r16
    3836:	1f 93       	push	r17
    3838:	cf 93       	push	r28
    383a:	df 93       	push	r29
    383c:	5c 01       	movw	r10, r24
    383e:	eb 01       	movw	r28, r22
    3840:	49 01       	movw	r8, r18
    3842:	1c 01       	movw	r2, r24
    3844:	24 0e       	add	r2, r20
    3846:	35 1e       	adc	r3, r21
    3848:	9b 01       	movw	r18, r22
    384a:	a1 01       	movw	r20, r2
    384c:	ed de       	rcall	.-550    	; 0x3628 <LCD_Line>
    384e:	8c 0e       	add	r8, r28
    3850:	9d 1e       	adc	r9, r29
    3852:	94 01       	movw	r18, r8
    3854:	a1 01       	movw	r20, r2
    3856:	b4 01       	movw	r22, r8
    3858:	c5 01       	movw	r24, r10
    385a:	e6 de       	rcall	.-564    	; 0x3628 <LCD_Line>
    385c:	94 01       	movw	r18, r8
    385e:	a5 01       	movw	r20, r10
    3860:	be 01       	movw	r22, r28
    3862:	c5 01       	movw	r24, r10
    3864:	e1 de       	rcall	.-574    	; 0x3628 <LCD_Line>
    3866:	94 01       	movw	r18, r8
    3868:	a1 01       	movw	r20, r2
    386a:	be 01       	movw	r22, r28
    386c:	c1 01       	movw	r24, r2
    386e:	dc de       	rcall	.-584    	; 0x3628 <LCD_Line>
    3870:	df 91       	pop	r29
    3872:	cf 91       	pop	r28
    3874:	1f 91       	pop	r17
    3876:	0f 91       	pop	r16
    3878:	ff 90       	pop	r15
    387a:	ef 90       	pop	r14
    387c:	df 90       	pop	r13
    387e:	cf 90       	pop	r12
    3880:	bf 90       	pop	r11
    3882:	af 90       	pop	r10
    3884:	9f 90       	pop	r9
    3886:	8f 90       	pop	r8
    3888:	7f 90       	pop	r7
    388a:	6f 90       	pop	r6
    388c:	5f 90       	pop	r5
    388e:	4f 90       	pop	r4
    3890:	3f 90       	pop	r3
    3892:	2f 90       	pop	r2
    3894:	08 95       	ret

00003896 <LCD_Ellipse>:
    3896:	2f 92       	push	r2
    3898:	3f 92       	push	r3
    389a:	4f 92       	push	r4
    389c:	5f 92       	push	r5
    389e:	6f 92       	push	r6
    38a0:	7f 92       	push	r7
    38a2:	8f 92       	push	r8
    38a4:	9f 92       	push	r9
    38a6:	af 92       	push	r10
    38a8:	bf 92       	push	r11
    38aa:	cf 92       	push	r12
    38ac:	df 92       	push	r13
    38ae:	ef 92       	push	r14
    38b0:	ff 92       	push	r15
    38b2:	0f 93       	push	r16
    38b4:	1f 93       	push	r17
    38b6:	cf 93       	push	r28
    38b8:	df 93       	push	r29
    38ba:	cd b7       	in	r28, 0x3d	; 61
    38bc:	de b7       	in	r29, 0x3e	; 62
    38be:	a5 97       	sbiw	r28, 0x25	; 37
    38c0:	0f b6       	in	r0, 0x3f	; 63
    38c2:	f8 94       	cli
    38c4:	de bf       	out	0x3e, r29	; 62
    38c6:	0f be       	out	0x3f, r0	; 63
    38c8:	cd bf       	out	0x3d, r28	; 61
    38ca:	3c 01       	movw	r6, r24
    38cc:	4b 01       	movw	r8, r22
    38ce:	2a 01       	movw	r4, r20
    38d0:	3a 83       	std	Y+2, r19	; 0x02
    38d2:	29 83       	std	Y+1, r18	; 0x01
    38d4:	eb a2       	std	Y+35, r14	; 0x23
    38d6:	ab 86       	std	Y+11, r10	; 0x0b
    38d8:	bc 86       	std	Y+12, r11	; 0x0c
    38da:	cd 86       	std	Y+13, r12	; 0x0d
    38dc:	de 86       	std	Y+14, r13	; 0x0e
    38de:	44 9f       	mul	r20, r20
    38e0:	c0 01       	movw	r24, r0
    38e2:	45 9f       	mul	r20, r21
    38e4:	90 0d       	add	r25, r0
    38e6:	90 0d       	add	r25, r0
    38e8:	11 24       	eor	r1, r1
    38ea:	9c 01       	movw	r18, r24
    38ec:	99 0f       	add	r25, r25
    38ee:	44 0b       	sbc	r20, r20
    38f0:	55 0b       	sbc	r21, r21
    38f2:	29 8b       	std	Y+17, r18	; 0x11
    38f4:	3a 8b       	std	Y+18, r19	; 0x12
    38f6:	4b 8b       	std	Y+19, r20	; 0x13
    38f8:	5c 8b       	std	Y+20, r21	; 0x14
    38fa:	49 81       	ldd	r20, Y+1	; 0x01
    38fc:	5a 81       	ldd	r21, Y+2	; 0x02
    38fe:	44 9f       	mul	r20, r20
    3900:	c0 01       	movw	r24, r0
    3902:	45 9f       	mul	r20, r21
    3904:	90 0d       	add	r25, r0
    3906:	90 0d       	add	r25, r0
    3908:	11 24       	eor	r1, r1
    390a:	9c 01       	movw	r18, r24
    390c:	99 0f       	add	r25, r25
    390e:	44 0b       	sbc	r20, r20
    3910:	55 0b       	sbc	r21, r21
    3912:	2d 8b       	std	Y+21, r18	; 0x15
    3914:	3e 8b       	std	Y+22, r19	; 0x16
    3916:	4f 8b       	std	Y+23, r20	; 0x17
    3918:	58 8f       	std	Y+24, r21	; 0x18
    391a:	49 89       	ldd	r20, Y+17	; 0x11
    391c:	5a 89       	ldd	r21, Y+18	; 0x12
    391e:	6b 89       	ldd	r22, Y+19	; 0x13
    3920:	7c 89       	ldd	r23, Y+20	; 0x14
    3922:	44 0f       	add	r20, r20
    3924:	55 1f       	adc	r21, r21
    3926:	66 1f       	adc	r22, r22
    3928:	77 1f       	adc	r23, r23
    392a:	44 0f       	add	r20, r20
    392c:	55 1f       	adc	r21, r21
    392e:	66 1f       	adc	r22, r22
    3930:	77 1f       	adc	r23, r23
    3932:	4b 8f       	std	Y+27, r20	; 0x1b
    3934:	5c 8f       	std	Y+28, r21	; 0x1c
    3936:	6d 8f       	std	Y+29, r22	; 0x1d
    3938:	7e 8f       	std	Y+30, r23	; 0x1e
    393a:	6d 89       	ldd	r22, Y+21	; 0x15
    393c:	7e 89       	ldd	r23, Y+22	; 0x16
    393e:	8f 89       	ldd	r24, Y+23	; 0x17
    3940:	98 8d       	ldd	r25, Y+24	; 0x18
    3942:	66 0f       	add	r22, r22
    3944:	77 1f       	adc	r23, r23
    3946:	88 1f       	adc	r24, r24
    3948:	99 1f       	adc	r25, r25
    394a:	66 0f       	add	r22, r22
    394c:	77 1f       	adc	r23, r23
    394e:	88 1f       	adc	r24, r24
    3950:	99 1f       	adc	r25, r25
    3952:	6f 8f       	std	Y+31, r22	; 0x1f
    3954:	78 a3       	std	Y+32, r23	; 0x20
    3956:	89 a3       	std	Y+33, r24	; 0x21
    3958:	9a a3       	std	Y+34, r25	; 0x22
    395a:	00 23       	and	r16, r16
    395c:	09 f4       	brne	.+2      	; 0x3960 <LCD_Ellipse+0xca>
    395e:	66 c1       	rjmp	.+716    	; 0x3c2c <LCD_Ellipse+0x396>
    3960:	89 81       	ldd	r24, Y+1	; 0x01
    3962:	9a 81       	ldd	r25, Y+2	; 0x02
    3964:	88 0f       	add	r24, r24
    3966:	99 1f       	adc	r25, r25
    3968:	a1 e0       	ldi	r26, 0x01	; 1
    396a:	b0 e0       	ldi	r27, 0x00	; 0
    396c:	a8 1b       	sub	r26, r24
    396e:	b9 0b       	sbc	r27, r25
    3970:	29 89       	ldd	r18, Y+17	; 0x11
    3972:	3a 89       	ldd	r19, Y+18	; 0x12
    3974:	4b 89       	ldd	r20, Y+19	; 0x13
    3976:	5c 89       	ldd	r21, Y+20	; 0x14
    3978:	0e 94 db 2a 	call	0x55b6	; 0x55b6 <__mulshisi3>
    397c:	cd 88       	ldd	r12, Y+21	; 0x15
    397e:	de 88       	ldd	r13, Y+22	; 0x16
    3980:	ef 88       	ldd	r14, Y+23	; 0x17
    3982:	f8 8c       	ldd	r15, Y+24	; 0x18
    3984:	cc 0c       	add	r12, r12
    3986:	dd 1c       	adc	r13, r13
    3988:	ee 1c       	adc	r14, r14
    398a:	ff 1c       	adc	r15, r15
    398c:	9b 01       	movw	r18, r22
    398e:	ac 01       	movw	r20, r24
    3990:	2c 0d       	add	r18, r12
    3992:	3d 1d       	adc	r19, r13
    3994:	4e 1d       	adc	r20, r14
    3996:	5f 1d       	adc	r21, r15
    3998:	2f 83       	std	Y+7, r18	; 0x07
    399a:	38 87       	std	Y+8, r19	; 0x08
    399c:	49 87       	std	Y+9, r20	; 0x09
    399e:	5a 87       	std	Y+10, r21	; 0x0a
    39a0:	a9 81       	ldd	r26, Y+1	; 0x01
    39a2:	ba 81       	ldd	r27, Y+2	; 0x02
    39a4:	29 89       	ldd	r18, Y+17	; 0x11
    39a6:	3a 89       	ldd	r19, Y+18	; 0x12
    39a8:	4b 89       	ldd	r20, Y+19	; 0x13
    39aa:	5c 89       	ldd	r21, Y+20	; 0x14
    39ac:	0e 94 db 2a 	call	0x55b6	; 0x55b6 <__mulshisi3>
    39b0:	99 23       	and	r25, r25
    39b2:	0c f4       	brge	.+2      	; 0x39b6 <LCD_Ellipse+0x120>
    39b4:	8d c0       	rjmp	.+282    	; 0x3ad0 <LCD_Ellipse+0x23a>
    39b6:	0f 2e       	mov	r0, r31
    39b8:	f6 e0       	ldi	r31, 0x06	; 6
    39ba:	af 2e       	mov	r10, r31
    39bc:	b1 2c       	mov	r11, r1
    39be:	f0 2d       	mov	r31, r0
    39c0:	21 2c       	mov	r2, r1
    39c2:	31 2c       	mov	r3, r1
    39c4:	c3 01       	movw	r24, r6
    39c6:	3b a1       	ldd	r19, Y+35	; 0x23
    39c8:	83 1b       	sub	r24, r19
    39ca:	91 09       	sbc	r25, r1
    39cc:	ac 01       	movw	r20, r24
    39ce:	4f 5f       	subi	r20, 0xFF	; 255
    39d0:	5f 4f       	sbci	r21, 0xFF	; 255
    39d2:	5a 8f       	std	Y+26, r21	; 0x1a
    39d4:	49 8f       	std	Y+25, r20	; 0x19
    39d6:	b8 8b       	std	Y+16, r27	; 0x10
    39d8:	af 87       	std	Y+15, r26	; 0x0f
    39da:	13 2f       	mov	r17, r19
    39dc:	cb 84       	ldd	r12, Y+11	; 0x0b
    39de:	dc 84       	ldd	r13, Y+12	; 0x0c
    39e0:	ed 84       	ldd	r14, Y+13	; 0x0d
    39e2:	fe 84       	ldd	r15, Y+14	; 0x0e
    39e4:	01 2f       	mov	r16, r17
    39e6:	b4 01       	movw	r22, r8
    39e8:	8f 85       	ldd	r24, Y+15	; 0x0f
    39ea:	98 89       	ldd	r25, Y+16	; 0x10
    39ec:	68 1b       	sub	r22, r24
    39ee:	79 0b       	sbc	r23, r25
    39f0:	9b 01       	movw	r18, r22
    39f2:	a9 8d       	ldd	r26, Y+25	; 0x19
    39f4:	ba 8d       	ldd	r27, Y+26	; 0x1a
    39f6:	a2 0d       	add	r26, r2
    39f8:	b3 1d       	adc	r27, r3
    39fa:	ba 83       	std	Y+2, r27	; 0x02
    39fc:	a9 83       	std	Y+1, r26	; 0x01
    39fe:	ad 01       	movw	r20, r26
    3a00:	c3 01       	movw	r24, r6
    3a02:	82 19       	sub	r24, r2
    3a04:	93 09       	sbc	r25, r3
    3a06:	9e 83       	std	Y+6, r25	; 0x06
    3a08:	8d 83       	std	Y+5, r24	; 0x05
    3a0a:	0e de       	rcall	.-996    	; 0x3628 <LCD_Line>
    3a0c:	cb 84       	ldd	r12, Y+11	; 0x0b
    3a0e:	dc 84       	ldd	r13, Y+12	; 0x0c
    3a10:	ed 84       	ldd	r14, Y+13	; 0x0d
    3a12:	fe 84       	ldd	r15, Y+14	; 0x0e
    3a14:	6f 85       	ldd	r22, Y+15	; 0x0f
    3a16:	78 89       	ldd	r23, Y+16	; 0x10
    3a18:	68 0d       	add	r22, r8
    3a1a:	79 1d       	adc	r23, r9
    3a1c:	9b 01       	movw	r18, r22
    3a1e:	49 81       	ldd	r20, Y+1	; 0x01
    3a20:	5a 81       	ldd	r21, Y+2	; 0x02
    3a22:	8d 81       	ldd	r24, Y+5	; 0x05
    3a24:	9e 81       	ldd	r25, Y+6	; 0x06
    3a26:	00 de       	rcall	.-1024   	; 0x3628 <LCD_Line>
    3a28:	2f 81       	ldd	r18, Y+7	; 0x07
    3a2a:	38 85       	ldd	r19, Y+8	; 0x08
    3a2c:	49 85       	ldd	r20, Y+9	; 0x09
    3a2e:	5a 85       	ldd	r21, Y+10	; 0x0a
    3a30:	55 23       	and	r21, r21
    3a32:	f4 f0       	brlt	.+60     	; 0x3a70 <LCD_Ellipse+0x1da>
    3a34:	a1 e0       	ldi	r26, 0x01	; 1
    3a36:	b0 e0       	ldi	r27, 0x00	; 0
    3a38:	4f 85       	ldd	r20, Y+15	; 0x0f
    3a3a:	58 89       	ldd	r21, Y+16	; 0x10
    3a3c:	a4 1b       	sub	r26, r20
    3a3e:	b5 0b       	sbc	r27, r21
    3a40:	2b 8d       	ldd	r18, Y+27	; 0x1b
    3a42:	3c 8d       	ldd	r19, Y+28	; 0x1c
    3a44:	4d 8d       	ldd	r20, Y+29	; 0x1d
    3a46:	5e 8d       	ldd	r21, Y+30	; 0x1e
    3a48:	0e 94 db 2a 	call	0x55b6	; 0x55b6 <__mulshisi3>
    3a4c:	2f 81       	ldd	r18, Y+7	; 0x07
    3a4e:	38 85       	ldd	r19, Y+8	; 0x08
    3a50:	49 85       	ldd	r20, Y+9	; 0x09
    3a52:	5a 85       	ldd	r21, Y+10	; 0x0a
    3a54:	26 0f       	add	r18, r22
    3a56:	37 1f       	adc	r19, r23
    3a58:	48 1f       	adc	r20, r24
    3a5a:	59 1f       	adc	r21, r25
    3a5c:	2f 83       	std	Y+7, r18	; 0x07
    3a5e:	38 87       	std	Y+8, r19	; 0x08
    3a60:	49 87       	std	Y+9, r20	; 0x09
    3a62:	5a 87       	std	Y+10, r21	; 0x0a
    3a64:	4f 85       	ldd	r20, Y+15	; 0x0f
    3a66:	58 89       	ldd	r21, Y+16	; 0x10
    3a68:	41 50       	subi	r20, 0x01	; 1
    3a6a:	51 09       	sbc	r21, r1
    3a6c:	58 8b       	std	Y+16, r21	; 0x10
    3a6e:	4f 87       	std	Y+15, r20	; 0x0f
    3a70:	d5 01       	movw	r26, r10
    3a72:	2d 89       	ldd	r18, Y+21	; 0x15
    3a74:	3e 89       	ldd	r19, Y+22	; 0x16
    3a76:	4f 89       	ldd	r20, Y+23	; 0x17
    3a78:	58 8d       	ldd	r21, Y+24	; 0x18
    3a7a:	0e 94 db 2a 	call	0x55b6	; 0x55b6 <__mulshisi3>
    3a7e:	2f 81       	ldd	r18, Y+7	; 0x07
    3a80:	38 85       	ldd	r19, Y+8	; 0x08
    3a82:	49 85       	ldd	r20, Y+9	; 0x09
    3a84:	5a 85       	ldd	r21, Y+10	; 0x0a
    3a86:	26 0f       	add	r18, r22
    3a88:	37 1f       	adc	r19, r23
    3a8a:	48 1f       	adc	r20, r24
    3a8c:	59 1f       	adc	r21, r25
    3a8e:	2f 83       	std	Y+7, r18	; 0x07
    3a90:	38 87       	std	Y+8, r19	; 0x08
    3a92:	49 87       	std	Y+9, r20	; 0x09
    3a94:	5a 87       	std	Y+10, r21	; 0x0a
    3a96:	3f ef       	ldi	r19, 0xFF	; 255
    3a98:	23 1a       	sub	r2, r19
    3a9a:	33 0a       	sbc	r3, r19
    3a9c:	44 e0       	ldi	r20, 0x04	; 4
    3a9e:	a4 0e       	add	r10, r20
    3aa0:	b1 1c       	adc	r11, r1
    3aa2:	d1 01       	movw	r26, r2
    3aa4:	2d 89       	ldd	r18, Y+21	; 0x15
    3aa6:	3e 89       	ldd	r19, Y+22	; 0x16
    3aa8:	4f 89       	ldd	r20, Y+23	; 0x17
    3aaa:	58 8d       	ldd	r21, Y+24	; 0x18
    3aac:	0e 94 db 2a 	call	0x55b6	; 0x55b6 <__mulshisi3>
    3ab0:	6b 01       	movw	r12, r22
    3ab2:	7c 01       	movw	r14, r24
    3ab4:	af 85       	ldd	r26, Y+15	; 0x0f
    3ab6:	b8 89       	ldd	r27, Y+16	; 0x10
    3ab8:	29 89       	ldd	r18, Y+17	; 0x11
    3aba:	3a 89       	ldd	r19, Y+18	; 0x12
    3abc:	4b 89       	ldd	r20, Y+19	; 0x13
    3abe:	5c 89       	ldd	r21, Y+20	; 0x14
    3ac0:	0e 94 db 2a 	call	0x55b6	; 0x55b6 <__mulshisi3>
    3ac4:	6c 15       	cp	r22, r12
    3ac6:	7d 05       	cpc	r23, r13
    3ac8:	8e 05       	cpc	r24, r14
    3aca:	9f 05       	cpc	r25, r15
    3acc:	0c f0       	brlt	.+2      	; 0x3ad0 <LCD_Ellipse+0x23a>
    3ace:	86 cf       	rjmp	.-244    	; 0x39dc <LCD_Ellipse+0x146>
    3ad0:	c2 01       	movw	r24, r4
    3ad2:	88 0f       	add	r24, r24
    3ad4:	99 1f       	adc	r25, r25
    3ad6:	a1 e0       	ldi	r26, 0x01	; 1
    3ad8:	b0 e0       	ldi	r27, 0x00	; 0
    3ada:	a8 1b       	sub	r26, r24
    3adc:	b9 0b       	sbc	r27, r25
    3ade:	2d 89       	ldd	r18, Y+21	; 0x15
    3ae0:	3e 89       	ldd	r19, Y+22	; 0x16
    3ae2:	4f 89       	ldd	r20, Y+23	; 0x17
    3ae4:	58 8d       	ldd	r21, Y+24	; 0x18
    3ae6:	0e 94 db 2a 	call	0x55b6	; 0x55b6 <__mulshisi3>
    3aea:	c9 88       	ldd	r12, Y+17	; 0x11
    3aec:	da 88       	ldd	r13, Y+18	; 0x12
    3aee:	eb 88       	ldd	r14, Y+19	; 0x13
    3af0:	fc 88       	ldd	r15, Y+20	; 0x14
    3af2:	cc 0c       	add	r12, r12
    3af4:	dd 1c       	adc	r13, r13
    3af6:	ee 1c       	adc	r14, r14
    3af8:	ff 1c       	adc	r15, r15
    3afa:	9b 01       	movw	r18, r22
    3afc:	ac 01       	movw	r20, r24
    3afe:	2c 0d       	add	r18, r12
    3b00:	3d 1d       	adc	r19, r13
    3b02:	4e 1d       	adc	r20, r14
    3b04:	5f 1d       	adc	r21, r15
    3b06:	29 83       	std	Y+1, r18	; 0x01
    3b08:	3a 83       	std	Y+2, r19	; 0x02
    3b0a:	4b 83       	std	Y+3, r20	; 0x03
    3b0c:	5c 83       	std	Y+4, r21	; 0x04
    3b0e:	d2 01       	movw	r26, r4
    3b10:	2d 89       	ldd	r18, Y+21	; 0x15
    3b12:	3e 89       	ldd	r19, Y+22	; 0x16
    3b14:	4f 89       	ldd	r20, Y+23	; 0x17
    3b16:	58 8d       	ldd	r21, Y+24	; 0x18
    3b18:	0e 94 db 2a 	call	0x55b6	; 0x55b6 <__mulshisi3>
    3b1c:	99 23       	and	r25, r25
    3b1e:	0c f4       	brge	.+2      	; 0x3b22 <LCD_Ellipse+0x28c>
    3b20:	f5 c1       	rjmp	.+1002   	; 0x3f0c <LCD_Ellipse+0x676>
    3b22:	0f 2e       	mov	r0, r31
    3b24:	f6 e0       	ldi	r31, 0x06	; 6
    3b26:	af 2e       	mov	r10, r31
    3b28:	b1 2c       	mov	r11, r1
    3b2a:	f0 2d       	mov	r31, r0
    3b2c:	21 2c       	mov	r2, r1
    3b2e:	31 2c       	mov	r3, r1
    3b30:	5b a1       	ldd	r21, Y+35	; 0x23
    3b32:	45 2f       	mov	r20, r21
    3b34:	50 e0       	ldi	r21, 0x00	; 0
    3b36:	58 8b       	std	Y+16, r21	; 0x10
    3b38:	4f 87       	std	Y+15, r20	; 0x0f
    3b3a:	1b a1       	ldd	r17, Y+35	; 0x23
    3b3c:	c3 01       	movw	r24, r6
    3b3e:	84 0d       	add	r24, r4
    3b40:	95 1d       	adc	r25, r5
    3b42:	01 96       	adiw	r24, 0x01	; 1
    3b44:	bc 01       	movw	r22, r24
    3b46:	af 85       	ldd	r26, Y+15	; 0x0f
    3b48:	b8 89       	ldd	r27, Y+16	; 0x10
    3b4a:	6a 1b       	sub	r22, r26
    3b4c:	7b 0b       	sbc	r23, r27
    3b4e:	78 87       	std	Y+8, r23	; 0x08
    3b50:	6f 83       	std	Y+7, r22	; 0x07
    3b52:	cb 84       	ldd	r12, Y+11	; 0x0b
    3b54:	dc 84       	ldd	r13, Y+12	; 0x0c
    3b56:	ed 84       	ldd	r14, Y+13	; 0x0d
    3b58:	fe 84       	ldd	r15, Y+14	; 0x0e
    3b5a:	01 2f       	mov	r16, r17
    3b5c:	b4 01       	movw	r22, r8
    3b5e:	62 19       	sub	r22, r2
    3b60:	73 09       	sbc	r23, r3
    3b62:	9b 01       	movw	r18, r22
    3b64:	4f 81       	ldd	r20, Y+7	; 0x07
    3b66:	58 85       	ldd	r21, Y+8	; 0x08
    3b68:	c3 01       	movw	r24, r6
    3b6a:	84 19       	sub	r24, r4
    3b6c:	95 09       	sbc	r25, r5
    3b6e:	9e 83       	std	Y+6, r25	; 0x06
    3b70:	8d 83       	std	Y+5, r24	; 0x05
    3b72:	5a dd       	rcall	.-1356   	; 0x3628 <LCD_Line>
    3b74:	cb 84       	ldd	r12, Y+11	; 0x0b
    3b76:	dc 84       	ldd	r13, Y+12	; 0x0c
    3b78:	ed 84       	ldd	r14, Y+13	; 0x0d
    3b7a:	fe 84       	ldd	r15, Y+14	; 0x0e
    3b7c:	b4 01       	movw	r22, r8
    3b7e:	62 0d       	add	r22, r2
    3b80:	73 1d       	adc	r23, r3
    3b82:	9b 01       	movw	r18, r22
    3b84:	4f 81       	ldd	r20, Y+7	; 0x07
    3b86:	58 85       	ldd	r21, Y+8	; 0x08
    3b88:	8d 81       	ldd	r24, Y+5	; 0x05
    3b8a:	9e 81       	ldd	r25, Y+6	; 0x06
    3b8c:	4d dd       	rcall	.-1382   	; 0x3628 <LCD_Line>
    3b8e:	29 81       	ldd	r18, Y+1	; 0x01
    3b90:	3a 81       	ldd	r19, Y+2	; 0x02
    3b92:	4b 81       	ldd	r20, Y+3	; 0x03
    3b94:	5c 81       	ldd	r21, Y+4	; 0x04
    3b96:	55 23       	and	r21, r21
    3b98:	cc f0       	brlt	.+50     	; 0x3bcc <LCD_Ellipse+0x336>
    3b9a:	a1 e0       	ldi	r26, 0x01	; 1
    3b9c:	b0 e0       	ldi	r27, 0x00	; 0
    3b9e:	a4 19       	sub	r26, r4
    3ba0:	b5 09       	sbc	r27, r5
    3ba2:	2f 8d       	ldd	r18, Y+31	; 0x1f
    3ba4:	38 a1       	ldd	r19, Y+32	; 0x20
    3ba6:	49 a1       	ldd	r20, Y+33	; 0x21
    3ba8:	5a a1       	ldd	r21, Y+34	; 0x22
    3baa:	0e 94 db 2a 	call	0x55b6	; 0x55b6 <__mulshisi3>
    3bae:	29 81       	ldd	r18, Y+1	; 0x01
    3bb0:	3a 81       	ldd	r19, Y+2	; 0x02
    3bb2:	4b 81       	ldd	r20, Y+3	; 0x03
    3bb4:	5c 81       	ldd	r21, Y+4	; 0x04
    3bb6:	26 0f       	add	r18, r22
    3bb8:	37 1f       	adc	r19, r23
    3bba:	48 1f       	adc	r20, r24
    3bbc:	59 1f       	adc	r21, r25
    3bbe:	29 83       	std	Y+1, r18	; 0x01
    3bc0:	3a 83       	std	Y+2, r19	; 0x02
    3bc2:	4b 83       	std	Y+3, r20	; 0x03
    3bc4:	5c 83       	std	Y+4, r21	; 0x04
    3bc6:	31 e0       	ldi	r19, 0x01	; 1
    3bc8:	43 1a       	sub	r4, r19
    3bca:	51 08       	sbc	r5, r1
    3bcc:	d5 01       	movw	r26, r10
    3bce:	29 89       	ldd	r18, Y+17	; 0x11
    3bd0:	3a 89       	ldd	r19, Y+18	; 0x12
    3bd2:	4b 89       	ldd	r20, Y+19	; 0x13
    3bd4:	5c 89       	ldd	r21, Y+20	; 0x14
    3bd6:	0e 94 db 2a 	call	0x55b6	; 0x55b6 <__mulshisi3>
    3bda:	29 81       	ldd	r18, Y+1	; 0x01
    3bdc:	3a 81       	ldd	r19, Y+2	; 0x02
    3bde:	4b 81       	ldd	r20, Y+3	; 0x03
    3be0:	5c 81       	ldd	r21, Y+4	; 0x04
    3be2:	26 0f       	add	r18, r22
    3be4:	37 1f       	adc	r19, r23
    3be6:	48 1f       	adc	r20, r24
    3be8:	59 1f       	adc	r21, r25
    3bea:	29 83       	std	Y+1, r18	; 0x01
    3bec:	3a 83       	std	Y+2, r19	; 0x02
    3bee:	4b 83       	std	Y+3, r20	; 0x03
    3bf0:	5c 83       	std	Y+4, r21	; 0x04
    3bf2:	3f ef       	ldi	r19, 0xFF	; 255
    3bf4:	23 1a       	sub	r2, r19
    3bf6:	33 0a       	sbc	r3, r19
    3bf8:	44 e0       	ldi	r20, 0x04	; 4
    3bfa:	a4 0e       	add	r10, r20
    3bfc:	b1 1c       	adc	r11, r1
    3bfe:	d1 01       	movw	r26, r2
    3c00:	29 89       	ldd	r18, Y+17	; 0x11
    3c02:	3a 89       	ldd	r19, Y+18	; 0x12
    3c04:	4b 89       	ldd	r20, Y+19	; 0x13
    3c06:	5c 89       	ldd	r21, Y+20	; 0x14
    3c08:	0e 94 db 2a 	call	0x55b6	; 0x55b6 <__mulshisi3>
    3c0c:	6b 01       	movw	r12, r22
    3c0e:	7c 01       	movw	r14, r24
    3c10:	d2 01       	movw	r26, r4
    3c12:	2d 89       	ldd	r18, Y+21	; 0x15
    3c14:	3e 89       	ldd	r19, Y+22	; 0x16
    3c16:	4f 89       	ldd	r20, Y+23	; 0x17
    3c18:	58 8d       	ldd	r21, Y+24	; 0x18
    3c1a:	0e 94 db 2a 	call	0x55b6	; 0x55b6 <__mulshisi3>
    3c1e:	6c 15       	cp	r22, r12
    3c20:	7d 05       	cpc	r23, r13
    3c22:	8e 05       	cpc	r24, r14
    3c24:	9f 05       	cpc	r25, r15
    3c26:	0c f0       	brlt	.+2      	; 0x3c2a <LCD_Ellipse+0x394>
    3c28:	89 cf       	rjmp	.-238    	; 0x3b3c <LCD_Ellipse+0x2a6>
    3c2a:	70 c1       	rjmp	.+736    	; 0x3f0c <LCD_Ellipse+0x676>
    3c2c:	89 81       	ldd	r24, Y+1	; 0x01
    3c2e:	9a 81       	ldd	r25, Y+2	; 0x02
    3c30:	88 0f       	add	r24, r24
    3c32:	99 1f       	adc	r25, r25
    3c34:	a1 e0       	ldi	r26, 0x01	; 1
    3c36:	b0 e0       	ldi	r27, 0x00	; 0
    3c38:	a8 1b       	sub	r26, r24
    3c3a:	b9 0b       	sbc	r27, r25
    3c3c:	29 89       	ldd	r18, Y+17	; 0x11
    3c3e:	3a 89       	ldd	r19, Y+18	; 0x12
    3c40:	4b 89       	ldd	r20, Y+19	; 0x13
    3c42:	5c 89       	ldd	r21, Y+20	; 0x14
    3c44:	0e 94 db 2a 	call	0x55b6	; 0x55b6 <__mulshisi3>
    3c48:	cd 88       	ldd	r12, Y+21	; 0x15
    3c4a:	de 88       	ldd	r13, Y+22	; 0x16
    3c4c:	ef 88       	ldd	r14, Y+23	; 0x17
    3c4e:	f8 8c       	ldd	r15, Y+24	; 0x18
    3c50:	cc 0c       	add	r12, r12
    3c52:	dd 1c       	adc	r13, r13
    3c54:	ee 1c       	adc	r14, r14
    3c56:	ff 1c       	adc	r15, r15
    3c58:	56 01       	movw	r10, r12
    3c5a:	67 01       	movw	r12, r14
    3c5c:	a6 0e       	add	r10, r22
    3c5e:	b7 1e       	adc	r11, r23
    3c60:	c8 1e       	adc	r12, r24
    3c62:	d9 1e       	adc	r13, r25
    3c64:	a9 81       	ldd	r26, Y+1	; 0x01
    3c66:	ba 81       	ldd	r27, Y+2	; 0x02
    3c68:	0e 94 db 2a 	call	0x55b6	; 0x55b6 <__mulshisi3>
    3c6c:	99 23       	and	r25, r25
    3c6e:	0c f4       	brge	.+2      	; 0x3c72 <LCD_Ellipse+0x3dc>
    3c70:	91 c0       	rjmp	.+290    	; 0x3d94 <LCD_Ellipse+0x4fe>
    3c72:	66 e0       	ldi	r22, 0x06	; 6
    3c74:	70 e0       	ldi	r23, 0x00	; 0
    3c76:	7a 8f       	std	Y+26, r23	; 0x1a
    3c78:	69 8f       	std	Y+25, r22	; 0x19
    3c7a:	21 2c       	mov	r2, r1
    3c7c:	31 2c       	mov	r3, r1
    3c7e:	9b a1       	ldd	r25, Y+35	; 0x23
    3c80:	89 2f       	mov	r24, r25
    3c82:	90 e0       	ldi	r25, 0x00	; 0
    3c84:	9e 83       	std	Y+6, r25	; 0x06
    3c86:	8d 83       	std	Y+5, r24	; 0x05
    3c88:	bd a3       	std	Y+37, r27	; 0x25
    3c8a:	ac a3       	std	Y+36, r26	; 0x24
    3c8c:	eb 84       	ldd	r14, Y+11	; 0x0b
    3c8e:	fc 84       	ldd	r15, Y+12	; 0x0c
    3c90:	0d 85       	ldd	r16, Y+13	; 0x0d
    3c92:	1e 85       	ldd	r17, Y+14	; 0x0e
    3c94:	2d 81       	ldd	r18, Y+5	; 0x05
    3c96:	3e 81       	ldd	r19, Y+6	; 0x06
    3c98:	a9 01       	movw	r20, r18
    3c9a:	ac a1       	ldd	r26, Y+36	; 0x24
    3c9c:	bd a1       	ldd	r27, Y+37	; 0x25
    3c9e:	a8 0d       	add	r26, r8
    3ca0:	b9 1d       	adc	r27, r9
    3ca2:	ba 83       	std	Y+2, r27	; 0x02
    3ca4:	a9 83       	std	Y+1, r26	; 0x01
    3ca6:	bd 01       	movw	r22, r26
    3ca8:	c1 01       	movw	r24, r2
    3caa:	86 0d       	add	r24, r6
    3cac:	97 1d       	adc	r25, r7
    3cae:	98 87       	std	Y+8, r25	; 0x08
    3cb0:	8f 83       	std	Y+7, r24	; 0x07
    3cb2:	d5 db       	rcall	.-2134   	; 0x345e <LCD_Rect_Fill>
    3cb4:	eb 84       	ldd	r14, Y+11	; 0x0b
    3cb6:	fc 84       	ldd	r15, Y+12	; 0x0c
    3cb8:	0d 85       	ldd	r16, Y+13	; 0x0d
    3cba:	1e 85       	ldd	r17, Y+14	; 0x0e
    3cbc:	2d 81       	ldd	r18, Y+5	; 0x05
    3cbe:	3e 81       	ldd	r19, Y+6	; 0x06
    3cc0:	a9 01       	movw	r20, r18
    3cc2:	69 81       	ldd	r22, Y+1	; 0x01
    3cc4:	7a 81       	ldd	r23, Y+2	; 0x02
    3cc6:	d3 01       	movw	r26, r6
    3cc8:	a2 19       	sub	r26, r2
    3cca:	b3 09       	sbc	r27, r3
    3ccc:	b8 8b       	std	Y+16, r27	; 0x10
    3cce:	af 87       	std	Y+15, r26	; 0x0f
    3cd0:	cd 01       	movw	r24, r26
    3cd2:	c5 db       	rcall	.-2166   	; 0x345e <LCD_Rect_Fill>
    3cd4:	eb 84       	ldd	r14, Y+11	; 0x0b
    3cd6:	fc 84       	ldd	r15, Y+12	; 0x0c
    3cd8:	0d 85       	ldd	r16, Y+13	; 0x0d
    3cda:	1e 85       	ldd	r17, Y+14	; 0x0e
    3cdc:	2d 81       	ldd	r18, Y+5	; 0x05
    3cde:	3e 81       	ldd	r19, Y+6	; 0x06
    3ce0:	a9 01       	movw	r20, r18
    3ce2:	b4 01       	movw	r22, r8
    3ce4:	8c a1       	ldd	r24, Y+36	; 0x24
    3ce6:	9d a1       	ldd	r25, Y+37	; 0x25
    3ce8:	68 1b       	sub	r22, r24
    3cea:	79 0b       	sbc	r23, r25
    3cec:	7a 83       	std	Y+2, r23	; 0x02
    3cee:	69 83       	std	Y+1, r22	; 0x01
    3cf0:	8f 81       	ldd	r24, Y+7	; 0x07
    3cf2:	98 85       	ldd	r25, Y+8	; 0x08
    3cf4:	b4 db       	rcall	.-2200   	; 0x345e <LCD_Rect_Fill>
    3cf6:	eb 84       	ldd	r14, Y+11	; 0x0b
    3cf8:	fc 84       	ldd	r15, Y+12	; 0x0c
    3cfa:	0d 85       	ldd	r16, Y+13	; 0x0d
    3cfc:	1e 85       	ldd	r17, Y+14	; 0x0e
    3cfe:	2d 81       	ldd	r18, Y+5	; 0x05
    3d00:	3e 81       	ldd	r19, Y+6	; 0x06
    3d02:	a9 01       	movw	r20, r18
    3d04:	69 81       	ldd	r22, Y+1	; 0x01
    3d06:	7a 81       	ldd	r23, Y+2	; 0x02
    3d08:	8f 85       	ldd	r24, Y+15	; 0x0f
    3d0a:	98 89       	ldd	r25, Y+16	; 0x10
    3d0c:	a8 db       	rcall	.-2224   	; 0x345e <LCD_Rect_Fill>
    3d0e:	dd 20       	and	r13, r13
    3d10:	b4 f0       	brlt	.+44     	; 0x3d3e <LCD_Ellipse+0x4a8>
    3d12:	a1 e0       	ldi	r26, 0x01	; 1
    3d14:	b0 e0       	ldi	r27, 0x00	; 0
    3d16:	2c a1       	ldd	r18, Y+36	; 0x24
    3d18:	3d a1       	ldd	r19, Y+37	; 0x25
    3d1a:	a2 1b       	sub	r26, r18
    3d1c:	b3 0b       	sbc	r27, r19
    3d1e:	2b 8d       	ldd	r18, Y+27	; 0x1b
    3d20:	3c 8d       	ldd	r19, Y+28	; 0x1c
    3d22:	4d 8d       	ldd	r20, Y+29	; 0x1d
    3d24:	5e 8d       	ldd	r21, Y+30	; 0x1e
    3d26:	0e 94 db 2a 	call	0x55b6	; 0x55b6 <__mulshisi3>
    3d2a:	a6 0e       	add	r10, r22
    3d2c:	b7 1e       	adc	r11, r23
    3d2e:	c8 1e       	adc	r12, r24
    3d30:	d9 1e       	adc	r13, r25
    3d32:	4c a1       	ldd	r20, Y+36	; 0x24
    3d34:	5d a1       	ldd	r21, Y+37	; 0x25
    3d36:	41 50       	subi	r20, 0x01	; 1
    3d38:	51 09       	sbc	r21, r1
    3d3a:	5d a3       	std	Y+37, r21	; 0x25
    3d3c:	4c a3       	std	Y+36, r20	; 0x24
    3d3e:	a9 8d       	ldd	r26, Y+25	; 0x19
    3d40:	ba 8d       	ldd	r27, Y+26	; 0x1a
    3d42:	2d 89       	ldd	r18, Y+21	; 0x15
    3d44:	3e 89       	ldd	r19, Y+22	; 0x16
    3d46:	4f 89       	ldd	r20, Y+23	; 0x17
    3d48:	58 8d       	ldd	r21, Y+24	; 0x18
    3d4a:	0e 94 db 2a 	call	0x55b6	; 0x55b6 <__mulshisi3>
    3d4e:	a6 0e       	add	r10, r22
    3d50:	b7 1e       	adc	r11, r23
    3d52:	c8 1e       	adc	r12, r24
    3d54:	d9 1e       	adc	r13, r25
    3d56:	5f ef       	ldi	r21, 0xFF	; 255
    3d58:	25 1a       	sub	r2, r21
    3d5a:	35 0a       	sbc	r3, r21
    3d5c:	bd 01       	movw	r22, r26
    3d5e:	6c 5f       	subi	r22, 0xFC	; 252
    3d60:	7f 4f       	sbci	r23, 0xFF	; 255
    3d62:	7a 8f       	std	Y+26, r23	; 0x1a
    3d64:	69 8f       	std	Y+25, r22	; 0x19
    3d66:	d1 01       	movw	r26, r2
    3d68:	2d 89       	ldd	r18, Y+21	; 0x15
    3d6a:	3e 89       	ldd	r19, Y+22	; 0x16
    3d6c:	4f 89       	ldd	r20, Y+23	; 0x17
    3d6e:	58 8d       	ldd	r21, Y+24	; 0x18
    3d70:	0e 94 db 2a 	call	0x55b6	; 0x55b6 <__mulshisi3>
    3d74:	7b 01       	movw	r14, r22
    3d76:	8c 01       	movw	r16, r24
    3d78:	ac a1       	ldd	r26, Y+36	; 0x24
    3d7a:	bd a1       	ldd	r27, Y+37	; 0x25
    3d7c:	29 89       	ldd	r18, Y+17	; 0x11
    3d7e:	3a 89       	ldd	r19, Y+18	; 0x12
    3d80:	4b 89       	ldd	r20, Y+19	; 0x13
    3d82:	5c 89       	ldd	r21, Y+20	; 0x14
    3d84:	0e 94 db 2a 	call	0x55b6	; 0x55b6 <__mulshisi3>
    3d88:	6e 15       	cp	r22, r14
    3d8a:	7f 05       	cpc	r23, r15
    3d8c:	80 07       	cpc	r24, r16
    3d8e:	91 07       	cpc	r25, r17
    3d90:	0c f0       	brlt	.+2      	; 0x3d94 <LCD_Ellipse+0x4fe>
    3d92:	7c cf       	rjmp	.-264    	; 0x3c8c <LCD_Ellipse+0x3f6>
    3d94:	c2 01       	movw	r24, r4
    3d96:	88 0f       	add	r24, r24
    3d98:	99 1f       	adc	r25, r25
    3d9a:	a1 e0       	ldi	r26, 0x01	; 1
    3d9c:	b0 e0       	ldi	r27, 0x00	; 0
    3d9e:	a8 1b       	sub	r26, r24
    3da0:	b9 0b       	sbc	r27, r25
    3da2:	2d 89       	ldd	r18, Y+21	; 0x15
    3da4:	3e 89       	ldd	r19, Y+22	; 0x16
    3da6:	4f 89       	ldd	r20, Y+23	; 0x17
    3da8:	58 8d       	ldd	r21, Y+24	; 0x18
    3daa:	0e 94 db 2a 	call	0x55b6	; 0x55b6 <__mulshisi3>
    3dae:	c9 88       	ldd	r12, Y+17	; 0x11
    3db0:	da 88       	ldd	r13, Y+18	; 0x12
    3db2:	eb 88       	ldd	r14, Y+19	; 0x13
    3db4:	fc 88       	ldd	r15, Y+20	; 0x14
    3db6:	cc 0c       	add	r12, r12
    3db8:	dd 1c       	adc	r13, r13
    3dba:	ee 1c       	adc	r14, r14
    3dbc:	ff 1c       	adc	r15, r15
    3dbe:	9b 01       	movw	r18, r22
    3dc0:	ac 01       	movw	r20, r24
    3dc2:	2c 0d       	add	r18, r12
    3dc4:	3d 1d       	adc	r19, r13
    3dc6:	4e 1d       	adc	r20, r14
    3dc8:	5f 1d       	adc	r21, r15
    3dca:	2f 83       	std	Y+7, r18	; 0x07
    3dcc:	38 87       	std	Y+8, r19	; 0x08
    3dce:	49 87       	std	Y+9, r20	; 0x09
    3dd0:	5a 87       	std	Y+10, r21	; 0x0a
    3dd2:	d2 01       	movw	r26, r4
    3dd4:	2d 89       	ldd	r18, Y+21	; 0x15
    3dd6:	3e 89       	ldd	r19, Y+22	; 0x16
    3dd8:	4f 89       	ldd	r20, Y+23	; 0x17
    3dda:	58 8d       	ldd	r21, Y+24	; 0x18
    3ddc:	0e 94 db 2a 	call	0x55b6	; 0x55b6 <__mulshisi3>
    3de0:	99 23       	and	r25, r25
    3de2:	0c f4       	brge	.+2      	; 0x3de6 <LCD_Ellipse+0x550>
    3de4:	93 c0       	rjmp	.+294    	; 0x3f0c <LCD_Ellipse+0x676>
    3de6:	0f 2e       	mov	r0, r31
    3de8:	f6 e0       	ldi	r31, 0x06	; 6
    3dea:	af 2e       	mov	r10, r31
    3dec:	b1 2c       	mov	r11, r1
    3dee:	f0 2d       	mov	r31, r0
    3df0:	21 2c       	mov	r2, r1
    3df2:	31 2c       	mov	r3, r1
    3df4:	5b a1       	ldd	r21, Y+35	; 0x23
    3df6:	45 2f       	mov	r20, r21
    3df8:	50 e0       	ldi	r21, 0x00	; 0
    3dfa:	58 8b       	std	Y+16, r21	; 0x10
    3dfc:	4f 87       	std	Y+15, r20	; 0x0f
    3dfe:	eb 84       	ldd	r14, Y+11	; 0x0b
    3e00:	fc 84       	ldd	r15, Y+12	; 0x0c
    3e02:	0d 85       	ldd	r16, Y+13	; 0x0d
    3e04:	1e 85       	ldd	r17, Y+14	; 0x0e
    3e06:	2f 85       	ldd	r18, Y+15	; 0x0f
    3e08:	38 89       	ldd	r19, Y+16	; 0x10
    3e0a:	a9 01       	movw	r20, r18
    3e0c:	61 01       	movw	r12, r2
    3e0e:	c8 0c       	add	r12, r8
    3e10:	d9 1c       	adc	r13, r9
    3e12:	b6 01       	movw	r22, r12
    3e14:	c3 01       	movw	r24, r6
    3e16:	84 0d       	add	r24, r4
    3e18:	95 1d       	adc	r25, r5
    3e1a:	9e 83       	std	Y+6, r25	; 0x06
    3e1c:	8d 83       	std	Y+5, r24	; 0x05
    3e1e:	1f db       	rcall	.-2498   	; 0x345e <LCD_Rect_Fill>
    3e20:	eb 84       	ldd	r14, Y+11	; 0x0b
    3e22:	fc 84       	ldd	r15, Y+12	; 0x0c
    3e24:	0d 85       	ldd	r16, Y+13	; 0x0d
    3e26:	1e 85       	ldd	r17, Y+14	; 0x0e
    3e28:	2f 85       	ldd	r18, Y+15	; 0x0f
    3e2a:	38 89       	ldd	r19, Y+16	; 0x10
    3e2c:	a9 01       	movw	r20, r18
    3e2e:	b6 01       	movw	r22, r12
    3e30:	d3 01       	movw	r26, r6
    3e32:	a4 19       	sub	r26, r4
    3e34:	b5 09       	sbc	r27, r5
    3e36:	ba 83       	std	Y+2, r27	; 0x02
    3e38:	a9 83       	std	Y+1, r26	; 0x01
    3e3a:	cd 01       	movw	r24, r26
    3e3c:	10 db       	rcall	.-2528   	; 0x345e <LCD_Rect_Fill>
    3e3e:	eb 84       	ldd	r14, Y+11	; 0x0b
    3e40:	fc 84       	ldd	r15, Y+12	; 0x0c
    3e42:	0d 85       	ldd	r16, Y+13	; 0x0d
    3e44:	1e 85       	ldd	r17, Y+14	; 0x0e
    3e46:	2f 85       	ldd	r18, Y+15	; 0x0f
    3e48:	38 89       	ldd	r19, Y+16	; 0x10
    3e4a:	a9 01       	movw	r20, r18
    3e4c:	64 01       	movw	r12, r8
    3e4e:	c2 18       	sub	r12, r2
    3e50:	d3 08       	sbc	r13, r3
    3e52:	b6 01       	movw	r22, r12
    3e54:	8d 81       	ldd	r24, Y+5	; 0x05
    3e56:	9e 81       	ldd	r25, Y+6	; 0x06
    3e58:	02 db       	rcall	.-2556   	; 0x345e <LCD_Rect_Fill>
    3e5a:	eb 84       	ldd	r14, Y+11	; 0x0b
    3e5c:	fc 84       	ldd	r15, Y+12	; 0x0c
    3e5e:	0d 85       	ldd	r16, Y+13	; 0x0d
    3e60:	1e 85       	ldd	r17, Y+14	; 0x0e
    3e62:	2f 85       	ldd	r18, Y+15	; 0x0f
    3e64:	38 89       	ldd	r19, Y+16	; 0x10
    3e66:	a9 01       	movw	r20, r18
    3e68:	b6 01       	movw	r22, r12
    3e6a:	89 81       	ldd	r24, Y+1	; 0x01
    3e6c:	9a 81       	ldd	r25, Y+2	; 0x02
    3e6e:	f7 da       	rcall	.-2578   	; 0x345e <LCD_Rect_Fill>
    3e70:	2f 81       	ldd	r18, Y+7	; 0x07
    3e72:	38 85       	ldd	r19, Y+8	; 0x08
    3e74:	49 85       	ldd	r20, Y+9	; 0x09
    3e76:	5a 85       	ldd	r21, Y+10	; 0x0a
    3e78:	55 23       	and	r21, r21
    3e7a:	cc f0       	brlt	.+50     	; 0x3eae <LCD_Ellipse+0x618>
    3e7c:	a1 e0       	ldi	r26, 0x01	; 1
    3e7e:	b0 e0       	ldi	r27, 0x00	; 0
    3e80:	a4 19       	sub	r26, r4
    3e82:	b5 09       	sbc	r27, r5
    3e84:	2f 8d       	ldd	r18, Y+31	; 0x1f
    3e86:	38 a1       	ldd	r19, Y+32	; 0x20
    3e88:	49 a1       	ldd	r20, Y+33	; 0x21
    3e8a:	5a a1       	ldd	r21, Y+34	; 0x22
    3e8c:	0e 94 db 2a 	call	0x55b6	; 0x55b6 <__mulshisi3>
    3e90:	2f 81       	ldd	r18, Y+7	; 0x07
    3e92:	38 85       	ldd	r19, Y+8	; 0x08
    3e94:	49 85       	ldd	r20, Y+9	; 0x09
    3e96:	5a 85       	ldd	r21, Y+10	; 0x0a
    3e98:	26 0f       	add	r18, r22
    3e9a:	37 1f       	adc	r19, r23
    3e9c:	48 1f       	adc	r20, r24
    3e9e:	59 1f       	adc	r21, r25
    3ea0:	2f 83       	std	Y+7, r18	; 0x07
    3ea2:	38 87       	std	Y+8, r19	; 0x08
    3ea4:	49 87       	std	Y+9, r20	; 0x09
    3ea6:	5a 87       	std	Y+10, r21	; 0x0a
    3ea8:	31 e0       	ldi	r19, 0x01	; 1
    3eaa:	43 1a       	sub	r4, r19
    3eac:	51 08       	sbc	r5, r1
    3eae:	d5 01       	movw	r26, r10
    3eb0:	29 89       	ldd	r18, Y+17	; 0x11
    3eb2:	3a 89       	ldd	r19, Y+18	; 0x12
    3eb4:	4b 89       	ldd	r20, Y+19	; 0x13
    3eb6:	5c 89       	ldd	r21, Y+20	; 0x14
    3eb8:	0e 94 db 2a 	call	0x55b6	; 0x55b6 <__mulshisi3>
    3ebc:	2f 81       	ldd	r18, Y+7	; 0x07
    3ebe:	38 85       	ldd	r19, Y+8	; 0x08
    3ec0:	49 85       	ldd	r20, Y+9	; 0x09
    3ec2:	5a 85       	ldd	r21, Y+10	; 0x0a
    3ec4:	26 0f       	add	r18, r22
    3ec6:	37 1f       	adc	r19, r23
    3ec8:	48 1f       	adc	r20, r24
    3eca:	59 1f       	adc	r21, r25
    3ecc:	2f 83       	std	Y+7, r18	; 0x07
    3ece:	38 87       	std	Y+8, r19	; 0x08
    3ed0:	49 87       	std	Y+9, r20	; 0x09
    3ed2:	5a 87       	std	Y+10, r21	; 0x0a
    3ed4:	3f ef       	ldi	r19, 0xFF	; 255
    3ed6:	23 1a       	sub	r2, r19
    3ed8:	33 0a       	sbc	r3, r19
    3eda:	44 e0       	ldi	r20, 0x04	; 4
    3edc:	a4 0e       	add	r10, r20
    3ede:	b1 1c       	adc	r11, r1
    3ee0:	d1 01       	movw	r26, r2
    3ee2:	29 89       	ldd	r18, Y+17	; 0x11
    3ee4:	3a 89       	ldd	r19, Y+18	; 0x12
    3ee6:	4b 89       	ldd	r20, Y+19	; 0x13
    3ee8:	5c 89       	ldd	r21, Y+20	; 0x14
    3eea:	0e 94 db 2a 	call	0x55b6	; 0x55b6 <__mulshisi3>
    3eee:	6b 01       	movw	r12, r22
    3ef0:	7c 01       	movw	r14, r24
    3ef2:	d2 01       	movw	r26, r4
    3ef4:	2d 89       	ldd	r18, Y+21	; 0x15
    3ef6:	3e 89       	ldd	r19, Y+22	; 0x16
    3ef8:	4f 89       	ldd	r20, Y+23	; 0x17
    3efa:	58 8d       	ldd	r21, Y+24	; 0x18
    3efc:	0e 94 db 2a 	call	0x55b6	; 0x55b6 <__mulshisi3>
    3f00:	6c 15       	cp	r22, r12
    3f02:	7d 05       	cpc	r23, r13
    3f04:	8e 05       	cpc	r24, r14
    3f06:	9f 05       	cpc	r25, r15
    3f08:	0c f0       	brlt	.+2      	; 0x3f0c <LCD_Ellipse+0x676>
    3f0a:	79 cf       	rjmp	.-270    	; 0x3dfe <LCD_Ellipse+0x568>
    3f0c:	a5 96       	adiw	r28, 0x25	; 37
    3f0e:	0f b6       	in	r0, 0x3f	; 63
    3f10:	f8 94       	cli
    3f12:	de bf       	out	0x3e, r29	; 62
    3f14:	0f be       	out	0x3f, r0	; 63
    3f16:	cd bf       	out	0x3d, r28	; 61
    3f18:	df 91       	pop	r29
    3f1a:	cf 91       	pop	r28
    3f1c:	1f 91       	pop	r17
    3f1e:	0f 91       	pop	r16
    3f20:	ff 90       	pop	r15
    3f22:	ef 90       	pop	r14
    3f24:	df 90       	pop	r13
    3f26:	cf 90       	pop	r12
    3f28:	bf 90       	pop	r11
    3f2a:	af 90       	pop	r10
    3f2c:	9f 90       	pop	r9
    3f2e:	8f 90       	pop	r8
    3f30:	7f 90       	pop	r7
    3f32:	6f 90       	pop	r6
    3f34:	5f 90       	pop	r5
    3f36:	4f 90       	pop	r4
    3f38:	3f 90       	pop	r3
    3f3a:	2f 90       	pop	r2
    3f3c:	08 95       	ret

00003f3e <LCD_Circle>:
    3f3e:	2f 92       	push	r2
    3f40:	3f 92       	push	r3
    3f42:	4f 92       	push	r4
    3f44:	5f 92       	push	r5
    3f46:	6f 92       	push	r6
    3f48:	7f 92       	push	r7
    3f4a:	8f 92       	push	r8
    3f4c:	9f 92       	push	r9
    3f4e:	af 92       	push	r10
    3f50:	bf 92       	push	r11
    3f52:	cf 92       	push	r12
    3f54:	df 92       	push	r13
    3f56:	ef 92       	push	r14
    3f58:	ff 92       	push	r15
    3f5a:	0f 93       	push	r16
    3f5c:	1f 93       	push	r17
    3f5e:	cf 93       	push	r28
    3f60:	df 93       	push	r29
    3f62:	cd b7       	in	r28, 0x3d	; 61
    3f64:	de b7       	in	r29, 0x3e	; 62
    3f66:	65 97       	sbiw	r28, 0x15	; 21
    3f68:	0f b6       	in	r0, 0x3f	; 63
    3f6a:	f8 94       	cli
    3f6c:	de bf       	out	0x3e, r29	; 62
    3f6e:	0f be       	out	0x3f, r0	; 63
    3f70:	cd bf       	out	0x3d, r28	; 61
    3f72:	5c 01       	movw	r10, r24
    3f74:	2b 01       	movw	r4, r22
    3f76:	2b 8b       	std	Y+19, r18	; 0x13
    3f78:	cf 82       	std	Y+7, r12	; 0x07
    3f7a:	d8 86       	std	Y+8, r13	; 0x08
    3f7c:	e9 86       	std	Y+9, r14	; 0x09
    3f7e:	fa 86       	std	Y+10, r15	; 0x0a
    3f80:	24 2e       	mov	r2, r20
    3f82:	31 2c       	mov	r3, r1
    3f84:	81 e0       	ldi	r24, 0x01	; 1
    3f86:	90 e0       	ldi	r25, 0x00	; 0
    3f88:	3c 01       	movw	r6, r24
    3f8a:	62 18       	sub	r6, r2
    3f8c:	73 08       	sbc	r7, r3
    3f8e:	21 e0       	ldi	r18, 0x01	; 1
    3f90:	30 e0       	ldi	r19, 0x00	; 0
    3f92:	38 8b       	std	Y+16, r19	; 0x10
    3f94:	2f 87       	std	Y+15, r18	; 0x0f
    3f96:	9e 87       	std	Y+14, r25	; 0x0e
    3f98:	8d 87       	std	Y+13, r24	; 0x0d
    3f9a:	c1 2c       	mov	r12, r1
    3f9c:	d1 2c       	mov	r13, r1
    3f9e:	80 2e       	mov	r8, r16
    3fa0:	91 2c       	mov	r9, r1
    3fa2:	bd 8a       	std	Y+21, r11	; 0x15
    3fa4:	ac 8a       	std	Y+20, r10	; 0x14
    3fa6:	da 8a       	std	Y+18, r13	; 0x12
    3fa8:	c9 8a       	std	Y+17, r12	; 0x11
    3faa:	9b 89       	ldd	r25, Y+19	; 0x13
    3fac:	91 30       	cpi	r25, 0x01	; 1
    3fae:	21 f5       	brne	.+72     	; 0x3ff8 <LCD_Circle+0xba>
    3fb0:	c1 01       	movw	r24, r2
    3fb2:	88 0f       	add	r24, r24
    3fb4:	99 1f       	adc	r25, r25
    3fb6:	9c 01       	movw	r18, r24
    3fb8:	2f 5f       	subi	r18, 0xFF	; 255
    3fba:	3f 4f       	sbci	r19, 0xFF	; 255
    3fbc:	3c 83       	std	Y+4, r19	; 0x04
    3fbe:	2b 83       	std	Y+3, r18	; 0x03
    3fc0:	ef 80       	ldd	r14, Y+7	; 0x07
    3fc2:	f8 84       	ldd	r15, Y+8	; 0x08
    3fc4:	09 85       	ldd	r16, Y+9	; 0x09
    3fc6:	1a 85       	ldd	r17, Y+10	; 0x0a
    3fc8:	4f 85       	ldd	r20, Y+15	; 0x0f
    3fca:	58 89       	ldd	r21, Y+16	; 0x10
    3fcc:	b2 01       	movw	r22, r4
    3fce:	62 19       	sub	r22, r2
    3fd0:	73 09       	sbc	r23, r3
    3fd2:	8c 89       	ldd	r24, Y+20	; 0x14
    3fd4:	9d 89       	ldd	r25, Y+21	; 0x15
    3fd6:	43 da       	rcall	.-2938   	; 0x345e <LCD_Rect_Fill>
    3fd8:	ef 80       	ldd	r14, Y+7	; 0x07
    3fda:	f8 84       	ldd	r15, Y+8	; 0x08
    3fdc:	09 85       	ldd	r16, Y+9	; 0x09
    3fde:	1a 85       	ldd	r17, Y+10	; 0x0a
    3fe0:	2f 85       	ldd	r18, Y+15	; 0x0f
    3fe2:	38 89       	ldd	r19, Y+16	; 0x10
    3fe4:	4b 81       	ldd	r20, Y+3	; 0x03
    3fe6:	5c 81       	ldd	r21, Y+4	; 0x04
    3fe8:	b2 01       	movw	r22, r4
    3fea:	6c 19       	sub	r22, r12
    3fec:	7d 09       	sbc	r23, r13
    3fee:	c5 01       	movw	r24, r10
    3ff0:	82 19       	sub	r24, r2
    3ff2:	93 09       	sbc	r25, r3
    3ff4:	34 da       	rcall	.-2968   	; 0x345e <LCD_Rect_Fill>
    3ff6:	71 c0       	rjmp	.+226    	; 0x40da <LCD_Circle+0x19c>
    3ff8:	ef 80       	ldd	r14, Y+7	; 0x07
    3ffa:	f8 84       	ldd	r15, Y+8	; 0x08
    3ffc:	09 85       	ldd	r16, Y+9	; 0x09
    3ffe:	1a 85       	ldd	r17, Y+10	; 0x0a
    4000:	94 01       	movw	r18, r8
    4002:	a4 01       	movw	r20, r8
    4004:	c2 01       	movw	r24, r4
    4006:	82 0d       	add	r24, r2
    4008:	93 1d       	adc	r25, r3
    400a:	9c 83       	std	Y+4, r25	; 0x04
    400c:	8b 83       	std	Y+3, r24	; 0x03
    400e:	bc 01       	movw	r22, r24
    4010:	c5 01       	movw	r24, r10
    4012:	8c 0d       	add	r24, r12
    4014:	9d 1d       	adc	r25, r13
    4016:	9c 87       	std	Y+12, r25	; 0x0c
    4018:	8b 87       	std	Y+11, r24	; 0x0b
    401a:	21 da       	rcall	.-3006   	; 0x345e <LCD_Rect_Fill>
    401c:	ef 80       	ldd	r14, Y+7	; 0x07
    401e:	f8 84       	ldd	r15, Y+8	; 0x08
    4020:	09 85       	ldd	r16, Y+9	; 0x09
    4022:	1a 85       	ldd	r17, Y+10	; 0x0a
    4024:	94 01       	movw	r18, r8
    4026:	a4 01       	movw	r20, r8
    4028:	c2 01       	movw	r24, r4
    402a:	8c 0d       	add	r24, r12
    402c:	9d 1d       	adc	r25, r13
    402e:	9e 83       	std	Y+6, r25	; 0x06
    4030:	8d 83       	std	Y+5, r24	; 0x05
    4032:	bc 01       	movw	r22, r24
    4034:	c5 01       	movw	r24, r10
    4036:	82 0d       	add	r24, r2
    4038:	93 1d       	adc	r25, r3
    403a:	9a 83       	std	Y+2, r25	; 0x02
    403c:	89 83       	std	Y+1, r24	; 0x01
    403e:	0f da       	rcall	.-3042   	; 0x345e <LCD_Rect_Fill>
    4040:	ef 80       	ldd	r14, Y+7	; 0x07
    4042:	f8 84       	ldd	r15, Y+8	; 0x08
    4044:	09 85       	ldd	r16, Y+9	; 0x09
    4046:	1a 85       	ldd	r17, Y+10	; 0x0a
    4048:	94 01       	movw	r18, r8
    404a:	a4 01       	movw	r20, r8
    404c:	6b 81       	ldd	r22, Y+3	; 0x03
    404e:	7c 81       	ldd	r23, Y+4	; 0x04
    4050:	8c 89       	ldd	r24, Y+20	; 0x14
    4052:	9d 89       	ldd	r25, Y+21	; 0x15
    4054:	04 da       	rcall	.-3064   	; 0x345e <LCD_Rect_Fill>
    4056:	ef 80       	ldd	r14, Y+7	; 0x07
    4058:	f8 84       	ldd	r15, Y+8	; 0x08
    405a:	09 85       	ldd	r16, Y+9	; 0x09
    405c:	1a 85       	ldd	r17, Y+10	; 0x0a
    405e:	94 01       	movw	r18, r8
    4060:	a4 01       	movw	r20, r8
    4062:	6d 81       	ldd	r22, Y+5	; 0x05
    4064:	7e 81       	ldd	r23, Y+6	; 0x06
    4066:	c5 01       	movw	r24, r10
    4068:	82 19       	sub	r24, r2
    406a:	93 09       	sbc	r25, r3
    406c:	9c 83       	std	Y+4, r25	; 0x04
    406e:	8b 83       	std	Y+3, r24	; 0x03
    4070:	f6 d9       	rcall	.-3092   	; 0x345e <LCD_Rect_Fill>
    4072:	ef 80       	ldd	r14, Y+7	; 0x07
    4074:	f8 84       	ldd	r15, Y+8	; 0x08
    4076:	09 85       	ldd	r16, Y+9	; 0x09
    4078:	1a 85       	ldd	r17, Y+10	; 0x0a
    407a:	94 01       	movw	r18, r8
    407c:	a4 01       	movw	r20, r8
    407e:	c2 01       	movw	r24, r4
    4080:	8c 19       	sub	r24, r12
    4082:	9d 09       	sbc	r25, r13
    4084:	9e 83       	std	Y+6, r25	; 0x06
    4086:	8d 83       	std	Y+5, r24	; 0x05
    4088:	bc 01       	movw	r22, r24
    408a:	89 81       	ldd	r24, Y+1	; 0x01
    408c:	9a 81       	ldd	r25, Y+2	; 0x02
    408e:	e7 d9       	rcall	.-3122   	; 0x345e <LCD_Rect_Fill>
    4090:	ef 80       	ldd	r14, Y+7	; 0x07
    4092:	f8 84       	ldd	r15, Y+8	; 0x08
    4094:	09 85       	ldd	r16, Y+9	; 0x09
    4096:	1a 85       	ldd	r17, Y+10	; 0x0a
    4098:	94 01       	movw	r18, r8
    409a:	a4 01       	movw	r20, r8
    409c:	c2 01       	movw	r24, r4
    409e:	82 19       	sub	r24, r2
    40a0:	93 09       	sbc	r25, r3
    40a2:	9a 83       	std	Y+2, r25	; 0x02
    40a4:	89 83       	std	Y+1, r24	; 0x01
    40a6:	bc 01       	movw	r22, r24
    40a8:	8b 85       	ldd	r24, Y+11	; 0x0b
    40aa:	9c 85       	ldd	r25, Y+12	; 0x0c
    40ac:	d8 d9       	rcall	.-3152   	; 0x345e <LCD_Rect_Fill>
    40ae:	ef 80       	ldd	r14, Y+7	; 0x07
    40b0:	f8 84       	ldd	r15, Y+8	; 0x08
    40b2:	09 85       	ldd	r16, Y+9	; 0x09
    40b4:	1a 85       	ldd	r17, Y+10	; 0x0a
    40b6:	94 01       	movw	r18, r8
    40b8:	a4 01       	movw	r20, r8
    40ba:	69 81       	ldd	r22, Y+1	; 0x01
    40bc:	7a 81       	ldd	r23, Y+2	; 0x02
    40be:	8c 89       	ldd	r24, Y+20	; 0x14
    40c0:	9d 89       	ldd	r25, Y+21	; 0x15
    40c2:	cd d9       	rcall	.-3174   	; 0x345e <LCD_Rect_Fill>
    40c4:	ef 80       	ldd	r14, Y+7	; 0x07
    40c6:	f8 84       	ldd	r15, Y+8	; 0x08
    40c8:	09 85       	ldd	r16, Y+9	; 0x09
    40ca:	1a 85       	ldd	r17, Y+10	; 0x0a
    40cc:	94 01       	movw	r18, r8
    40ce:	a4 01       	movw	r20, r8
    40d0:	6d 81       	ldd	r22, Y+5	; 0x05
    40d2:	7e 81       	ldd	r23, Y+6	; 0x06
    40d4:	8b 81       	ldd	r24, Y+3	; 0x03
    40d6:	9c 81       	ldd	r25, Y+4	; 0x04
    40d8:	c2 d9       	rcall	.-3196   	; 0x345e <LCD_Rect_Fill>
    40da:	77 20       	and	r7, r7
    40dc:	5c f4       	brge	.+22     	; 0x40f4 <LCD_Circle+0x1b6>
    40de:	93 e0       	ldi	r25, 0x03	; 3
    40e0:	69 0e       	add	r6, r25
    40e2:	71 1c       	adc	r7, r1
    40e4:	c6 01       	movw	r24, r12
    40e6:	88 0f       	add	r24, r24
    40e8:	99 1f       	adc	r25, r25
    40ea:	68 0e       	add	r6, r24
    40ec:	79 1e       	adc	r7, r25
    40ee:	8d 85       	ldd	r24, Y+13	; 0x0d
    40f0:	9e 85       	ldd	r25, Y+14	; 0x0e
    40f2:	10 c0       	rjmp	.+32     	; 0x4114 <LCD_Circle+0x1d6>
    40f4:	25 e0       	ldi	r18, 0x05	; 5
    40f6:	62 0e       	add	r6, r18
    40f8:	71 1c       	adc	r7, r1
    40fa:	89 89       	ldd	r24, Y+17	; 0x11
    40fc:	9a 89       	ldd	r25, Y+18	; 0x12
    40fe:	82 19       	sub	r24, r2
    4100:	93 09       	sbc	r25, r3
    4102:	88 0f       	add	r24, r24
    4104:	99 1f       	adc	r25, r25
    4106:	68 0e       	add	r6, r24
    4108:	79 1e       	adc	r7, r25
    410a:	8d 85       	ldd	r24, Y+13	; 0x0d
    410c:	9e 85       	ldd	r25, Y+14	; 0x0e
    410e:	31 e0       	ldi	r19, 0x01	; 1
    4110:	23 1a       	sub	r2, r19
    4112:	31 08       	sbc	r3, r1
    4114:	2f ef       	ldi	r18, 0xFF	; 255
    4116:	c2 1a       	sub	r12, r18
    4118:	d2 0a       	sbc	r13, r18
    411a:	2d 85       	ldd	r18, Y+13	; 0x0d
    411c:	3e 85       	ldd	r19, Y+14	; 0x0e
    411e:	2f 5f       	subi	r18, 0xFF	; 255
    4120:	3f 4f       	sbci	r19, 0xFF	; 255
    4122:	3e 87       	std	Y+14, r19	; 0x0e
    4124:	2d 87       	std	Y+13, r18	; 0x0d
    4126:	2c 89       	ldd	r18, Y+20	; 0x14
    4128:	3d 89       	ldd	r19, Y+21	; 0x15
    412a:	21 50       	subi	r18, 0x01	; 1
    412c:	31 09       	sbc	r19, r1
    412e:	3d 8b       	std	Y+21, r19	; 0x15
    4130:	2c 8b       	std	Y+20, r18	; 0x14
    4132:	2f 85       	ldd	r18, Y+15	; 0x0f
    4134:	38 89       	ldd	r19, Y+16	; 0x10
    4136:	2e 5f       	subi	r18, 0xFE	; 254
    4138:	3f 4f       	sbci	r19, 0xFF	; 255
    413a:	38 8b       	std	Y+16, r19	; 0x10
    413c:	2f 87       	std	Y+15, r18	; 0x0f
    413e:	28 16       	cp	r2, r24
    4140:	39 06       	cpc	r3, r25
    4142:	0c f0       	brlt	.+2      	; 0x4146 <LCD_Circle+0x208>
    4144:	30 cf       	rjmp	.-416    	; 0x3fa6 <LCD_Circle+0x68>
    4146:	65 96       	adiw	r28, 0x15	; 21
    4148:	0f b6       	in	r0, 0x3f	; 63
    414a:	f8 94       	cli
    414c:	de bf       	out	0x3e, r29	; 62
    414e:	0f be       	out	0x3f, r0	; 63
    4150:	cd bf       	out	0x3d, r28	; 61
    4152:	df 91       	pop	r29
    4154:	cf 91       	pop	r28
    4156:	1f 91       	pop	r17
    4158:	0f 91       	pop	r16
    415a:	ff 90       	pop	r15
    415c:	ef 90       	pop	r14
    415e:	df 90       	pop	r13
    4160:	cf 90       	pop	r12
    4162:	bf 90       	pop	r11
    4164:	af 90       	pop	r10
    4166:	9f 90       	pop	r9
    4168:	8f 90       	pop	r8
    416a:	7f 90       	pop	r7
    416c:	6f 90       	pop	r6
    416e:	5f 90       	pop	r5
    4170:	4f 90       	pop	r4
    4172:	3f 90       	pop	r3
    4174:	2f 90       	pop	r2
    4176:	08 95       	ret

00004178 <LCD_Circle_Helper>:
    4178:	2f 92       	push	r2
    417a:	3f 92       	push	r3
    417c:	4f 92       	push	r4
    417e:	5f 92       	push	r5
    4180:	6f 92       	push	r6
    4182:	7f 92       	push	r7
    4184:	8f 92       	push	r8
    4186:	9f 92       	push	r9
    4188:	af 92       	push	r10
    418a:	bf 92       	push	r11
    418c:	cf 92       	push	r12
    418e:	df 92       	push	r13
    4190:	ef 92       	push	r14
    4192:	ff 92       	push	r15
    4194:	0f 93       	push	r16
    4196:	1f 93       	push	r17
    4198:	cf 93       	push	r28
    419a:	df 93       	push	r29
    419c:	cd b7       	in	r28, 0x3d	; 61
    419e:	de b7       	in	r29, 0x3e	; 62
    41a0:	2e 97       	sbiw	r28, 0x0e	; 14
    41a2:	0f b6       	in	r0, 0x3f	; 63
    41a4:	f8 94       	cli
    41a6:	de bf       	out	0x3e, r29	; 62
    41a8:	0f be       	out	0x3f, r0	; 63
    41aa:	cd bf       	out	0x3d, r28	; 61
    41ac:	2c 01       	movw	r4, r24
    41ae:	4b 01       	movw	r8, r22
    41b0:	5a 01       	movw	r10, r20
    41b2:	cb 82       	std	Y+3, r12	; 0x03
    41b4:	dc 82       	std	Y+4, r13	; 0x04
    41b6:	ed 82       	std	Y+5, r14	; 0x05
    41b8:	fe 82       	std	Y+6, r15	; 0x06
    41ba:	81 e0       	ldi	r24, 0x01	; 1
    41bc:	90 e0       	ldi	r25, 0x00	; 0
    41be:	6c 01       	movw	r12, r24
    41c0:	c4 1a       	sub	r12, r20
    41c2:	d5 0a       	sbc	r13, r21
    41c4:	88 27       	eor	r24, r24
    41c6:	99 27       	eor	r25, r25
    41c8:	84 1b       	sub	r24, r20
    41ca:	95 0b       	sbc	r25, r21
    41cc:	3c 01       	movw	r6, r24
    41ce:	66 0c       	add	r6, r6
    41d0:	77 1c       	adc	r7, r7
    41d2:	14 16       	cp	r1, r20
    41d4:	15 06       	cpc	r1, r21
    41d6:	0c f0       	brlt	.+2      	; 0x41da <LCD_Circle_Helper+0x62>
    41d8:	bc c0       	rjmp	.+376    	; 0x4352 <LCD_Circle_Helper+0x1da>
    41da:	22 24       	eor	r2, r2
    41dc:	23 94       	inc	r2
    41de:	31 2c       	mov	r3, r1
    41e0:	92 2f       	mov	r25, r18
    41e2:	94 70       	andi	r25, 0x04	; 4
    41e4:	99 87       	std	Y+9, r25	; 0x09
    41e6:	e0 2f       	mov	r30, r16
    41e8:	f0 e0       	ldi	r31, 0x00	; 0
    41ea:	fa 83       	std	Y+2, r31	; 0x02
    41ec:	e9 83       	std	Y+1, r30	; 0x01
    41ee:	f2 2f       	mov	r31, r18
    41f0:	f2 70       	andi	r31, 0x02	; 2
    41f2:	fa 87       	std	Y+10, r31	; 0x0a
    41f4:	82 2f       	mov	r24, r18
    41f6:	88 70       	andi	r24, 0x08	; 8
    41f8:	8b 87       	std	Y+11, r24	; 0x0b
    41fa:	21 70       	andi	r18, 0x01	; 1
    41fc:	2c 87       	std	Y+12, r18	; 0x0c
    41fe:	e1 e0       	ldi	r30, 0x01	; 1
    4200:	f0 e0       	ldi	r31, 0x00	; 0
    4202:	fe 87       	std	Y+14, r31	; 0x0e
    4204:	ed 87       	std	Y+13, r30	; 0x0d
    4206:	dd 20       	and	r13, r13
    4208:	44 f0       	brlt	.+16     	; 0x421a <LCD_Circle_Helper+0xa2>
    420a:	f1 e0       	ldi	r31, 0x01	; 1
    420c:	af 1a       	sub	r10, r31
    420e:	b1 08       	sbc	r11, r1
    4210:	82 e0       	ldi	r24, 0x02	; 2
    4212:	68 0e       	add	r6, r24
    4214:	71 1c       	adc	r7, r1
    4216:	c6 0c       	add	r12, r6
    4218:	d7 1c       	adc	r13, r7
    421a:	ed 85       	ldd	r30, Y+13	; 0x0d
    421c:	fe 85       	ldd	r31, Y+14	; 0x0e
    421e:	f8 87       	std	Y+8, r31	; 0x08
    4220:	ef 83       	std	Y+7, r30	; 0x07
    4222:	f2 e0       	ldi	r31, 0x02	; 2
    4224:	2f 0e       	add	r2, r31
    4226:	31 1c       	adc	r3, r1
    4228:	c2 0c       	add	r12, r2
    422a:	d3 1c       	adc	r13, r3
    422c:	89 85       	ldd	r24, Y+9	; 0x09
    422e:	88 23       	and	r24, r24
    4230:	f1 f0       	breq	.+60     	; 0x426e <LCD_Circle_Helper+0xf6>
    4232:	eb 80       	ldd	r14, Y+3	; 0x03
    4234:	fc 80       	ldd	r15, Y+4	; 0x04
    4236:	0d 81       	ldd	r16, Y+5	; 0x05
    4238:	1e 81       	ldd	r17, Y+6	; 0x06
    423a:	29 81       	ldd	r18, Y+1	; 0x01
    423c:	3a 81       	ldd	r19, Y+2	; 0x02
    423e:	a9 01       	movw	r20, r18
    4240:	b5 01       	movw	r22, r10
    4242:	68 0d       	add	r22, r8
    4244:	79 1d       	adc	r23, r9
    4246:	8d 85       	ldd	r24, Y+13	; 0x0d
    4248:	9e 85       	ldd	r25, Y+14	; 0x0e
    424a:	84 0d       	add	r24, r4
    424c:	95 1d       	adc	r25, r5
    424e:	07 d9       	rcall	.-3570   	; 0x345e <LCD_Rect_Fill>
    4250:	eb 80       	ldd	r14, Y+3	; 0x03
    4252:	fc 80       	ldd	r15, Y+4	; 0x04
    4254:	0d 81       	ldd	r16, Y+5	; 0x05
    4256:	1e 81       	ldd	r17, Y+6	; 0x06
    4258:	29 81       	ldd	r18, Y+1	; 0x01
    425a:	3a 81       	ldd	r19, Y+2	; 0x02
    425c:	a9 01       	movw	r20, r18
    425e:	6d 85       	ldd	r22, Y+13	; 0x0d
    4260:	7e 85       	ldd	r23, Y+14	; 0x0e
    4262:	68 0d       	add	r22, r8
    4264:	79 1d       	adc	r23, r9
    4266:	c5 01       	movw	r24, r10
    4268:	84 0d       	add	r24, r4
    426a:	95 1d       	adc	r25, r5
    426c:	f8 d8       	rcall	.-3600   	; 0x345e <LCD_Rect_Fill>
    426e:	9a 85       	ldd	r25, Y+10	; 0x0a
    4270:	99 23       	and	r25, r25
    4272:	f9 f0       	breq	.+62     	; 0x42b2 <LCD_Circle_Helper+0x13a>
    4274:	eb 80       	ldd	r14, Y+3	; 0x03
    4276:	fc 80       	ldd	r15, Y+4	; 0x04
    4278:	0d 81       	ldd	r16, Y+5	; 0x05
    427a:	1e 81       	ldd	r17, Y+6	; 0x06
    427c:	29 81       	ldd	r18, Y+1	; 0x01
    427e:	3a 81       	ldd	r19, Y+2	; 0x02
    4280:	a9 01       	movw	r20, r18
    4282:	b4 01       	movw	r22, r8
    4284:	6a 19       	sub	r22, r10
    4286:	7b 09       	sbc	r23, r11
    4288:	8d 85       	ldd	r24, Y+13	; 0x0d
    428a:	9e 85       	ldd	r25, Y+14	; 0x0e
    428c:	84 0d       	add	r24, r4
    428e:	95 1d       	adc	r25, r5
    4290:	e6 d8       	rcall	.-3636   	; 0x345e <LCD_Rect_Fill>
    4292:	eb 80       	ldd	r14, Y+3	; 0x03
    4294:	fc 80       	ldd	r15, Y+4	; 0x04
    4296:	0d 81       	ldd	r16, Y+5	; 0x05
    4298:	1e 81       	ldd	r17, Y+6	; 0x06
    429a:	29 81       	ldd	r18, Y+1	; 0x01
    429c:	3a 81       	ldd	r19, Y+2	; 0x02
    429e:	a9 01       	movw	r20, r18
    42a0:	b4 01       	movw	r22, r8
    42a2:	ed 85       	ldd	r30, Y+13	; 0x0d
    42a4:	fe 85       	ldd	r31, Y+14	; 0x0e
    42a6:	6e 1b       	sub	r22, r30
    42a8:	7f 0b       	sbc	r23, r31
    42aa:	c5 01       	movw	r24, r10
    42ac:	84 0d       	add	r24, r4
    42ae:	95 1d       	adc	r25, r5
    42b0:	d6 d8       	rcall	.-3668   	; 0x345e <LCD_Rect_Fill>
    42b2:	fb 85       	ldd	r31, Y+11	; 0x0b
    42b4:	ff 23       	and	r31, r31
    42b6:	f9 f0       	breq	.+62     	; 0x42f6 <LCD_Circle_Helper+0x17e>
    42b8:	eb 80       	ldd	r14, Y+3	; 0x03
    42ba:	fc 80       	ldd	r15, Y+4	; 0x04
    42bc:	0d 81       	ldd	r16, Y+5	; 0x05
    42be:	1e 81       	ldd	r17, Y+6	; 0x06
    42c0:	29 81       	ldd	r18, Y+1	; 0x01
    42c2:	3a 81       	ldd	r19, Y+2	; 0x02
    42c4:	a9 01       	movw	r20, r18
    42c6:	6d 85       	ldd	r22, Y+13	; 0x0d
    42c8:	7e 85       	ldd	r23, Y+14	; 0x0e
    42ca:	68 0d       	add	r22, r8
    42cc:	79 1d       	adc	r23, r9
    42ce:	c2 01       	movw	r24, r4
    42d0:	8a 19       	sub	r24, r10
    42d2:	9b 09       	sbc	r25, r11
    42d4:	c4 d8       	rcall	.-3704   	; 0x345e <LCD_Rect_Fill>
    42d6:	eb 80       	ldd	r14, Y+3	; 0x03
    42d8:	fc 80       	ldd	r15, Y+4	; 0x04
    42da:	0d 81       	ldd	r16, Y+5	; 0x05
    42dc:	1e 81       	ldd	r17, Y+6	; 0x06
    42de:	29 81       	ldd	r18, Y+1	; 0x01
    42e0:	3a 81       	ldd	r19, Y+2	; 0x02
    42e2:	a9 01       	movw	r20, r18
    42e4:	b5 01       	movw	r22, r10
    42e6:	68 0d       	add	r22, r8
    42e8:	79 1d       	adc	r23, r9
    42ea:	c2 01       	movw	r24, r4
    42ec:	ed 85       	ldd	r30, Y+13	; 0x0d
    42ee:	fe 85       	ldd	r31, Y+14	; 0x0e
    42f0:	8e 1b       	sub	r24, r30
    42f2:	9f 0b       	sbc	r25, r31
    42f4:	b4 d8       	rcall	.-3736   	; 0x345e <LCD_Rect_Fill>
    42f6:	fc 85       	ldd	r31, Y+12	; 0x0c
    42f8:	ff 23       	and	r31, r31
    42fa:	01 f1       	breq	.+64     	; 0x433c <LCD_Circle_Helper+0x1c4>
    42fc:	eb 80       	ldd	r14, Y+3	; 0x03
    42fe:	fc 80       	ldd	r15, Y+4	; 0x04
    4300:	0d 81       	ldd	r16, Y+5	; 0x05
    4302:	1e 81       	ldd	r17, Y+6	; 0x06
    4304:	29 81       	ldd	r18, Y+1	; 0x01
    4306:	3a 81       	ldd	r19, Y+2	; 0x02
    4308:	a9 01       	movw	r20, r18
    430a:	b4 01       	movw	r22, r8
    430c:	8d 85       	ldd	r24, Y+13	; 0x0d
    430e:	9e 85       	ldd	r25, Y+14	; 0x0e
    4310:	68 1b       	sub	r22, r24
    4312:	79 0b       	sbc	r23, r25
    4314:	c2 01       	movw	r24, r4
    4316:	8a 19       	sub	r24, r10
    4318:	9b 09       	sbc	r25, r11
    431a:	a1 d8       	rcall	.-3774   	; 0x345e <LCD_Rect_Fill>
    431c:	eb 80       	ldd	r14, Y+3	; 0x03
    431e:	fc 80       	ldd	r15, Y+4	; 0x04
    4320:	0d 81       	ldd	r16, Y+5	; 0x05
    4322:	1e 81       	ldd	r17, Y+6	; 0x06
    4324:	29 81       	ldd	r18, Y+1	; 0x01
    4326:	3a 81       	ldd	r19, Y+2	; 0x02
    4328:	a9 01       	movw	r20, r18
    432a:	b4 01       	movw	r22, r8
    432c:	6a 19       	sub	r22, r10
    432e:	7b 09       	sbc	r23, r11
    4330:	c2 01       	movw	r24, r4
    4332:	ed 85       	ldd	r30, Y+13	; 0x0d
    4334:	fe 85       	ldd	r31, Y+14	; 0x0e
    4336:	8e 1b       	sub	r24, r30
    4338:	9f 0b       	sbc	r25, r31
    433a:	91 d8       	rcall	.-3806   	; 0x345e <LCD_Rect_Fill>
    433c:	8d 85       	ldd	r24, Y+13	; 0x0d
    433e:	9e 85       	ldd	r25, Y+14	; 0x0e
    4340:	01 96       	adiw	r24, 0x01	; 1
    4342:	9e 87       	std	Y+14, r25	; 0x0e
    4344:	8d 87       	std	Y+13, r24	; 0x0d
    4346:	ef 81       	ldd	r30, Y+7	; 0x07
    4348:	f8 85       	ldd	r31, Y+8	; 0x08
    434a:	ea 15       	cp	r30, r10
    434c:	fb 05       	cpc	r31, r11
    434e:	0c f4       	brge	.+2      	; 0x4352 <LCD_Circle_Helper+0x1da>
    4350:	5a cf       	rjmp	.-332    	; 0x4206 <LCD_Circle_Helper+0x8e>
    4352:	2e 96       	adiw	r28, 0x0e	; 14
    4354:	0f b6       	in	r0, 0x3f	; 63
    4356:	f8 94       	cli
    4358:	de bf       	out	0x3e, r29	; 62
    435a:	0f be       	out	0x3f, r0	; 63
    435c:	cd bf       	out	0x3d, r28	; 61
    435e:	df 91       	pop	r29
    4360:	cf 91       	pop	r28
    4362:	1f 91       	pop	r17
    4364:	0f 91       	pop	r16
    4366:	ff 90       	pop	r15
    4368:	ef 90       	pop	r14
    436a:	df 90       	pop	r13
    436c:	cf 90       	pop	r12
    436e:	bf 90       	pop	r11
    4370:	af 90       	pop	r10
    4372:	9f 90       	pop	r9
    4374:	8f 90       	pop	r8
    4376:	7f 90       	pop	r7
    4378:	6f 90       	pop	r6
    437a:	5f 90       	pop	r5
    437c:	4f 90       	pop	r4
    437e:	3f 90       	pop	r3
    4380:	2f 90       	pop	r2
    4382:	08 95       	ret

00004384 <LCD_Rect_Round>:
    4384:	2f 92       	push	r2
    4386:	3f 92       	push	r3
    4388:	4f 92       	push	r4
    438a:	5f 92       	push	r5
    438c:	6f 92       	push	r6
    438e:	7f 92       	push	r7
    4390:	8f 92       	push	r8
    4392:	9f 92       	push	r9
    4394:	af 92       	push	r10
    4396:	bf 92       	push	r11
    4398:	cf 92       	push	r12
    439a:	df 92       	push	r13
    439c:	ef 92       	push	r14
    439e:	ff 92       	push	r15
    43a0:	0f 93       	push	r16
    43a2:	1f 93       	push	r17
    43a4:	cf 93       	push	r28
    43a6:	df 93       	push	r29
    43a8:	cd b7       	in	r28, 0x3d	; 61
    43aa:	de b7       	in	r29, 0x3e	; 62
    43ac:	2c 97       	sbiw	r28, 0x0c	; 12
    43ae:	0f b6       	in	r0, 0x3f	; 63
    43b0:	f8 94       	cli
    43b2:	de bf       	out	0x3e, r29	; 62
    43b4:	0f be       	out	0x3f, r0	; 63
    43b6:	cd bf       	out	0x3d, r28	; 61
    43b8:	98 87       	std	Y+8, r25	; 0x08
    43ba:	8f 83       	std	Y+7, r24	; 0x07
    43bc:	7a 87       	std	Y+10, r23	; 0x0a
    43be:	69 87       	std	Y+9, r22	; 0x09
    43c0:	19 01       	movw	r2, r18
    43c2:	48 01       	movw	r8, r16
    43c4:	1e 2d       	mov	r17, r14
    43c6:	a9 82       	std	Y+1, r10	; 0x01
    43c8:	ba 82       	std	Y+2, r11	; 0x02
    43ca:	cb 82       	std	Y+3, r12	; 0x03
    43cc:	dc 82       	std	Y+4, r13	; 0x04
    43ce:	3c 01       	movw	r6, r24
    43d0:	64 0e       	add	r6, r20
    43d2:	75 1e       	adc	r7, r21
    43d4:	4e 2c       	mov	r4, r14
    43d6:	51 2c       	mov	r5, r1
    43d8:	c2 01       	movw	r24, r4
    43da:	88 19       	sub	r24, r8
    43dc:	99 09       	sbc	r25, r9
    43de:	86 0d       	add	r24, r6
    43e0:	97 1d       	adc	r25, r7
    43e2:	9c 87       	std	Y+12, r25	; 0x0c
    43e4:	8b 87       	std	Y+11, r24	; 0x0b
    43e6:	8f 81       	ldd	r24, Y+7	; 0x07
    43e8:	98 85       	ldd	r25, Y+8	; 0x08
    43ea:	88 0d       	add	r24, r8
    43ec:	99 1d       	adc	r25, r9
    43ee:	9e 83       	std	Y+6, r25	; 0x06
    43f0:	8d 83       	std	Y+5, r24	; 0x05
    43f2:	76 01       	movw	r14, r12
    43f4:	65 01       	movw	r12, r10
    43f6:	01 2f       	mov	r16, r17
    43f8:	9b 01       	movw	r18, r22
    43fa:	4b 85       	ldd	r20, Y+11	; 0x0b
    43fc:	5c 85       	ldd	r21, Y+12	; 0x0c
    43fe:	14 d9       	rcall	.-3544   	; 0x3628 <LCD_Line>
    4400:	a9 84       	ldd	r10, Y+9	; 0x09
    4402:	ba 84       	ldd	r11, Y+10	; 0x0a
    4404:	a2 0c       	add	r10, r2
    4406:	b3 1c       	adc	r11, r3
    4408:	15 01       	movw	r2, r10
    440a:	91 e0       	ldi	r25, 0x01	; 1
    440c:	29 1a       	sub	r2, r25
    440e:	31 08       	sbc	r3, r1
    4410:	c9 80       	ldd	r12, Y+1	; 0x01
    4412:	da 80       	ldd	r13, Y+2	; 0x02
    4414:	eb 80       	ldd	r14, Y+3	; 0x03
    4416:	fc 80       	ldd	r15, Y+4	; 0x04
    4418:	91 01       	movw	r18, r2
    441a:	4b 85       	ldd	r20, Y+11	; 0x0b
    441c:	5c 85       	ldd	r21, Y+12	; 0x0c
    441e:	b1 01       	movw	r22, r2
    4420:	8d 81       	ldd	r24, Y+5	; 0x05
    4422:	9e 81       	ldd	r25, Y+6	; 0x06
    4424:	01 d9       	rcall	.-3582   	; 0x3628 <LCD_Line>
    4426:	a4 18       	sub	r10, r4
    4428:	b5 08       	sbc	r11, r5
    442a:	a8 18       	sub	r10, r8
    442c:	b9 08       	sbc	r11, r9
    442e:	89 85       	ldd	r24, Y+9	; 0x09
    4430:	9a 85       	ldd	r25, Y+10	; 0x0a
    4432:	88 0d       	add	r24, r8
    4434:	99 1d       	adc	r25, r9
    4436:	9a 87       	std	Y+10, r25	; 0x0a
    4438:	89 87       	std	Y+9, r24	; 0x09
    443a:	c9 80       	ldd	r12, Y+1	; 0x01
    443c:	da 80       	ldd	r13, Y+2	; 0x02
    443e:	eb 80       	ldd	r14, Y+3	; 0x03
    4440:	fc 80       	ldd	r15, Y+4	; 0x04
    4442:	95 01       	movw	r18, r10
    4444:	4f 81       	ldd	r20, Y+7	; 0x07
    4446:	58 85       	ldd	r21, Y+8	; 0x08
    4448:	bc 01       	movw	r22, r24
    444a:	ca 01       	movw	r24, r20
    444c:	ed d8       	rcall	.-3622   	; 0x3628 <LCD_Line>
    444e:	c3 01       	movw	r24, r6
    4450:	01 97       	sbiw	r24, 0x01	; 1
    4452:	c9 80       	ldd	r12, Y+1	; 0x01
    4454:	da 80       	ldd	r13, Y+2	; 0x02
    4456:	eb 80       	ldd	r14, Y+3	; 0x03
    4458:	fc 80       	ldd	r15, Y+4	; 0x04
    445a:	95 01       	movw	r18, r10
    445c:	ac 01       	movw	r20, r24
    445e:	69 85       	ldd	r22, Y+9	; 0x09
    4460:	7a 85       	ldd	r23, Y+10	; 0x0a
    4462:	e2 d8       	rcall	.-3644   	; 0x3628 <LCD_Line>
    4464:	c9 80       	ldd	r12, Y+1	; 0x01
    4466:	da 80       	ldd	r13, Y+2	; 0x02
    4468:	eb 80       	ldd	r14, Y+3	; 0x03
    446a:	fc 80       	ldd	r15, Y+4	; 0x04
    446c:	21 e0       	ldi	r18, 0x01	; 1
    446e:	a4 01       	movw	r20, r8
    4470:	69 85       	ldd	r22, Y+9	; 0x09
    4472:	7a 85       	ldd	r23, Y+10	; 0x0a
    4474:	8d 81       	ldd	r24, Y+5	; 0x05
    4476:	9e 81       	ldd	r25, Y+6	; 0x06
    4478:	7f de       	rcall	.-770    	; 0x4178 <LCD_Circle_Helper>
    447a:	54 01       	movw	r10, r8
    447c:	a0 94       	com	r10
    447e:	b0 94       	com	r11
    4480:	a6 0c       	add	r10, r6
    4482:	b7 1c       	adc	r11, r7
    4484:	c9 80       	ldd	r12, Y+1	; 0x01
    4486:	da 80       	ldd	r13, Y+2	; 0x02
    4488:	eb 80       	ldd	r14, Y+3	; 0x03
    448a:	fc 80       	ldd	r15, Y+4	; 0x04
    448c:	22 e0       	ldi	r18, 0x02	; 2
    448e:	a4 01       	movw	r20, r8
    4490:	69 85       	ldd	r22, Y+9	; 0x09
    4492:	7a 85       	ldd	r23, Y+10	; 0x0a
    4494:	c5 01       	movw	r24, r10
    4496:	70 de       	rcall	.-800    	; 0x4178 <LCD_Circle_Helper>
    4498:	c1 01       	movw	r24, r2
    449a:	88 19       	sub	r24, r8
    449c:	99 09       	sbc	r25, r9
    449e:	98 87       	std	Y+8, r25	; 0x08
    44a0:	8f 83       	std	Y+7, r24	; 0x07
    44a2:	c9 80       	ldd	r12, Y+1	; 0x01
    44a4:	da 80       	ldd	r13, Y+2	; 0x02
    44a6:	eb 80       	ldd	r14, Y+3	; 0x03
    44a8:	fc 80       	ldd	r15, Y+4	; 0x04
    44aa:	24 e0       	ldi	r18, 0x04	; 4
    44ac:	a4 01       	movw	r20, r8
    44ae:	bc 01       	movw	r22, r24
    44b0:	c5 01       	movw	r24, r10
    44b2:	62 de       	rcall	.-828    	; 0x4178 <LCD_Circle_Helper>
    44b4:	c9 80       	ldd	r12, Y+1	; 0x01
    44b6:	da 80       	ldd	r13, Y+2	; 0x02
    44b8:	eb 80       	ldd	r14, Y+3	; 0x03
    44ba:	fc 80       	ldd	r15, Y+4	; 0x04
    44bc:	28 e0       	ldi	r18, 0x08	; 8
    44be:	a4 01       	movw	r20, r8
    44c0:	6f 81       	ldd	r22, Y+7	; 0x07
    44c2:	78 85       	ldd	r23, Y+8	; 0x08
    44c4:	8d 81       	ldd	r24, Y+5	; 0x05
    44c6:	9e 81       	ldd	r25, Y+6	; 0x06
    44c8:	57 de       	rcall	.-850    	; 0x4178 <LCD_Circle_Helper>
    44ca:	2c 96       	adiw	r28, 0x0c	; 12
    44cc:	0f b6       	in	r0, 0x3f	; 63
    44ce:	f8 94       	cli
    44d0:	de bf       	out	0x3e, r29	; 62
    44d2:	0f be       	out	0x3f, r0	; 63
    44d4:	cd bf       	out	0x3d, r28	; 61
    44d6:	df 91       	pop	r29
    44d8:	cf 91       	pop	r28
    44da:	1f 91       	pop	r17
    44dc:	0f 91       	pop	r16
    44de:	ff 90       	pop	r15
    44e0:	ef 90       	pop	r14
    44e2:	df 90       	pop	r13
    44e4:	cf 90       	pop	r12
    44e6:	bf 90       	pop	r11
    44e8:	af 90       	pop	r10
    44ea:	9f 90       	pop	r9
    44ec:	8f 90       	pop	r8
    44ee:	7f 90       	pop	r7
    44f0:	6f 90       	pop	r6
    44f2:	5f 90       	pop	r5
    44f4:	4f 90       	pop	r4
    44f6:	3f 90       	pop	r3
    44f8:	2f 90       	pop	r2
    44fa:	08 95       	ret

000044fc <LCD_Circle_Fill_Helper>:
    44fc:	2f 92       	push	r2
    44fe:	3f 92       	push	r3
    4500:	4f 92       	push	r4
    4502:	5f 92       	push	r5
    4504:	6f 92       	push	r6
    4506:	7f 92       	push	r7
    4508:	8f 92       	push	r8
    450a:	9f 92       	push	r9
    450c:	af 92       	push	r10
    450e:	bf 92       	push	r11
    4510:	cf 92       	push	r12
    4512:	df 92       	push	r13
    4514:	ef 92       	push	r14
    4516:	ff 92       	push	r15
    4518:	0f 93       	push	r16
    451a:	1f 93       	push	r17
    451c:	cf 93       	push	r28
    451e:	df 93       	push	r29
    4520:	cd b7       	in	r28, 0x3d	; 61
    4522:	de b7       	in	r29, 0x3e	; 62
    4524:	2f 97       	sbiw	r28, 0x0f	; 15
    4526:	0f b6       	in	r0, 0x3f	; 63
    4528:	f8 94       	cli
    452a:	de bf       	out	0x3e, r29	; 62
    452c:	0f be       	out	0x3f, r0	; 63
    452e:	cd bf       	out	0x3d, r28	; 61
    4530:	4c 01       	movw	r8, r24
    4532:	3b 01       	movw	r6, r22
    4534:	5a 01       	movw	r10, r20
    4536:	1d 87       	std	Y+13, r17	; 0x0d
    4538:	0c 87       	std	Y+12, r16	; 0x0c
    453a:	cf 82       	std	Y+7, r12	; 0x07
    453c:	d8 86       	std	Y+8, r13	; 0x08
    453e:	e9 86       	std	Y+9, r14	; 0x09
    4540:	fa 86       	std	Y+10, r15	; 0x0a
    4542:	81 e0       	ldi	r24, 0x01	; 1
    4544:	90 e0       	ldi	r25, 0x00	; 0
    4546:	1c 01       	movw	r2, r24
    4548:	24 1a       	sub	r2, r20
    454a:	35 0a       	sbc	r3, r21
    454c:	88 27       	eor	r24, r24
    454e:	99 27       	eor	r25, r25
    4550:	84 1b       	sub	r24, r20
    4552:	95 0b       	sbc	r25, r21
    4554:	ac 01       	movw	r20, r24
    4556:	44 0f       	add	r20, r20
    4558:	55 1f       	adc	r21, r21
    455a:	5c 83       	std	Y+4, r21	; 0x04
    455c:	4b 83       	std	Y+3, r20	; 0x03
    455e:	1a 14       	cp	r1, r10
    4560:	1b 04       	cpc	r1, r11
    4562:	0c f0       	brlt	.+2      	; 0x4566 <LCD_Circle_Fill_Helper+0x6a>
    4564:	84 c0       	rjmp	.+264    	; 0x466e <LCD_Circle_Fill_Helper+0x172>
    4566:	cb 01       	movw	r24, r22
    4568:	01 97       	sbiw	r24, 0x01	; 1
    456a:	9a 83       	std	Y+2, r25	; 0x02
    456c:	89 83       	std	Y+1, r24	; 0x01
    456e:	c8 01       	movw	r24, r16
    4570:	01 96       	adiw	r24, 0x01	; 1
    4572:	2c 01       	movw	r4, r24
    4574:	46 0e       	add	r4, r22
    4576:	57 1e       	adc	r5, r23
    4578:	41 e0       	ldi	r20, 0x01	; 1
    457a:	50 e0       	ldi	r21, 0x00	; 0
    457c:	12 2f       	mov	r17, r18
    457e:	11 70       	andi	r17, 0x01	; 1
    4580:	22 70       	andi	r18, 0x02	; 2
    4582:	2b 87       	std	Y+11, r18	; 0x0b
    4584:	5f 87       	std	Y+15, r21	; 0x0f
    4586:	4e 87       	std	Y+14, r20	; 0x0e
    4588:	33 20       	and	r3, r3
    458a:	54 f0       	brlt	.+20     	; 0x45a0 <LCD_Circle_Fill_Helper+0xa4>
    458c:	51 e0       	ldi	r21, 0x01	; 1
    458e:	a5 1a       	sub	r10, r21
    4590:	b1 08       	sbc	r11, r1
    4592:	8b 81       	ldd	r24, Y+3	; 0x03
    4594:	9c 81       	ldd	r25, Y+4	; 0x04
    4596:	02 96       	adiw	r24, 0x02	; 2
    4598:	9c 83       	std	Y+4, r25	; 0x04
    459a:	8b 83       	std	Y+3, r24	; 0x03
    459c:	28 0e       	add	r2, r24
    459e:	39 1e       	adc	r3, r25
    45a0:	4e 85       	ldd	r20, Y+14	; 0x0e
    45a2:	5f 85       	ldd	r21, Y+15	; 0x0f
    45a4:	5e 83       	std	Y+6, r21	; 0x06
    45a6:	4d 83       	std	Y+5, r20	; 0x05
    45a8:	ca 01       	movw	r24, r20
    45aa:	88 0f       	add	r24, r24
    45ac:	99 1f       	adc	r25, r25
    45ae:	01 96       	adiw	r24, 0x01	; 1
    45b0:	28 0e       	add	r2, r24
    45b2:	39 1e       	adc	r3, r25
    45b4:	11 23       	and	r17, r17
    45b6:	01 f1       	breq	.+64     	; 0x45f8 <LCD_Circle_Fill_Helper+0xfc>
    45b8:	93 01       	movw	r18, r6
    45ba:	2a 0d       	add	r18, r10
    45bc:	3b 1d       	adc	r19, r11
    45be:	8c 85       	ldd	r24, Y+12	; 0x0c
    45c0:	9d 85       	ldd	r25, Y+13	; 0x0d
    45c2:	28 0f       	add	r18, r24
    45c4:	39 1f       	adc	r19, r25
    45c6:	cf 80       	ldd	r12, Y+7	; 0x07
    45c8:	d8 84       	ldd	r13, Y+8	; 0x08
    45ca:	e9 84       	ldd	r14, Y+9	; 0x09
    45cc:	fa 84       	ldd	r15, Y+10	; 0x0a
    45ce:	01 e0       	ldi	r16, 0x01	; 1
    45d0:	ca 01       	movw	r24, r20
    45d2:	88 0d       	add	r24, r8
    45d4:	99 1d       	adc	r25, r9
    45d6:	ac 01       	movw	r20, r24
    45d8:	b3 01       	movw	r22, r6
    45da:	6a 19       	sub	r22, r10
    45dc:	7b 09       	sbc	r23, r11
    45de:	24 d8       	rcall	.-4024   	; 0x3628 <LCD_Line>
    45e0:	cf 80       	ldd	r12, Y+7	; 0x07
    45e2:	d8 84       	ldd	r13, Y+8	; 0x08
    45e4:	e9 84       	ldd	r14, Y+9	; 0x09
    45e6:	fa 84       	ldd	r15, Y+10	; 0x0a
    45e8:	92 01       	movw	r18, r4
    45ea:	c5 01       	movw	r24, r10
    45ec:	88 0d       	add	r24, r8
    45ee:	99 1d       	adc	r25, r9
    45f0:	ac 01       	movw	r20, r24
    45f2:	69 81       	ldd	r22, Y+1	; 0x01
    45f4:	7a 81       	ldd	r23, Y+2	; 0x02
    45f6:	18 d8       	rcall	.-4048   	; 0x3628 <LCD_Line>
    45f8:	9b 85       	ldd	r25, Y+11	; 0x0b
    45fa:	99 23       	and	r25, r25
    45fc:	21 f1       	breq	.+72     	; 0x4646 <LCD_Circle_Fill_Helper+0x14a>
    45fe:	93 01       	movw	r18, r6
    4600:	2a 0d       	add	r18, r10
    4602:	3b 1d       	adc	r19, r11
    4604:	4c 85       	ldd	r20, Y+12	; 0x0c
    4606:	5d 85       	ldd	r21, Y+13	; 0x0d
    4608:	24 0f       	add	r18, r20
    460a:	35 1f       	adc	r19, r21
    460c:	cf 80       	ldd	r12, Y+7	; 0x07
    460e:	d8 84       	ldd	r13, Y+8	; 0x08
    4610:	e9 84       	ldd	r14, Y+9	; 0x09
    4612:	fa 84       	ldd	r15, Y+10	; 0x0a
    4614:	01 e0       	ldi	r16, 0x01	; 1
    4616:	c4 01       	movw	r24, r8
    4618:	4e 85       	ldd	r20, Y+14	; 0x0e
    461a:	5f 85       	ldd	r21, Y+15	; 0x0f
    461c:	84 1b       	sub	r24, r20
    461e:	95 0b       	sbc	r25, r21
    4620:	ac 01       	movw	r20, r24
    4622:	b3 01       	movw	r22, r6
    4624:	6a 19       	sub	r22, r10
    4626:	7b 09       	sbc	r23, r11
    4628:	0e 94 14 1b 	call	0x3628	; 0x3628 <LCD_Line>
    462c:	cf 80       	ldd	r12, Y+7	; 0x07
    462e:	d8 84       	ldd	r13, Y+8	; 0x08
    4630:	e9 84       	ldd	r14, Y+9	; 0x09
    4632:	fa 84       	ldd	r15, Y+10	; 0x0a
    4634:	92 01       	movw	r18, r4
    4636:	c4 01       	movw	r24, r8
    4638:	8a 19       	sub	r24, r10
    463a:	9b 09       	sbc	r25, r11
    463c:	ac 01       	movw	r20, r24
    463e:	69 81       	ldd	r22, Y+1	; 0x01
    4640:	7a 81       	ldd	r23, Y+2	; 0x02
    4642:	0e 94 14 1b 	call	0x3628	; 0x3628 <LCD_Line>
    4646:	8e 85       	ldd	r24, Y+14	; 0x0e
    4648:	9f 85       	ldd	r25, Y+15	; 0x0f
    464a:	01 96       	adiw	r24, 0x01	; 1
    464c:	9f 87       	std	Y+15, r25	; 0x0f
    464e:	8e 87       	std	Y+14, r24	; 0x0e
    4650:	49 81       	ldd	r20, Y+1	; 0x01
    4652:	5a 81       	ldd	r21, Y+2	; 0x02
    4654:	41 50       	subi	r20, 0x01	; 1
    4656:	51 09       	sbc	r21, r1
    4658:	5a 83       	std	Y+2, r21	; 0x02
    465a:	49 83       	std	Y+1, r20	; 0x01
    465c:	5f ef       	ldi	r21, 0xFF	; 255
    465e:	45 1a       	sub	r4, r21
    4660:	55 0a       	sbc	r5, r21
    4662:	8d 81       	ldd	r24, Y+5	; 0x05
    4664:	9e 81       	ldd	r25, Y+6	; 0x06
    4666:	8a 15       	cp	r24, r10
    4668:	9b 05       	cpc	r25, r11
    466a:	0c f4       	brge	.+2      	; 0x466e <LCD_Circle_Fill_Helper+0x172>
    466c:	8d cf       	rjmp	.-230    	; 0x4588 <LCD_Circle_Fill_Helper+0x8c>
    466e:	2f 96       	adiw	r28, 0x0f	; 15
    4670:	0f b6       	in	r0, 0x3f	; 63
    4672:	f8 94       	cli
    4674:	de bf       	out	0x3e, r29	; 62
    4676:	0f be       	out	0x3f, r0	; 63
    4678:	cd bf       	out	0x3d, r28	; 61
    467a:	df 91       	pop	r29
    467c:	cf 91       	pop	r28
    467e:	1f 91       	pop	r17
    4680:	0f 91       	pop	r16
    4682:	ff 90       	pop	r15
    4684:	ef 90       	pop	r14
    4686:	df 90       	pop	r13
    4688:	cf 90       	pop	r12
    468a:	bf 90       	pop	r11
    468c:	af 90       	pop	r10
    468e:	9f 90       	pop	r9
    4690:	8f 90       	pop	r8
    4692:	7f 90       	pop	r7
    4694:	6f 90       	pop	r6
    4696:	5f 90       	pop	r5
    4698:	4f 90       	pop	r4
    469a:	3f 90       	pop	r3
    469c:	2f 90       	pop	r2
    469e:	08 95       	ret

000046a0 <LCD_Rect_Round_Fill>:
    46a0:	2f 92       	push	r2
    46a2:	3f 92       	push	r3
    46a4:	4f 92       	push	r4
    46a6:	5f 92       	push	r5
    46a8:	6f 92       	push	r6
    46aa:	7f 92       	push	r7
    46ac:	8f 92       	push	r8
    46ae:	9f 92       	push	r9
    46b0:	af 92       	push	r10
    46b2:	bf 92       	push	r11
    46b4:	cf 92       	push	r12
    46b6:	df 92       	push	r13
    46b8:	ef 92       	push	r14
    46ba:	ff 92       	push	r15
    46bc:	0f 93       	push	r16
    46be:	1f 93       	push	r17
    46c0:	cf 93       	push	r28
    46c2:	df 93       	push	r29
    46c4:	00 d0       	rcall	.+0      	; 0x46c6 <LCD_Rect_Round_Fill+0x26>
    46c6:	00 d0       	rcall	.+0      	; 0x46c8 <LCD_Rect_Round_Fill+0x28>
    46c8:	00 d0       	rcall	.+0      	; 0x46ca <LCD_Rect_Round_Fill+0x2a>
    46ca:	cd b7       	in	r28, 0x3d	; 61
    46cc:	de b7       	in	r29, 0x3e	; 62
    46ce:	5c 01       	movw	r10, r24
    46d0:	2b 01       	movw	r4, r22
    46d2:	1a 01       	movw	r2, r20
    46d4:	49 01       	movw	r8, r18
    46d6:	1e 83       	std	Y+6, r17	; 0x06
    46d8:	0d 83       	std	Y+5, r16	; 0x05
    46da:	c9 82       	std	Y+1, r12	; 0x01
    46dc:	da 82       	std	Y+2, r13	; 0x02
    46de:	eb 82       	std	Y+3, r14	; 0x03
    46e0:	fc 82       	std	Y+4, r15	; 0x04
    46e2:	68 01       	movw	r12, r16
    46e4:	cc 0c       	add	r12, r12
    46e6:	dd 1c       	adc	r13, r13
    46e8:	38 01       	movw	r6, r16
    46ea:	68 0e       	add	r6, r24
    46ec:	79 1e       	adc	r7, r25
    46ee:	4c 19       	sub	r20, r12
    46f0:	5d 09       	sbc	r21, r13
    46f2:	e9 80       	ldd	r14, Y+1	; 0x01
    46f4:	fa 80       	ldd	r15, Y+2	; 0x02
    46f6:	0b 81       	ldd	r16, Y+3	; 0x03
    46f8:	1c 81       	ldd	r17, Y+4	; 0x04
    46fa:	c3 01       	movw	r24, r6
    46fc:	0e 94 2f 1a 	call	0x345e	; 0x345e <LCD_Rect_Fill>
    4700:	81 e0       	ldi	r24, 0x01	; 1
    4702:	88 1a       	sub	r8, r24
    4704:	91 08       	sbc	r9, r1
    4706:	8c 18       	sub	r8, r12
    4708:	9d 08       	sbc	r9, r13
    470a:	ed 81       	ldd	r30, Y+5	; 0x05
    470c:	fe 81       	ldd	r31, Y+6	; 0x06
    470e:	4e 0e       	add	r4, r30
    4710:	5f 1e       	adc	r5, r31
    4712:	c5 01       	movw	r24, r10
    4714:	01 97       	sbiw	r24, 0x01	; 1
    4716:	82 0d       	add	r24, r2
    4718:	93 1d       	adc	r25, r3
    471a:	c9 80       	ldd	r12, Y+1	; 0x01
    471c:	da 80       	ldd	r13, Y+2	; 0x02
    471e:	eb 80       	ldd	r14, Y+3	; 0x03
    4720:	fc 80       	ldd	r15, Y+4	; 0x04
    4722:	84 01       	movw	r16, r8
    4724:	21 e0       	ldi	r18, 0x01	; 1
    4726:	af 01       	movw	r20, r30
    4728:	b2 01       	movw	r22, r4
    472a:	8e 1b       	sub	r24, r30
    472c:	9f 0b       	sbc	r25, r31
    472e:	e6 de       	rcall	.-564    	; 0x44fc <LCD_Circle_Fill_Helper>
    4730:	c9 80       	ldd	r12, Y+1	; 0x01
    4732:	da 80       	ldd	r13, Y+2	; 0x02
    4734:	eb 80       	ldd	r14, Y+3	; 0x03
    4736:	fc 80       	ldd	r15, Y+4	; 0x04
    4738:	22 e0       	ldi	r18, 0x02	; 2
    473a:	4d 81       	ldd	r20, Y+5	; 0x05
    473c:	5e 81       	ldd	r21, Y+6	; 0x06
    473e:	b2 01       	movw	r22, r4
    4740:	c3 01       	movw	r24, r6
    4742:	dc de       	rcall	.-584    	; 0x44fc <LCD_Circle_Fill_Helper>
    4744:	26 96       	adiw	r28, 0x06	; 6
    4746:	0f b6       	in	r0, 0x3f	; 63
    4748:	f8 94       	cli
    474a:	de bf       	out	0x3e, r29	; 62
    474c:	0f be       	out	0x3f, r0	; 63
    474e:	cd bf       	out	0x3d, r28	; 61
    4750:	df 91       	pop	r29
    4752:	cf 91       	pop	r28
    4754:	1f 91       	pop	r17
    4756:	0f 91       	pop	r16
    4758:	ff 90       	pop	r15
    475a:	ef 90       	pop	r14
    475c:	df 90       	pop	r13
    475e:	cf 90       	pop	r12
    4760:	bf 90       	pop	r11
    4762:	af 90       	pop	r10
    4764:	9f 90       	pop	r9
    4766:	8f 90       	pop	r8
    4768:	7f 90       	pop	r7
    476a:	6f 90       	pop	r6
    476c:	5f 90       	pop	r5
    476e:	4f 90       	pop	r4
    4770:	3f 90       	pop	r3
    4772:	2f 90       	pop	r2
    4774:	08 95       	ret

00004776 <LCD_Font>:
    4776:	2f 92       	push	r2
    4778:	3f 92       	push	r3
    477a:	4f 92       	push	r4
    477c:	5f 92       	push	r5
    477e:	6f 92       	push	r6
    4780:	7f 92       	push	r7
    4782:	8f 92       	push	r8
    4784:	9f 92       	push	r9
    4786:	af 92       	push	r10
    4788:	bf 92       	push	r11
    478a:	cf 92       	push	r12
    478c:	df 92       	push	r13
    478e:	ef 92       	push	r14
    4790:	ff 92       	push	r15
    4792:	0f 93       	push	r16
    4794:	1f 93       	push	r17
    4796:	cf 93       	push	r28
    4798:	df 93       	push	r29
    479a:	cd b7       	in	r28, 0x3d	; 61
    479c:	de b7       	in	r29, 0x3e	; 62
    479e:	a1 97       	sbiw	r28, 0x21	; 33
    47a0:	0f b6       	in	r0, 0x3f	; 63
    47a2:	f8 94       	cli
    47a4:	de bf       	out	0x3e, r29	; 62
    47a6:	0f be       	out	0x3f, r0	; 63
    47a8:	cd bf       	out	0x3d, r28	; 61
    47aa:	a8 2e       	mov	r10, r24
    47ac:	b9 2e       	mov	r11, r25
    47ae:	5d 8b       	std	Y+21, r21	; 0x15
    47b0:	4c 8b       	std	Y+20, r20	; 0x14
    47b2:	c8 8e       	std	Y+24, r12	; 0x18
    47b4:	d9 8e       	std	Y+25, r13	; 0x19
    47b6:	ea 8e       	std	Y+26, r14	; 0x1a
    47b8:	fb 8e       	std	Y+27, r15	; 0x1b
    47ba:	8e 8f       	std	Y+30, r24	; 0x1e
    47bc:	9f 8f       	std	Y+31, r25	; 0x1f
    47be:	6a 8b       	std	Y+18, r22	; 0x12
    47c0:	7b 8b       	std	Y+19, r23	; 0x13
    47c2:	47 e0       	ldi	r20, 0x07	; 7
    47c4:	50 e0       	ldi	r21, 0x00	; 0
    47c6:	b9 01       	movw	r22, r18
    47c8:	ce 01       	movw	r24, r28
    47ca:	01 96       	adiw	r24, 0x01	; 1
    47cc:	04 d7       	rcall	.+3592   	; 0x55d6 <memcpy_P>
    47ce:	2c 89       	ldd	r18, Y+20	; 0x14
    47d0:	3d 89       	ldd	r19, Y+21	; 0x15
    47d2:	3f 8b       	std	Y+23, r19	; 0x17
    47d4:	2e 8b       	std	Y+22, r18	; 0x16
    47d6:	a8 8a       	std	Y+16, r10	; 0x10
    47d8:	b9 8a       	std	Y+17, r11	; 0x11
    47da:	61 2c       	mov	r6, r1
    47dc:	71 2c       	mov	r7, r1
    47de:	20 2e       	mov	r2, r16
    47e0:	31 2c       	mov	r3, r1
    47e2:	0c 8f       	std	Y+28, r16	; 0x1c
    47e4:	3d 8e       	std	Y+29, r3	; 0x1d
    47e6:	f1 c0       	rjmp	.+482    	; 0x49ca <LCD_Font+0x254>
    47e8:	ee 89       	ldd	r30, Y+22	; 0x16
    47ea:	ff 89       	ldd	r31, Y+23	; 0x17
    47ec:	81 91       	ld	r24, Z+
    47ee:	ff 8b       	std	Y+23, r31	; 0x17
    47f0:	ee 8b       	std	Y+22, r30	; 0x16
    47f2:	8a 30       	cpi	r24, 0x0A	; 10
    47f4:	89 f4       	brne	.+34     	; 0x4818 <LCD_Font+0xa2>
    47f6:	2f 81       	ldd	r18, Y+7	; 0x07
    47f8:	22 9d       	mul	r18, r2
    47fa:	c0 01       	movw	r24, r0
    47fc:	23 9d       	mul	r18, r3
    47fe:	90 0d       	add	r25, r0
    4800:	11 24       	eor	r1, r1
    4802:	2a 89       	ldd	r18, Y+18	; 0x12
    4804:	3b 89       	ldd	r19, Y+19	; 0x13
    4806:	28 0f       	add	r18, r24
    4808:	39 1f       	adc	r19, r25
    480a:	3b 8b       	std	Y+19, r19	; 0x13
    480c:	2a 8b       	std	Y+18, r18	; 0x12
    480e:	3e 8d       	ldd	r19, Y+30	; 0x1e
    4810:	38 8b       	std	Y+16, r19	; 0x10
    4812:	6f 8d       	ldd	r22, Y+31	; 0x1f
    4814:	69 8b       	std	Y+17, r22	; 0x11
    4816:	d6 c0       	rjmp	.+428    	; 0x49c4 <LCD_Font+0x24e>
    4818:	2d 81       	ldd	r18, Y+5	; 0x05
    481a:	82 17       	cp	r24, r18
    481c:	08 f4       	brcc	.+2      	; 0x4820 <LCD_Font+0xaa>
    481e:	d2 c0       	rjmp	.+420    	; 0x49c4 <LCD_Font+0x24e>
    4820:	9e 81       	ldd	r25, Y+6	; 0x06
    4822:	98 17       	cp	r25, r24
    4824:	08 f4       	brcc	.+2      	; 0x4828 <LCD_Font+0xb2>
    4826:	ce c0       	rjmp	.+412    	; 0x49c4 <LCD_Font+0x24e>
    4828:	8d 30       	cpi	r24, 0x0D	; 13
    482a:	09 f4       	brne	.+2      	; 0x482e <LCD_Font+0xb8>
    482c:	cb c0       	rjmp	.+406    	; 0x49c4 <LCD_Font+0x24e>
    482e:	90 e0       	ldi	r25, 0x00	; 0
    4830:	82 1b       	sub	r24, r18
    4832:	91 09       	sbc	r25, r1
    4834:	bc 01       	movw	r22, r24
    4836:	66 0f       	add	r22, r22
    4838:	77 1f       	adc	r23, r23
    483a:	66 0f       	add	r22, r22
    483c:	77 1f       	adc	r23, r23
    483e:	66 0f       	add	r22, r22
    4840:	77 1f       	adc	r23, r23
    4842:	fb 01       	movw	r30, r22
    4844:	e8 1b       	sub	r30, r24
    4846:	f9 0b       	sbc	r31, r25
    4848:	6b 81       	ldd	r22, Y+3	; 0x03
    484a:	7c 81       	ldd	r23, Y+4	; 0x04
    484c:	6e 0f       	add	r22, r30
    484e:	7f 1f       	adc	r23, r31
    4850:	47 e0       	ldi	r20, 0x07	; 7
    4852:	50 e0       	ldi	r21, 0x00	; 0
    4854:	ce 01       	movw	r24, r28
    4856:	08 96       	adiw	r24, 0x08	; 8
    4858:	be d6       	rcall	.+3452   	; 0x55d6 <memcpy_P>
    485a:	89 80       	ldd	r8, Y+1	; 0x01
    485c:	9a 80       	ldd	r9, Y+2	; 0x02
    485e:	c8 84       	ldd	r12, Y+8	; 0x08
    4860:	d9 84       	ldd	r13, Y+9	; 0x09
    4862:	8b 85       	ldd	r24, Y+11	; 0x0b
    4864:	81 11       	cpse	r24, r1
    4866:	99 c0       	rjmp	.+306    	; 0x499a <LCD_Font+0x224>
    4868:	a1 c0       	rjmp	.+322    	; 0x49ac <LCD_Font+0x236>
    486a:	a1 2c       	mov	r10, r1
    486c:	80 e0       	ldi	r24, 0x00	; 0
    486e:	90 e0       	ldi	r25, 0x00	; 0
    4870:	ff 85       	ldd	r31, Y+15	; 0x0f
    4872:	4f 2e       	mov	r4, r31
    4874:	51 2c       	mov	r5, r1
    4876:	b1 10       	cpse	r11, r1
    4878:	0b c0       	rjmp	.+22     	; 0x4890 <LCD_Font+0x11a>
    487a:	96 01       	movw	r18, r12
    487c:	2f 5f       	subi	r18, 0xFF	; 255
    487e:	3f 4f       	sbci	r19, 0xFF	; 255
    4880:	f4 01       	movw	r30, r8
    4882:	ec 0d       	add	r30, r12
    4884:	fd 1d       	adc	r31, r13
    4886:	74 90       	lpm	r7, Z
    4888:	69 01       	movw	r12, r18
    488a:	68 94       	set
    488c:	bb 24       	eor	r11, r11
    488e:	b7 f8       	bld	r11, 7
    4890:	27 2d       	mov	r18, r7
    4892:	2b 21       	and	r18, r11
    4894:	11 f0       	breq	.+4      	; 0x489a <LCD_Font+0x124>
    4896:	01 96       	adiw	r24, 0x01	; 1
    4898:	39 c0       	rjmp	.+114    	; 0x490c <LCD_Font+0x196>
    489a:	00 97       	sbiw	r24, 0x00	; 0
    489c:	b9 f1       	breq	.+110    	; 0x490c <LCD_Font+0x196>
    489e:	28 9e       	mul	r2, r24
    48a0:	a0 01       	movw	r20, r0
    48a2:	29 9e       	mul	r2, r25
    48a4:	50 0d       	add	r21, r0
    48a6:	38 9e       	mul	r3, r24
    48a8:	50 0d       	add	r21, r0
    48aa:	11 24       	eor	r1, r1
    48ac:	2e 85       	ldd	r18, Y+14	; 0x0e
    48ae:	b2 01       	movw	r22, r4
    48b0:	62 0f       	add	r22, r18
    48b2:	71 1d       	adc	r23, r1
    48b4:	27 fd       	sbrc	r18, 7
    48b6:	7a 95       	dec	r23
    48b8:	9b 01       	movw	r18, r22
    48ba:	22 9d       	mul	r18, r2
    48bc:	b0 01       	movw	r22, r0
    48be:	23 9d       	mul	r18, r3
    48c0:	70 0d       	add	r23, r0
    48c2:	32 9d       	mul	r19, r2
    48c4:	70 0d       	add	r23, r0
    48c6:	11 24       	eor	r1, r1
    48c8:	ea 89       	ldd	r30, Y+18	; 0x12
    48ca:	fb 89       	ldd	r31, Y+19	; 0x13
    48cc:	6e 0f       	add	r22, r30
    48ce:	7f 1f       	adc	r23, r31
    48d0:	ed 85       	ldd	r30, Y+13	; 0x0d
    48d2:	2a 2d       	mov	r18, r10
    48d4:	30 e0       	ldi	r19, 0x00	; 0
    48d6:	2e 0f       	add	r18, r30
    48d8:	31 1d       	adc	r19, r1
    48da:	e7 fd       	sbrc	r30, 7
    48dc:	3a 95       	dec	r19
    48de:	28 1b       	sub	r18, r24
    48e0:	39 0b       	sbc	r19, r25
    48e2:	22 9d       	mul	r18, r2
    48e4:	c0 01       	movw	r24, r0
    48e6:	23 9d       	mul	r18, r3
    48e8:	90 0d       	add	r25, r0
    48ea:	32 9d       	mul	r19, r2
    48ec:	90 0d       	add	r25, r0
    48ee:	11 24       	eor	r1, r1
    48f0:	e8 8c       	ldd	r14, Y+24	; 0x18
    48f2:	f9 8c       	ldd	r15, Y+25	; 0x19
    48f4:	0a 8d       	ldd	r16, Y+26	; 0x1a
    48f6:	1b 8d       	ldd	r17, Y+27	; 0x1b
    48f8:	2c 8d       	ldd	r18, Y+28	; 0x1c
    48fa:	3d 8d       	ldd	r19, Y+29	; 0x1d
    48fc:	e8 89       	ldd	r30, Y+16	; 0x10
    48fe:	f9 89       	ldd	r31, Y+17	; 0x11
    4900:	8e 0f       	add	r24, r30
    4902:	9f 1f       	adc	r25, r31
    4904:	0e 94 2f 1a 	call	0x345e	; 0x345e <LCD_Rect_Fill>
    4908:	80 e0       	ldi	r24, 0x00	; 0
    490a:	90 e0       	ldi	r25, 0x00	; 0
    490c:	b6 94       	lsr	r11
    490e:	a3 94       	inc	r10
    4910:	2a 85       	ldd	r18, Y+10	; 0x0a
    4912:	a2 16       	cp	r10, r18
    4914:	08 f4       	brcc	.+2      	; 0x4918 <LCD_Font+0x1a2>
    4916:	af cf       	rjmp	.-162    	; 0x4876 <LCD_Font+0x100>
    4918:	00 97       	sbiw	r24, 0x00	; 0
    491a:	b1 f1       	breq	.+108    	; 0x4988 <LCD_Font+0x212>
    491c:	28 9e       	mul	r2, r24
    491e:	a0 01       	movw	r20, r0
    4920:	29 9e       	mul	r2, r25
    4922:	50 0d       	add	r21, r0
    4924:	38 9e       	mul	r3, r24
    4926:	50 0d       	add	r21, r0
    4928:	11 24       	eor	r1, r1
    492a:	6e 85       	ldd	r22, Y+14	; 0x0e
    492c:	ff 85       	ldd	r31, Y+15	; 0x0f
    492e:	2f 2f       	mov	r18, r31
    4930:	30 e0       	ldi	r19, 0x00	; 0
    4932:	26 0f       	add	r18, r22
    4934:	31 1d       	adc	r19, r1
    4936:	67 fd       	sbrc	r22, 7
    4938:	3a 95       	dec	r19
    493a:	22 9d       	mul	r18, r2
    493c:	b0 01       	movw	r22, r0
    493e:	23 9d       	mul	r18, r3
    4940:	70 0d       	add	r23, r0
    4942:	32 9d       	mul	r19, r2
    4944:	70 0d       	add	r23, r0
    4946:	11 24       	eor	r1, r1
    4948:	2a 89       	ldd	r18, Y+18	; 0x12
    494a:	3b 89       	ldd	r19, Y+19	; 0x13
    494c:	62 0f       	add	r22, r18
    494e:	73 1f       	adc	r23, r19
    4950:	ed 85       	ldd	r30, Y+13	; 0x0d
    4952:	2a 2d       	mov	r18, r10
    4954:	30 e0       	ldi	r19, 0x00	; 0
    4956:	2e 0f       	add	r18, r30
    4958:	31 1d       	adc	r19, r1
    495a:	e7 fd       	sbrc	r30, 7
    495c:	3a 95       	dec	r19
    495e:	28 1b       	sub	r18, r24
    4960:	39 0b       	sbc	r19, r25
    4962:	22 9d       	mul	r18, r2
    4964:	c0 01       	movw	r24, r0
    4966:	23 9d       	mul	r18, r3
    4968:	90 0d       	add	r25, r0
    496a:	32 9d       	mul	r19, r2
    496c:	90 0d       	add	r25, r0
    496e:	11 24       	eor	r1, r1
    4970:	e8 8c       	ldd	r14, Y+24	; 0x18
    4972:	f9 8c       	ldd	r15, Y+25	; 0x19
    4974:	0a 8d       	ldd	r16, Y+26	; 0x1a
    4976:	1b 8d       	ldd	r17, Y+27	; 0x1b
    4978:	2c 8d       	ldd	r18, Y+28	; 0x1c
    497a:	3d 8d       	ldd	r19, Y+29	; 0x1d
    497c:	e8 89       	ldd	r30, Y+16	; 0x10
    497e:	f9 89       	ldd	r31, Y+17	; 0x11
    4980:	8e 0f       	add	r24, r30
    4982:	9f 1f       	adc	r25, r31
    4984:	0e 94 2f 1a 	call	0x345e	; 0x345e <LCD_Rect_Fill>
    4988:	ff 85       	ldd	r31, Y+15	; 0x0f
    498a:	ff 5f       	subi	r31, 0xFF	; 255
    498c:	ff 87       	std	Y+15, r31	; 0x0f
    498e:	8b 85       	ldd	r24, Y+11	; 0x0b
    4990:	f8 17       	cp	r31, r24
    4992:	40 f0       	brcs	.+16     	; 0x49a4 <LCD_Font+0x22e>
    4994:	68 a0       	ldd	r6, Y+32	; 0x20
    4996:	79 a0       	ldd	r7, Y+33	; 0x21
    4998:	09 c0       	rjmp	.+18     	; 0x49ac <LCD_Font+0x236>
    499a:	1f 86       	std	Y+15, r1	; 0x0f
    499c:	b1 2c       	mov	r11, r1
    499e:	79 a2       	std	Y+33, r7	; 0x21
    49a0:	68 a2       	std	Y+32, r6	; 0x20
    49a2:	7b 2c       	mov	r7, r11
    49a4:	8a 85       	ldd	r24, Y+10	; 0x0a
    49a6:	81 11       	cpse	r24, r1
    49a8:	60 cf       	rjmp	.-320    	; 0x486a <LCD_Font+0xf4>
    49aa:	ee cf       	rjmp	.-36     	; 0x4988 <LCD_Font+0x212>
    49ac:	2c 85       	ldd	r18, Y+12	; 0x0c
    49ae:	22 9d       	mul	r18, r2
    49b0:	c0 01       	movw	r24, r0
    49b2:	23 9d       	mul	r18, r3
    49b4:	90 0d       	add	r25, r0
    49b6:	11 24       	eor	r1, r1
    49b8:	28 89       	ldd	r18, Y+16	; 0x10
    49ba:	39 89       	ldd	r19, Y+17	; 0x11
    49bc:	28 0f       	add	r18, r24
    49be:	39 1f       	adc	r19, r25
    49c0:	39 8b       	std	Y+17, r19	; 0x11
    49c2:	28 8b       	std	Y+16, r18	; 0x10
    49c4:	3f ef       	ldi	r19, 0xFF	; 255
    49c6:	63 1a       	sub	r6, r19
    49c8:	73 0a       	sbc	r7, r19
    49ca:	ec 89       	ldd	r30, Y+20	; 0x14
    49cc:	fd 89       	ldd	r31, Y+21	; 0x15
    49ce:	01 90       	ld	r0, Z+
    49d0:	00 20       	and	r0, r0
    49d2:	e9 f7       	brne	.-6      	; 0x49ce <LCD_Font+0x258>
    49d4:	31 97       	sbiw	r30, 0x01	; 1
    49d6:	6c 89       	ldd	r22, Y+20	; 0x14
    49d8:	7d 89       	ldd	r23, Y+21	; 0x15
    49da:	e6 1b       	sub	r30, r22
    49dc:	f7 0b       	sbc	r31, r23
    49de:	6e 16       	cp	r6, r30
    49e0:	7f 06       	cpc	r7, r31
    49e2:	08 f4       	brcc	.+2      	; 0x49e6 <LCD_Font+0x270>
    49e4:	01 cf       	rjmp	.-510    	; 0x47e8 <LCD_Font+0x72>
    49e6:	a1 96       	adiw	r28, 0x21	; 33
    49e8:	0f b6       	in	r0, 0x3f	; 63
    49ea:	f8 94       	cli
    49ec:	de bf       	out	0x3e, r29	; 62
    49ee:	0f be       	out	0x3f, r0	; 63
    49f0:	cd bf       	out	0x3d, r28	; 61
    49f2:	df 91       	pop	r29
    49f4:	cf 91       	pop	r28
    49f6:	1f 91       	pop	r17
    49f8:	0f 91       	pop	r16
    49fa:	ff 90       	pop	r15
    49fc:	ef 90       	pop	r14
    49fe:	df 90       	pop	r13
    4a00:	cf 90       	pop	r12
    4a02:	bf 90       	pop	r11
    4a04:	af 90       	pop	r10
    4a06:	9f 90       	pop	r9
    4a08:	8f 90       	pop	r8
    4a0a:	7f 90       	pop	r7
    4a0c:	6f 90       	pop	r6
    4a0e:	5f 90       	pop	r5
    4a10:	4f 90       	pop	r4
    4a12:	3f 90       	pop	r3
    4a14:	2f 90       	pop	r2
    4a16:	08 95       	ret

00004a18 <LCD_Init>:

void LCD_Init(void)
{
	REG_PART_1_DDR = 0xFF; REG_PART_2_DDR = 0xFF; COMMAND_DDR = 0xFF;
    4a18:	8f ef       	ldi	r24, 0xFF	; 255
    4a1a:	84 bb       	out	0x14, r24	; 20
    4a1c:	81 bb       	out	0x11, r24	; 17
    4a1e:	8a bb       	out	0x1a, r24	; 26
    4a20:	2f ef       	ldi	r18, 0xFF	; 255
    4a22:	30 e7       	ldi	r19, 0x70	; 112
    4a24:	42 e0       	ldi	r20, 0x02	; 2
    4a26:	21 50       	subi	r18, 0x01	; 1
    4a28:	30 40       	sbci	r19, 0x00	; 0
    4a2a:	40 40       	sbci	r20, 0x00	; 0
    4a2c:	e1 f7       	brne	.-8      	; 0x4a26 <LCD_Init+0xe>
    4a2e:	00 c0       	rjmp	.+0      	; 0x4a30 <LCD_Init+0x18>
    4a30:	00 00       	nop
	_delay_ms(100);
	if (LCD_RT_SOFT) LCD_RT_S
    4a32:	dc 9a       	sbi	0x1b, 4	; 27
    4a34:	5f e7       	ldi	r21, 0x7F	; 127
    4a36:	99 ea       	ldi	r25, 0xA9	; 169
    4a38:	23 e0       	ldi	r18, 0x03	; 3
    4a3a:	51 50       	subi	r21, 0x01	; 1
    4a3c:	90 40       	sbci	r25, 0x00	; 0
    4a3e:	20 40       	sbci	r18, 0x00	; 0
    4a40:	e1 f7       	brne	.-8      	; 0x4a3a <LCD_Init+0x22>
    4a42:	00 c0       	rjmp	.+0      	; 0x4a44 <LCD_Init+0x2c>
    4a44:	00 00       	nop
	else return ((r / 8) << 11) | ((g / 4) << 5) | (b / 8);
}

inline static void LCD_Send_Cmd(uint16_t cmd)
{
	LCD_RS_U
    4a46:	d8 98       	cbi	0x1b, 0	; 27
	LCD_RD_S
    4a48:	da 9a       	sbi	0x1b, 2	; 27
	LCD_CS_U
    4a4a:	db 98       	cbi	0x1b, 3	; 27
	REG_PART_1_PORT = (cmd & 0x00FF);
    4a4c:	91 e0       	ldi	r25, 0x01	; 1
    4a4e:	95 bb       	out	0x15, r25	; 21
	REG_PART_2_PORT = (cmd & 0xFF00) >> 8;
    4a50:	12 ba       	out	0x12, r1	; 18
	LCD_WR_U
    4a52:	d9 98       	cbi	0x1b, 1	; 27
	#else
		//round up by default
		__ticks_dc = (uint32_t)(ceil(fabs(__tmp)));
	#endif

	__builtin_avr_delay_cycles(__ticks_dc);
    4a54:	3d e0       	ldi	r19, 0x0D	; 13
    4a56:	3a 95       	dec	r19
    4a58:	f1 f7       	brne	.-4      	; 0x4a56 <LCD_Init+0x3e>
    4a5a:	00 00       	nop
	_delay_us(5);
	LCD_WR_S
    4a5c:	d9 9a       	sbi	0x1b, 1	; 27
	LCD_CS_S
    4a5e:	db 9a       	sbi	0x1b, 3	; 27
	else return ((r / 8) << 11) | ((g / 4) << 5) | (b / 8);
}

inline static void LCD_Send_Cmd(uint16_t cmd)
{
	LCD_RS_U
    4a60:	d8 98       	cbi	0x1b, 0	; 27
	LCD_RD_S
    4a62:	da 9a       	sbi	0x1b, 2	; 27
	LCD_CS_U
    4a64:	db 98       	cbi	0x1b, 3	; 27
	REG_PART_1_PORT = (cmd & 0x00FF);
    4a66:	29 e2       	ldi	r18, 0x29	; 41
    4a68:	25 bb       	out	0x15, r18	; 21
	REG_PART_2_PORT = (cmd & 0xFF00) >> 8;
    4a6a:	12 ba       	out	0x12, r1	; 18
	LCD_WR_U
    4a6c:	d9 98       	cbi	0x1b, 1	; 27
    4a6e:	4d e0       	ldi	r20, 0x0D	; 13
    4a70:	4a 95       	dec	r20
    4a72:	f1 f7       	brne	.-4      	; 0x4a70 <LCD_Init+0x58>
    4a74:	00 00       	nop
	_delay_us(5);
	LCD_WR_S
    4a76:	d9 9a       	sbi	0x1b, 1	; 27
	LCD_CS_S
    4a78:	db 9a       	sbi	0x1b, 3	; 27
	else return ((r / 8) << 11) | ((g / 4) << 5) | (b / 8);
}

inline static void LCD_Send_Cmd(uint16_t cmd)
{
	LCD_RS_U
    4a7a:	d8 98       	cbi	0x1b, 0	; 27
	LCD_RD_S
    4a7c:	da 9a       	sbi	0x1b, 2	; 27
	LCD_CS_U
    4a7e:	db 98       	cbi	0x1b, 3	; 27
	REG_PART_1_PORT = (cmd & 0x00FF);
    4a80:	22 ee       	ldi	r18, 0xE2	; 226
    4a82:	25 bb       	out	0x15, r18	; 21
	REG_PART_2_PORT = (cmd & 0xFF00) >> 8;
    4a84:	12 ba       	out	0x12, r1	; 18
	LCD_WR_U
    4a86:	d9 98       	cbi	0x1b, 1	; 27
    4a88:	5d e0       	ldi	r21, 0x0D	; 13
    4a8a:	5a 95       	dec	r21
    4a8c:	f1 f7       	brne	.-4      	; 0x4a8a <LCD_Init+0x72>
    4a8e:	00 00       	nop
	_delay_us(5);
	LCD_WR_S
    4a90:	d9 9a       	sbi	0x1b, 1	; 27
	LCD_CS_S
    4a92:	db 9a       	sbi	0x1b, 3	; 27
}

inline static void LCD_Send_Dat(uint16_t dat)
{
	LCD_RS_S
    4a94:	d8 9a       	sbi	0x1b, 0	; 27
	LCD_RD_S
    4a96:	da 9a       	sbi	0x1b, 2	; 27
	LCD_CS_U
    4a98:	db 98       	cbi	0x1b, 3	; 27
	REG_PART_1_PORT = (dat & 0x00FF);
    4a9a:	2d e1       	ldi	r18, 0x1D	; 29
    4a9c:	25 bb       	out	0x15, r18	; 21
	REG_PART_2_PORT = (dat & 0xFF00) >> 8;
    4a9e:	12 ba       	out	0x12, r1	; 18
	LCD_WR_U
    4aa0:	d9 98       	cbi	0x1b, 1	; 27
    4aa2:	3d e0       	ldi	r19, 0x0D	; 13
    4aa4:	3a 95       	dec	r19
    4aa6:	f1 f7       	brne	.-4      	; 0x4aa4 <LCD_Init+0x8c>
    4aa8:	00 00       	nop
	_delay_us(5);
	LCD_WR_S
    4aaa:	d9 9a       	sbi	0x1b, 1	; 27
	LCD_CS_S
    4aac:	db 9a       	sbi	0x1b, 3	; 27
	LCD_CS_S
}

inline static void LCD_Send_Dat(uint16_t dat)
{
	LCD_RS_S
    4aae:	d8 9a       	sbi	0x1b, 0	; 27
	LCD_RD_S
    4ab0:	da 9a       	sbi	0x1b, 2	; 27
	LCD_CS_U
    4ab2:	db 98       	cbi	0x1b, 3	; 27
	REG_PART_1_PORT = (dat & 0x00FF);
    4ab4:	32 e0       	ldi	r19, 0x02	; 2
    4ab6:	35 bb       	out	0x15, r19	; 21
	REG_PART_2_PORT = (dat & 0xFF00) >> 8;
    4ab8:	12 ba       	out	0x12, r1	; 18
	LCD_WR_U
    4aba:	d9 98       	cbi	0x1b, 1	; 27
    4abc:	4d e0       	ldi	r20, 0x0D	; 13
    4abe:	4a 95       	dec	r20
    4ac0:	f1 f7       	brne	.-4      	; 0x4abe <LCD_Init+0xa6>
    4ac2:	00 00       	nop
	_delay_us(5);
	LCD_WR_S
    4ac4:	d9 9a       	sbi	0x1b, 1	; 27
	LCD_CS_S
    4ac6:	db 9a       	sbi	0x1b, 3	; 27
	LCD_CS_S
}

inline static void LCD_Send_Dat(uint16_t dat)
{
	LCD_RS_S
    4ac8:	d8 9a       	sbi	0x1b, 0	; 27
	LCD_RD_S
    4aca:	da 9a       	sbi	0x1b, 2	; 27
	LCD_CS_U
    4acc:	db 98       	cbi	0x1b, 3	; 27
	REG_PART_1_PORT = (dat & 0x00FF);
    4ace:	85 bb       	out	0x15, r24	; 21
	REG_PART_2_PORT = (dat & 0xFF00) >> 8;
    4ad0:	12 ba       	out	0x12, r1	; 18
	LCD_WR_U
    4ad2:	d9 98       	cbi	0x1b, 1	; 27
    4ad4:	5d e0       	ldi	r21, 0x0D	; 13
    4ad6:	5a 95       	dec	r21
    4ad8:	f1 f7       	brne	.-4      	; 0x4ad6 <LCD_Init+0xbe>
    4ada:	00 00       	nop
	_delay_us(5);
	LCD_WR_S
    4adc:	d9 9a       	sbi	0x1b, 1	; 27
	LCD_CS_S
    4ade:	db 9a       	sbi	0x1b, 3	; 27
	else return ((r / 8) << 11) | ((g / 4) << 5) | (b / 8);
}

inline static void LCD_Send_Cmd(uint16_t cmd)
{
	LCD_RS_U
    4ae0:	d8 98       	cbi	0x1b, 0	; 27
	LCD_RD_S
    4ae2:	da 9a       	sbi	0x1b, 2	; 27
	LCD_CS_U
    4ae4:	db 98       	cbi	0x1b, 3	; 27
	REG_PART_1_PORT = (cmd & 0x00FF);
    4ae6:	80 ee       	ldi	r24, 0xE0	; 224
    4ae8:	85 bb       	out	0x15, r24	; 21
	REG_PART_2_PORT = (cmd & 0xFF00) >> 8;
    4aea:	12 ba       	out	0x12, r1	; 18
	LCD_WR_U
    4aec:	d9 98       	cbi	0x1b, 1	; 27
    4aee:	3d e0       	ldi	r19, 0x0D	; 13
    4af0:	3a 95       	dec	r19
    4af2:	f1 f7       	brne	.-4      	; 0x4af0 <LCD_Init+0xd8>
    4af4:	00 00       	nop
	_delay_us(5);
	LCD_WR_S
    4af6:	d9 9a       	sbi	0x1b, 1	; 27
	LCD_CS_S
    4af8:	db 9a       	sbi	0x1b, 3	; 27
}

inline static void LCD_Send_Dat(uint16_t dat)
{
	LCD_RS_S
    4afa:	d8 9a       	sbi	0x1b, 0	; 27
	LCD_RD_S
    4afc:	da 9a       	sbi	0x1b, 2	; 27
	LCD_CS_U
    4afe:	db 98       	cbi	0x1b, 3	; 27
	REG_PART_1_PORT = (dat & 0x00FF);
    4b00:	95 bb       	out	0x15, r25	; 21
	REG_PART_2_PORT = (dat & 0xFF00) >> 8;
    4b02:	12 ba       	out	0x12, r1	; 18
	LCD_WR_U
    4b04:	d9 98       	cbi	0x1b, 1	; 27
    4b06:	4d e0       	ldi	r20, 0x0D	; 13
    4b08:	4a 95       	dec	r20
    4b0a:	f1 f7       	brne	.-4      	; 0x4b08 <LCD_Init+0xf0>
    4b0c:	00 00       	nop
	_delay_us(5);
	LCD_WR_S
    4b0e:	d9 9a       	sbi	0x1b, 1	; 27
	LCD_CS_S
    4b10:	db 9a       	sbi	0x1b, 3	; 27
	#else
		//round up by default
		__ticks_dc = (uint32_t)(ceil(fabs(__tmp)));
	#endif

	__builtin_avr_delay_cycles(__ticks_dc);
    4b12:	5f ef       	ldi	r21, 0xFF	; 255
    4b14:	3d ee       	ldi	r19, 0xED	; 237
    4b16:	42 e0       	ldi	r20, 0x02	; 2
    4b18:	51 50       	subi	r21, 0x01	; 1
    4b1a:	30 40       	sbci	r19, 0x00	; 0
    4b1c:	40 40       	sbci	r20, 0x00	; 0
    4b1e:	e1 f7       	brne	.-8      	; 0x4b18 <LCD_Init+0x100>
    4b20:	00 c0       	rjmp	.+0      	; 0x4b22 <LCD_Init+0x10a>
    4b22:	00 00       	nop
	else return ((r / 8) << 11) | ((g / 4) << 5) | (b / 8);
}

inline static void LCD_Send_Cmd(uint16_t cmd)
{
	LCD_RS_U
    4b24:	d8 98       	cbi	0x1b, 0	; 27
	LCD_RD_S
    4b26:	da 9a       	sbi	0x1b, 2	; 27
	LCD_CS_U
    4b28:	db 98       	cbi	0x1b, 3	; 27
	REG_PART_1_PORT = (cmd & 0x00FF);
    4b2a:	85 bb       	out	0x15, r24	; 21
	REG_PART_2_PORT = (cmd & 0xFF00) >> 8;
    4b2c:	12 ba       	out	0x12, r1	; 18
	LCD_WR_U
    4b2e:	d9 98       	cbi	0x1b, 1	; 27
	#else
		//round up by default
		__ticks_dc = (uint32_t)(ceil(fabs(__tmp)));
	#endif

	__builtin_avr_delay_cycles(__ticks_dc);
    4b30:	5d e0       	ldi	r21, 0x0D	; 13
    4b32:	5a 95       	dec	r21
    4b34:	f1 f7       	brne	.-4      	; 0x4b32 <LCD_Init+0x11a>
    4b36:	00 00       	nop
	_delay_us(5);
	LCD_WR_S
    4b38:	d9 9a       	sbi	0x1b, 1	; 27
	LCD_CS_S
    4b3a:	db 9a       	sbi	0x1b, 3	; 27
}

inline static void LCD_Send_Dat(uint16_t dat)
{
	LCD_RS_S
    4b3c:	d8 9a       	sbi	0x1b, 0	; 27
	LCD_RD_S
    4b3e:	da 9a       	sbi	0x1b, 2	; 27
	LCD_CS_U
    4b40:	db 98       	cbi	0x1b, 3	; 27
	REG_PART_1_PORT = (dat & 0x00FF);
    4b42:	83 e0       	ldi	r24, 0x03	; 3
    4b44:	85 bb       	out	0x15, r24	; 21
	REG_PART_2_PORT = (dat & 0xFF00) >> 8;
    4b46:	12 ba       	out	0x12, r1	; 18
	LCD_WR_U
    4b48:	d9 98       	cbi	0x1b, 1	; 27
    4b4a:	3d e0       	ldi	r19, 0x0D	; 13
    4b4c:	3a 95       	dec	r19
    4b4e:	f1 f7       	brne	.-4      	; 0x4b4c <LCD_Init+0x134>
    4b50:	00 00       	nop
	_delay_us(5);
	LCD_WR_S
    4b52:	d9 9a       	sbi	0x1b, 1	; 27
	LCD_CS_S
    4b54:	db 9a       	sbi	0x1b, 3	; 27
	#else
		//round up by default
		__ticks_dc = (uint32_t)(ceil(fabs(__tmp)));
	#endif

	__builtin_avr_delay_cycles(__ticks_dc);
    4b56:	4f ef       	ldi	r20, 0xFF	; 255
    4b58:	5d ee       	ldi	r21, 0xED	; 237
    4b5a:	32 e0       	ldi	r19, 0x02	; 2
    4b5c:	41 50       	subi	r20, 0x01	; 1
    4b5e:	50 40       	sbci	r21, 0x00	; 0
    4b60:	30 40       	sbci	r19, 0x00	; 0
    4b62:	e1 f7       	brne	.-8      	; 0x4b5c <LCD_Init+0x144>
    4b64:	00 c0       	rjmp	.+0      	; 0x4b66 <LCD_Init+0x14e>
    4b66:	00 00       	nop
	else return ((r / 8) << 11) | ((g / 4) << 5) | (b / 8);
}

inline static void LCD_Send_Cmd(uint16_t cmd)
{
	LCD_RS_U
    4b68:	d8 98       	cbi	0x1b, 0	; 27
	LCD_RD_S
    4b6a:	da 9a       	sbi	0x1b, 2	; 27
	LCD_CS_U
    4b6c:	db 98       	cbi	0x1b, 3	; 27
	REG_PART_1_PORT = (cmd & 0x00FF);
    4b6e:	95 bb       	out	0x15, r25	; 21
	REG_PART_2_PORT = (cmd & 0xFF00) >> 8;
    4b70:	12 ba       	out	0x12, r1	; 18
	LCD_WR_U
    4b72:	d9 98       	cbi	0x1b, 1	; 27
	#else
		//round up by default
		__ticks_dc = (uint32_t)(ceil(fabs(__tmp)));
	#endif

	__builtin_avr_delay_cycles(__ticks_dc);
    4b74:	4d e0       	ldi	r20, 0x0D	; 13
    4b76:	4a 95       	dec	r20
    4b78:	f1 f7       	brne	.-4      	; 0x4b76 <LCD_Init+0x15e>
    4b7a:	00 00       	nop
	_delay_us(5);
	LCD_WR_S
    4b7c:	d9 9a       	sbi	0x1b, 1	; 27
	LCD_CS_S
    4b7e:	db 9a       	sbi	0x1b, 3	; 27
	#else
		//round up by default
		__ticks_dc = (uint32_t)(ceil(fabs(__tmp)));
	#endif

	__builtin_avr_delay_cycles(__ticks_dc);
    4b80:	5f ef       	ldi	r21, 0xFF	; 255
    4b82:	3d ee       	ldi	r19, 0xED	; 237
    4b84:	42 e0       	ldi	r20, 0x02	; 2
    4b86:	51 50       	subi	r21, 0x01	; 1
    4b88:	30 40       	sbci	r19, 0x00	; 0
    4b8a:	40 40       	sbci	r20, 0x00	; 0
    4b8c:	e1 f7       	brne	.-8      	; 0x4b86 <LCD_Init+0x16e>
    4b8e:	00 c0       	rjmp	.+0      	; 0x4b90 <LCD_Init+0x178>
    4b90:	00 00       	nop
	else return ((r / 8) << 11) | ((g / 4) << 5) | (b / 8);
}

inline static void LCD_Send_Cmd(uint16_t cmd)
{
	LCD_RS_U
    4b92:	d8 98       	cbi	0x1b, 0	; 27
	LCD_RD_S
    4b94:	da 9a       	sbi	0x1b, 2	; 27
	LCD_CS_U
    4b96:	db 98       	cbi	0x1b, 3	; 27
	REG_PART_1_PORT = (cmd & 0x00FF);
    4b98:	36 ee       	ldi	r19, 0xE6	; 230
    4b9a:	35 bb       	out	0x15, r19	; 21
	REG_PART_2_PORT = (cmd & 0xFF00) >> 8;
    4b9c:	12 ba       	out	0x12, r1	; 18
	LCD_WR_U
    4b9e:	d9 98       	cbi	0x1b, 1	; 27
	#else
		//round up by default
		__ticks_dc = (uint32_t)(ceil(fabs(__tmp)));
	#endif

	__builtin_avr_delay_cycles(__ticks_dc);
    4ba0:	5d e0       	ldi	r21, 0x0D	; 13
    4ba2:	5a 95       	dec	r21
    4ba4:	f1 f7       	brne	.-4      	; 0x4ba2 <LCD_Init+0x18a>
    4ba6:	00 00       	nop
	_delay_us(5);
	LCD_WR_S
    4ba8:	d9 9a       	sbi	0x1b, 1	; 27
	LCD_CS_S
    4baa:	db 9a       	sbi	0x1b, 3	; 27
}

inline static void LCD_Send_Dat(uint16_t dat)
{
	LCD_RS_S
    4bac:	d8 9a       	sbi	0x1b, 0	; 27
	LCD_RD_S
    4bae:	da 9a       	sbi	0x1b, 2	; 27
	LCD_CS_U
    4bb0:	db 98       	cbi	0x1b, 3	; 27
	REG_PART_1_PORT = (dat & 0x00FF);
    4bb2:	85 bb       	out	0x15, r24	; 21
	REG_PART_2_PORT = (dat & 0xFF00) >> 8;
    4bb4:	12 ba       	out	0x12, r1	; 18
	LCD_WR_U
    4bb6:	d9 98       	cbi	0x1b, 1	; 27
    4bb8:	3d e0       	ldi	r19, 0x0D	; 13
    4bba:	3a 95       	dec	r19
    4bbc:	f1 f7       	brne	.-4      	; 0x4bba <LCD_Init+0x1a2>
    4bbe:	00 00       	nop
	_delay_us(5);
	LCD_WR_S
    4bc0:	d9 9a       	sbi	0x1b, 1	; 27
	LCD_CS_S
    4bc2:	db 9a       	sbi	0x1b, 3	; 27
	LCD_CS_S
}

inline static void LCD_Send_Dat(uint16_t dat)
{
	LCD_RS_S
    4bc4:	d8 9a       	sbi	0x1b, 0	; 27
	LCD_RD_S
    4bc6:	da 9a       	sbi	0x1b, 2	; 27
	LCD_CS_U
    4bc8:	db 98       	cbi	0x1b, 3	; 27
	REG_PART_1_PORT = (dat & 0x00FF);
    4bca:	35 e8       	ldi	r19, 0x85	; 133
    4bcc:	35 bb       	out	0x15, r19	; 21
	REG_PART_2_PORT = (dat & 0xFF00) >> 8;
    4bce:	12 ba       	out	0x12, r1	; 18
	LCD_WR_U
    4bd0:	d9 98       	cbi	0x1b, 1	; 27
    4bd2:	4d e0       	ldi	r20, 0x0D	; 13
    4bd4:	4a 95       	dec	r20
    4bd6:	f1 f7       	brne	.-4      	; 0x4bd4 <LCD_Init+0x1bc>
    4bd8:	00 00       	nop
	_delay_us(5);
	LCD_WR_S
    4bda:	d9 9a       	sbi	0x1b, 1	; 27
	LCD_CS_S
    4bdc:	db 9a       	sbi	0x1b, 3	; 27
	LCD_CS_S
}

inline static void LCD_Send_Dat(uint16_t dat)
{
	LCD_RS_S
    4bde:	d8 9a       	sbi	0x1b, 0	; 27
	LCD_RD_S
    4be0:	da 9a       	sbi	0x1b, 2	; 27
	LCD_CS_U
    4be2:	db 98       	cbi	0x1b, 3	; 27
	REG_PART_1_PORT = (dat & 0x00FF);
    4be4:	25 bb       	out	0x15, r18	; 21
	REG_PART_2_PORT = (dat & 0xFF00) >> 8;
    4be6:	12 ba       	out	0x12, r1	; 18
	LCD_WR_U
    4be8:	d9 98       	cbi	0x1b, 1	; 27
    4bea:	5d e0       	ldi	r21, 0x0D	; 13
    4bec:	5a 95       	dec	r21
    4bee:	f1 f7       	brne	.-4      	; 0x4bec <LCD_Init+0x1d4>
    4bf0:	00 00       	nop
	_delay_us(5);
	LCD_WR_S
    4bf2:	d9 9a       	sbi	0x1b, 1	; 27
	LCD_CS_S
    4bf4:	db 9a       	sbi	0x1b, 3	; 27
	else return ((r / 8) << 11) | ((g / 4) << 5) | (b / 8);
}

inline static void LCD_Send_Cmd(uint16_t cmd)
{
	LCD_RS_U
    4bf6:	d8 98       	cbi	0x1b, 0	; 27
	LCD_RD_S
    4bf8:	da 9a       	sbi	0x1b, 2	; 27
	LCD_CS_U
    4bfa:	db 98       	cbi	0x1b, 3	; 27
	REG_PART_1_PORT = (cmd & 0x00FF);
    4bfc:	20 eb       	ldi	r18, 0xB0	; 176
    4bfe:	25 bb       	out	0x15, r18	; 21
	REG_PART_2_PORT = (cmd & 0xFF00) >> 8;
    4c00:	12 ba       	out	0x12, r1	; 18
	LCD_WR_U
    4c02:	d9 98       	cbi	0x1b, 1	; 27
    4c04:	2d e0       	ldi	r18, 0x0D	; 13
    4c06:	2a 95       	dec	r18
    4c08:	f1 f7       	brne	.-4      	; 0x4c06 <LCD_Init+0x1ee>
    4c0a:	00 00       	nop
	_delay_us(5);
	LCD_WR_S
    4c0c:	d9 9a       	sbi	0x1b, 1	; 27
	LCD_CS_S
    4c0e:	db 9a       	sbi	0x1b, 3	; 27
}

inline static void LCD_Send_Dat(uint16_t dat)
{
	LCD_RS_S
    4c10:	d8 9a       	sbi	0x1b, 0	; 27
	LCD_RD_S
    4c12:	da 9a       	sbi	0x1b, 2	; 27
	LCD_CS_U
    4c14:	db 98       	cbi	0x1b, 3	; 27
	REG_PART_1_PORT = (dat & 0x00FF);
    4c16:	2e ea       	ldi	r18, 0xAE	; 174
    4c18:	25 bb       	out	0x15, r18	; 21
	REG_PART_2_PORT = (dat & 0xFF00) >> 8;
    4c1a:	12 ba       	out	0x12, r1	; 18
	LCD_WR_U
    4c1c:	d9 98       	cbi	0x1b, 1	; 27
    4c1e:	3d e0       	ldi	r19, 0x0D	; 13
    4c20:	3a 95       	dec	r19
    4c22:	f1 f7       	brne	.-4      	; 0x4c20 <LCD_Init+0x208>
    4c24:	00 00       	nop
	_delay_us(5);
	LCD_WR_S
    4c26:	d9 9a       	sbi	0x1b, 1	; 27
	LCD_CS_S
    4c28:	db 9a       	sbi	0x1b, 3	; 27
	LCD_CS_S
}

inline static void LCD_Send_Dat(uint16_t dat)
{
	LCD_RS_S
    4c2a:	d8 9a       	sbi	0x1b, 0	; 27
	LCD_RD_S
    4c2c:	da 9a       	sbi	0x1b, 2	; 27
	LCD_CS_U
    4c2e:	db 98       	cbi	0x1b, 3	; 27
	REG_PART_1_PORT = (dat & 0x00FF);
    4c30:	20 e2       	ldi	r18, 0x20	; 32
    4c32:	25 bb       	out	0x15, r18	; 21
	REG_PART_2_PORT = (dat & 0xFF00) >> 8;
    4c34:	12 ba       	out	0x12, r1	; 18
	LCD_WR_U
    4c36:	d9 98       	cbi	0x1b, 1	; 27
    4c38:	4d e0       	ldi	r20, 0x0D	; 13
    4c3a:	4a 95       	dec	r20
    4c3c:	f1 f7       	brne	.-4      	; 0x4c3a <LCD_Init+0x222>
    4c3e:	00 00       	nop
	_delay_us(5);
	LCD_WR_S
    4c40:	d9 9a       	sbi	0x1b, 1	; 27
	LCD_CS_S
    4c42:	db 9a       	sbi	0x1b, 3	; 27
	LCD_CS_S
}

inline static void LCD_Send_Dat(uint16_t dat)
{
	LCD_RS_S
    4c44:	d8 9a       	sbi	0x1b, 0	; 27
	LCD_RD_S
    4c46:	da 9a       	sbi	0x1b, 2	; 27
	LCD_CS_U
    4c48:	db 98       	cbi	0x1b, 3	; 27
	REG_PART_1_PORT = (dat & 0x00FF);
    4c4a:	85 bb       	out	0x15, r24	; 21
	REG_PART_2_PORT = (dat & 0xFF00) >> 8;
    4c4c:	12 ba       	out	0x12, r1	; 18
	LCD_WR_U
    4c4e:	d9 98       	cbi	0x1b, 1	; 27
    4c50:	5d e0       	ldi	r21, 0x0D	; 13
    4c52:	5a 95       	dec	r21
    4c54:	f1 f7       	brne	.-4      	; 0x4c52 <LCD_Init+0x23a>
    4c56:	00 00       	nop
	_delay_us(5);
	LCD_WR_S
    4c58:	d9 9a       	sbi	0x1b, 1	; 27
	LCD_CS_S
    4c5a:	db 9a       	sbi	0x1b, 3	; 27
	LCD_CS_S
}

inline static void LCD_Send_Dat(uint16_t dat)
{
	LCD_RS_S
    4c5c:	d8 9a       	sbi	0x1b, 0	; 27
	LCD_RD_S
    4c5e:	da 9a       	sbi	0x1b, 2	; 27
	LCD_CS_U
    4c60:	db 98       	cbi	0x1b, 3	; 27
	REG_PART_1_PORT = (dat & 0x00FF);
    4c62:	2f e1       	ldi	r18, 0x1F	; 31
    4c64:	25 bb       	out	0x15, r18	; 21
	REG_PART_2_PORT = (dat & 0xFF00) >> 8;
    4c66:	12 ba       	out	0x12, r1	; 18
	LCD_WR_U
    4c68:	d9 98       	cbi	0x1b, 1	; 27
    4c6a:	2d e0       	ldi	r18, 0x0D	; 13
    4c6c:	2a 95       	dec	r18
    4c6e:	f1 f7       	brne	.-4      	; 0x4c6c <LCD_Init+0x254>
    4c70:	00 00       	nop
	_delay_us(5);
	LCD_WR_S
    4c72:	d9 9a       	sbi	0x1b, 1	; 27
	LCD_CS_S
    4c74:	db 9a       	sbi	0x1b, 3	; 27
	LCD_CS_S
}

inline static void LCD_Send_Dat(uint16_t dat)
{
	LCD_RS_S
    4c76:	d8 9a       	sbi	0x1b, 0	; 27
	LCD_RD_S
    4c78:	da 9a       	sbi	0x1b, 2	; 27
	LCD_CS_U
    4c7a:	db 98       	cbi	0x1b, 3	; 27
	REG_PART_1_PORT = (dat & 0x00FF);
    4c7c:	95 bb       	out	0x15, r25	; 21
	REG_PART_2_PORT = (dat & 0xFF00) >> 8;
    4c7e:	12 ba       	out	0x12, r1	; 18
	LCD_WR_U
    4c80:	d9 98       	cbi	0x1b, 1	; 27
    4c82:	3d e0       	ldi	r19, 0x0D	; 13
    4c84:	3a 95       	dec	r19
    4c86:	f1 f7       	brne	.-4      	; 0x4c84 <LCD_Init+0x26c>
    4c88:	00 00       	nop
	_delay_us(5);
	LCD_WR_S
    4c8a:	d9 9a       	sbi	0x1b, 1	; 27
	LCD_CS_S
    4c8c:	db 9a       	sbi	0x1b, 3	; 27
	LCD_CS_S
}

inline static void LCD_Send_Dat(uint16_t dat)
{
	LCD_RS_S
    4c8e:	d8 9a       	sbi	0x1b, 0	; 27
	LCD_RD_S
    4c90:	da 9a       	sbi	0x1b, 2	; 27
	LCD_CS_U
    4c92:	db 98       	cbi	0x1b, 3	; 27
	REG_PART_1_PORT = (dat & 0x00FF);
    4c94:	9f ed       	ldi	r25, 0xDF	; 223
    4c96:	95 bb       	out	0x15, r25	; 21
	REG_PART_2_PORT = (dat & 0xFF00) >> 8;
    4c98:	12 ba       	out	0x12, r1	; 18
	LCD_WR_U
    4c9a:	d9 98       	cbi	0x1b, 1	; 27
    4c9c:	4d e0       	ldi	r20, 0x0D	; 13
    4c9e:	4a 95       	dec	r20
    4ca0:	f1 f7       	brne	.-4      	; 0x4c9e <LCD_Init+0x286>
    4ca2:	00 00       	nop
	_delay_us(5);
	LCD_WR_S
    4ca4:	d9 9a       	sbi	0x1b, 1	; 27
	LCD_CS_S
    4ca6:	db 9a       	sbi	0x1b, 3	; 27
	LCD_CS_S
}

inline static void LCD_Send_Dat(uint16_t dat)
{
	LCD_RS_S
    4ca8:	d8 9a       	sbi	0x1b, 0	; 27
	LCD_RD_S
    4caa:	da 9a       	sbi	0x1b, 2	; 27
	LCD_CS_U
    4cac:	db 98       	cbi	0x1b, 3	; 27
	REG_PART_1_PORT = (dat & 0x00FF);
    4cae:	9d e2       	ldi	r25, 0x2D	; 45
    4cb0:	95 bb       	out	0x15, r25	; 21
	REG_PART_2_PORT = (dat & 0xFF00) >> 8;
    4cb2:	12 ba       	out	0x12, r1	; 18
	LCD_WR_U
    4cb4:	d9 98       	cbi	0x1b, 1	; 27
    4cb6:	5d e0       	ldi	r21, 0x0D	; 13
    4cb8:	5a 95       	dec	r21
    4cba:	f1 f7       	brne	.-4      	; 0x4cb8 <LCD_Init+0x2a0>
    4cbc:	00 00       	nop
	_delay_us(5);
	LCD_WR_S
    4cbe:	d9 9a       	sbi	0x1b, 1	; 27
	LCD_CS_S
    4cc0:	db 9a       	sbi	0x1b, 3	; 27
	else return ((r / 8) << 11) | ((g / 4) << 5) | (b / 8);
}

inline static void LCD_Send_Cmd(uint16_t cmd)
{
	LCD_RS_U
    4cc2:	d8 98       	cbi	0x1b, 0	; 27
	LCD_RD_S
    4cc4:	da 9a       	sbi	0x1b, 2	; 27
	LCD_CS_U
    4cc6:	db 98       	cbi	0x1b, 3	; 27
	REG_PART_1_PORT = (cmd & 0x00FF);
    4cc8:	94 eb       	ldi	r25, 0xB4	; 180
    4cca:	95 bb       	out	0x15, r25	; 21
	REG_PART_2_PORT = (cmd & 0xFF00) >> 8;
    4ccc:	12 ba       	out	0x12, r1	; 18
	LCD_WR_U
    4cce:	d9 98       	cbi	0x1b, 1	; 27
    4cd0:	9d e0       	ldi	r25, 0x0D	; 13
    4cd2:	9a 95       	dec	r25
    4cd4:	f1 f7       	brne	.-4      	; 0x4cd2 <LCD_Init+0x2ba>
    4cd6:	00 00       	nop
	_delay_us(5);
	LCD_WR_S
    4cd8:	d9 9a       	sbi	0x1b, 1	; 27
	LCD_CS_S
    4cda:	db 9a       	sbi	0x1b, 3	; 27
}

inline static void LCD_Send_Dat(uint16_t dat)
{
	LCD_RS_S
    4cdc:	d8 9a       	sbi	0x1b, 0	; 27
	LCD_RD_S
    4cde:	da 9a       	sbi	0x1b, 2	; 27
	LCD_CS_U
    4ce0:	db 98       	cbi	0x1b, 3	; 27
	REG_PART_1_PORT = (dat & 0x00FF);
    4ce2:	85 bb       	out	0x15, r24	; 21
	REG_PART_2_PORT = (dat & 0xFF00) >> 8;
    4ce4:	12 ba       	out	0x12, r1	; 18
	LCD_WR_U
    4ce6:	d9 98       	cbi	0x1b, 1	; 27
    4ce8:	2d e0       	ldi	r18, 0x0D	; 13
    4cea:	2a 95       	dec	r18
    4cec:	f1 f7       	brne	.-4      	; 0x4cea <LCD_Init+0x2d2>
    4cee:	00 00       	nop
	_delay_us(5);
	LCD_WR_S
    4cf0:	d9 9a       	sbi	0x1b, 1	; 27
	LCD_CS_S
    4cf2:	db 9a       	sbi	0x1b, 3	; 27
	LCD_CS_S
}

inline static void LCD_Send_Dat(uint16_t dat)
{
	LCD_RS_S
    4cf4:	d8 9a       	sbi	0x1b, 0	; 27
	LCD_RD_S
    4cf6:	da 9a       	sbi	0x1b, 2	; 27
	LCD_CS_U
    4cf8:	db 98       	cbi	0x1b, 3	; 27
	REG_PART_1_PORT = (dat & 0x00FF);
    4cfa:	80 ea       	ldi	r24, 0xA0	; 160
    4cfc:	85 bb       	out	0x15, r24	; 21
	REG_PART_2_PORT = (dat & 0xFF00) >> 8;
    4cfe:	12 ba       	out	0x12, r1	; 18
	LCD_WR_U
    4d00:	d9 98       	cbi	0x1b, 1	; 27
    4d02:	3d e0       	ldi	r19, 0x0D	; 13
    4d04:	3a 95       	dec	r19
    4d06:	f1 f7       	brne	.-4      	; 0x4d04 <LCD_Init+0x2ec>
    4d08:	00 00       	nop
	_delay_us(5);
	LCD_WR_S
    4d0a:	d9 9a       	sbi	0x1b, 1	; 27
	LCD_CS_S
    4d0c:	db 9a       	sbi	0x1b, 3	; 27
	LCD_CS_S
}

inline static void LCD_Send_Dat(uint16_t dat)
{
	LCD_RS_S
    4d0e:	d8 9a       	sbi	0x1b, 0	; 27
	LCD_RD_S
    4d10:	da 9a       	sbi	0x1b, 2	; 27
	LCD_CS_U
    4d12:	db 98       	cbi	0x1b, 3	; 27
	REG_PART_1_PORT = (dat & 0x00FF);
    4d14:	15 ba       	out	0x15, r1	; 21
	REG_PART_2_PORT = (dat & 0xFF00) >> 8;
    4d16:	12 ba       	out	0x12, r1	; 18
	LCD_WR_U
    4d18:	d9 98       	cbi	0x1b, 1	; 27
    4d1a:	4d e0       	ldi	r20, 0x0D	; 13
    4d1c:	4a 95       	dec	r20
    4d1e:	f1 f7       	brne	.-4      	; 0x4d1c <LCD_Init+0x304>
    4d20:	00 00       	nop
	_delay_us(5);
	LCD_WR_S
    4d22:	d9 9a       	sbi	0x1b, 1	; 27
	LCD_CS_S
    4d24:	db 9a       	sbi	0x1b, 3	; 27
	LCD_CS_S
}

inline static void LCD_Send_Dat(uint16_t dat)
{
	LCD_RS_S
    4d26:	d8 9a       	sbi	0x1b, 0	; 27
	LCD_RD_S
    4d28:	da 9a       	sbi	0x1b, 2	; 27
	LCD_CS_U
    4d2a:	db 98       	cbi	0x1b, 3	; 27
	REG_PART_1_PORT = (dat & 0x00FF);
    4d2c:	8e e2       	ldi	r24, 0x2E	; 46
    4d2e:	85 bb       	out	0x15, r24	; 21
	REG_PART_2_PORT = (dat & 0xFF00) >> 8;
    4d30:	12 ba       	out	0x12, r1	; 18
	LCD_WR_U
    4d32:	d9 98       	cbi	0x1b, 1	; 27
    4d34:	5d e0       	ldi	r21, 0x0D	; 13
    4d36:	5a 95       	dec	r21
    4d38:	f1 f7       	brne	.-4      	; 0x4d36 <LCD_Init+0x31e>
    4d3a:	00 00       	nop
	_delay_us(5);
	LCD_WR_S
    4d3c:	d9 9a       	sbi	0x1b, 1	; 27
	LCD_CS_S
    4d3e:	db 9a       	sbi	0x1b, 3	; 27
	LCD_CS_S
}

inline static void LCD_Send_Dat(uint16_t dat)
{
	LCD_RS_S
    4d40:	d8 9a       	sbi	0x1b, 0	; 27
	LCD_RD_S
    4d42:	da 9a       	sbi	0x1b, 2	; 27
	LCD_CS_U
    4d44:	db 98       	cbi	0x1b, 3	; 27
	REG_PART_1_PORT = (dat & 0x00FF);
    4d46:	80 e3       	ldi	r24, 0x30	; 48
    4d48:	85 bb       	out	0x15, r24	; 21
	REG_PART_2_PORT = (dat & 0xFF00) >> 8;
    4d4a:	12 ba       	out	0x12, r1	; 18
	LCD_WR_U
    4d4c:	d9 98       	cbi	0x1b, 1	; 27
    4d4e:	8d e0       	ldi	r24, 0x0D	; 13
    4d50:	8a 95       	dec	r24
    4d52:	f1 f7       	brne	.-4      	; 0x4d50 <LCD_Init+0x338>
    4d54:	00 00       	nop
	_delay_us(5);
	LCD_WR_S
    4d56:	d9 9a       	sbi	0x1b, 1	; 27
	LCD_CS_S
    4d58:	db 9a       	sbi	0x1b, 3	; 27
	LCD_CS_S
}

inline static void LCD_Send_Dat(uint16_t dat)
{
	LCD_RS_S
    4d5a:	d8 9a       	sbi	0x1b, 0	; 27
	LCD_RD_S
    4d5c:	da 9a       	sbi	0x1b, 2	; 27
	LCD_CS_U
    4d5e:	db 98       	cbi	0x1b, 3	; 27
	REG_PART_1_PORT = (dat & 0x00FF);
    4d60:	15 ba       	out	0x15, r1	; 21
	REG_PART_2_PORT = (dat & 0xFF00) >> 8;
    4d62:	12 ba       	out	0x12, r1	; 18
	LCD_WR_U
    4d64:	d9 98       	cbi	0x1b, 1	; 27
    4d66:	9d e0       	ldi	r25, 0x0D	; 13
    4d68:	9a 95       	dec	r25
    4d6a:	f1 f7       	brne	.-4      	; 0x4d68 <LCD_Init+0x350>
    4d6c:	00 00       	nop
	_delay_us(5);
	LCD_WR_S
    4d6e:	d9 9a       	sbi	0x1b, 1	; 27
	LCD_CS_S
    4d70:	db 9a       	sbi	0x1b, 3	; 27
	LCD_CS_S
}

inline static void LCD_Send_Dat(uint16_t dat)
{
	LCD_RS_S
    4d72:	d8 9a       	sbi	0x1b, 0	; 27
	LCD_RD_S
    4d74:	da 9a       	sbi	0x1b, 2	; 27
	LCD_CS_U
    4d76:	db 98       	cbi	0x1b, 3	; 27
	REG_PART_1_PORT = (dat & 0x00FF);
    4d78:	8f e0       	ldi	r24, 0x0F	; 15
    4d7a:	85 bb       	out	0x15, r24	; 21
	REG_PART_2_PORT = (dat & 0xFF00) >> 8;
    4d7c:	12 ba       	out	0x12, r1	; 18
	LCD_WR_U
    4d7e:	d9 98       	cbi	0x1b, 1	; 27
    4d80:	2d e0       	ldi	r18, 0x0D	; 13
    4d82:	2a 95       	dec	r18
    4d84:	f1 f7       	brne	.-4      	; 0x4d82 <LCD_Init+0x36a>
    4d86:	00 00       	nop
	_delay_us(5);
	LCD_WR_S
    4d88:	d9 9a       	sbi	0x1b, 1	; 27
	LCD_CS_S
    4d8a:	db 9a       	sbi	0x1b, 3	; 27
	LCD_CS_S
}

inline static void LCD_Send_Dat(uint16_t dat)
{
	LCD_RS_S
    4d8c:	d8 9a       	sbi	0x1b, 0	; 27
	LCD_RD_S
    4d8e:	da 9a       	sbi	0x1b, 2	; 27
	LCD_CS_U
    4d90:	db 98       	cbi	0x1b, 3	; 27
	REG_PART_1_PORT = (dat & 0x00FF);
    4d92:	15 ba       	out	0x15, r1	; 21
	REG_PART_2_PORT = (dat & 0xFF00) >> 8;
    4d94:	12 ba       	out	0x12, r1	; 18
	LCD_WR_U
    4d96:	d9 98       	cbi	0x1b, 1	; 27
    4d98:	3d e0       	ldi	r19, 0x0D	; 13
    4d9a:	3a 95       	dec	r19
    4d9c:	f1 f7       	brne	.-4      	; 0x4d9a <LCD_Init+0x382>
    4d9e:	00 00       	nop
	_delay_us(5);
	LCD_WR_S
    4da0:	d9 9a       	sbi	0x1b, 1	; 27
	LCD_CS_S
    4da2:	db 9a       	sbi	0x1b, 3	; 27
	else return ((r / 8) << 11) | ((g / 4) << 5) | (b / 8);
}

inline static void LCD_Send_Cmd(uint16_t cmd)
{
	LCD_RS_U
    4da4:	d8 98       	cbi	0x1b, 0	; 27
	LCD_RD_S
    4da6:	da 9a       	sbi	0x1b, 2	; 27
	LCD_CS_U
    4da8:	db 98       	cbi	0x1b, 3	; 27
	REG_PART_1_PORT = (cmd & 0x00FF);
    4daa:	86 eb       	ldi	r24, 0xB6	; 182
    4dac:	85 bb       	out	0x15, r24	; 21
	REG_PART_2_PORT = (cmd & 0xFF00) >> 8;
    4dae:	12 ba       	out	0x12, r1	; 18
	LCD_WR_U
    4db0:	d9 98       	cbi	0x1b, 1	; 27
    4db2:	4d e0       	ldi	r20, 0x0D	; 13
    4db4:	4a 95       	dec	r20
    4db6:	f1 f7       	brne	.-4      	; 0x4db4 <LCD_Init+0x39c>
    4db8:	00 00       	nop
	_delay_us(5);
	LCD_WR_S
    4dba:	d9 9a       	sbi	0x1b, 1	; 27
	LCD_CS_S
    4dbc:	db 9a       	sbi	0x1b, 3	; 27
}

inline static void LCD_Send_Dat(uint16_t dat)
{
	LCD_RS_S
    4dbe:	d8 9a       	sbi	0x1b, 0	; 27
	LCD_RD_S
    4dc0:	da 9a       	sbi	0x1b, 2	; 27
	LCD_CS_U
    4dc2:	db 98       	cbi	0x1b, 3	; 27
	REG_PART_1_PORT = (dat & 0x00FF);
    4dc4:	82 e0       	ldi	r24, 0x02	; 2
    4dc6:	85 bb       	out	0x15, r24	; 21
	REG_PART_2_PORT = (dat & 0xFF00) >> 8;
    4dc8:	12 ba       	out	0x12, r1	; 18
	LCD_WR_U
    4dca:	d9 98       	cbi	0x1b, 1	; 27
    4dcc:	5d e0       	ldi	r21, 0x0D	; 13
    4dce:	5a 95       	dec	r21
    4dd0:	f1 f7       	brne	.-4      	; 0x4dce <LCD_Init+0x3b6>
    4dd2:	00 00       	nop
	_delay_us(5);
	LCD_WR_S
    4dd4:	d9 9a       	sbi	0x1b, 1	; 27
	LCD_CS_S
    4dd6:	db 9a       	sbi	0x1b, 3	; 27
	LCD_CS_S
}

inline static void LCD_Send_Dat(uint16_t dat)
{
	LCD_RS_S
    4dd8:	d8 9a       	sbi	0x1b, 0	; 27
	LCD_RD_S
    4dda:	da 9a       	sbi	0x1b, 2	; 27
	LCD_CS_U
    4ddc:	db 98       	cbi	0x1b, 3	; 27
	REG_PART_1_PORT = (dat & 0x00FF);
    4dde:	8d e0       	ldi	r24, 0x0D	; 13
    4de0:	85 bb       	out	0x15, r24	; 21
	REG_PART_2_PORT = (dat & 0xFF00) >> 8;
    4de2:	12 ba       	out	0x12, r1	; 18
	LCD_WR_U
    4de4:	d9 98       	cbi	0x1b, 1	; 27
    4de6:	8d e0       	ldi	r24, 0x0D	; 13
    4de8:	8a 95       	dec	r24
    4dea:	f1 f7       	brne	.-4      	; 0x4de8 <LCD_Init+0x3d0>
    4dec:	00 00       	nop
	_delay_us(5);
	LCD_WR_S
    4dee:	d9 9a       	sbi	0x1b, 1	; 27
	LCD_CS_S
    4df0:	db 9a       	sbi	0x1b, 3	; 27
	LCD_CS_S
}

inline static void LCD_Send_Dat(uint16_t dat)
{
	LCD_RS_S
    4df2:	d8 9a       	sbi	0x1b, 0	; 27
	LCD_RD_S
    4df4:	da 9a       	sbi	0x1b, 2	; 27
	LCD_CS_U
    4df6:	db 98       	cbi	0x1b, 3	; 27
	REG_PART_1_PORT = (dat & 0x00FF);
    4df8:	15 ba       	out	0x15, r1	; 21
	REG_PART_2_PORT = (dat & 0xFF00) >> 8;
    4dfa:	12 ba       	out	0x12, r1	; 18
	LCD_WR_U
    4dfc:	d9 98       	cbi	0x1b, 1	; 27
    4dfe:	9d e0       	ldi	r25, 0x0D	; 13
    4e00:	9a 95       	dec	r25
    4e02:	f1 f7       	brne	.-4      	; 0x4e00 <LCD_Init+0x3e8>
    4e04:	00 00       	nop
	_delay_us(5);
	LCD_WR_S
    4e06:	d9 9a       	sbi	0x1b, 1	; 27
	LCD_CS_S
    4e08:	db 9a       	sbi	0x1b, 3	; 27
	LCD_CS_S
}

inline static void LCD_Send_Dat(uint16_t dat)
{
	LCD_RS_S
    4e0a:	d8 9a       	sbi	0x1b, 0	; 27
	LCD_RD_S
    4e0c:	da 9a       	sbi	0x1b, 2	; 27
	LCD_CS_U
    4e0e:	db 98       	cbi	0x1b, 3	; 27
	REG_PART_1_PORT = (dat & 0x00FF);
    4e10:	80 e1       	ldi	r24, 0x10	; 16
    4e12:	85 bb       	out	0x15, r24	; 21
	REG_PART_2_PORT = (dat & 0xFF00) >> 8;
    4e14:	12 ba       	out	0x12, r1	; 18
	LCD_WR_U
    4e16:	d9 98       	cbi	0x1b, 1	; 27
    4e18:	2d e0       	ldi	r18, 0x0D	; 13
    4e1a:	2a 95       	dec	r18
    4e1c:	f1 f7       	brne	.-4      	; 0x4e1a <LCD_Init+0x402>
    4e1e:	00 00       	nop
	_delay_us(5);
	LCD_WR_S
    4e20:	d9 9a       	sbi	0x1b, 1	; 27
	LCD_CS_S
    4e22:	db 9a       	sbi	0x1b, 3	; 27
	LCD_CS_S
}

inline static void LCD_Send_Dat(uint16_t dat)
{
	LCD_RS_S
    4e24:	d8 9a       	sbi	0x1b, 0	; 27
	LCD_RD_S
    4e26:	da 9a       	sbi	0x1b, 2	; 27
	LCD_CS_U
    4e28:	db 98       	cbi	0x1b, 3	; 27
	REG_PART_1_PORT = (dat & 0x00FF);
    4e2a:	85 bb       	out	0x15, r24	; 21
	REG_PART_2_PORT = (dat & 0xFF00) >> 8;
    4e2c:	12 ba       	out	0x12, r1	; 18
	LCD_WR_U
    4e2e:	d9 98       	cbi	0x1b, 1	; 27
    4e30:	3d e0       	ldi	r19, 0x0D	; 13
    4e32:	3a 95       	dec	r19
    4e34:	f1 f7       	brne	.-4      	; 0x4e32 <LCD_Init+0x41a>
    4e36:	00 00       	nop
	_delay_us(5);
	LCD_WR_S
    4e38:	d9 9a       	sbi	0x1b, 1	; 27
	LCD_CS_S
    4e3a:	db 9a       	sbi	0x1b, 3	; 27
	LCD_CS_S
}

inline static void LCD_Send_Dat(uint16_t dat)
{
	LCD_RS_S
    4e3c:	d8 9a       	sbi	0x1b, 0	; 27
	LCD_RD_S
    4e3e:	da 9a       	sbi	0x1b, 2	; 27
	LCD_CS_U
    4e40:	db 98       	cbi	0x1b, 3	; 27
	REG_PART_1_PORT = (dat & 0x00FF);
    4e42:	88 e0       	ldi	r24, 0x08	; 8
    4e44:	85 bb       	out	0x15, r24	; 21
	REG_PART_2_PORT = (dat & 0xFF00) >> 8;
    4e46:	12 ba       	out	0x12, r1	; 18
	LCD_WR_U
    4e48:	d9 98       	cbi	0x1b, 1	; 27
    4e4a:	4d e0       	ldi	r20, 0x0D	; 13
    4e4c:	4a 95       	dec	r20
    4e4e:	f1 f7       	brne	.-4      	; 0x4e4c <LCD_Init+0x434>
    4e50:	00 00       	nop
	_delay_us(5);
	LCD_WR_S
    4e52:	d9 9a       	sbi	0x1b, 1	; 27
	LCD_CS_S
    4e54:	db 9a       	sbi	0x1b, 3	; 27
	LCD_CS_S
}

inline static void LCD_Send_Dat(uint16_t dat)
{
	LCD_RS_S
    4e56:	d8 9a       	sbi	0x1b, 0	; 27
	LCD_RD_S
    4e58:	da 9a       	sbi	0x1b, 2	; 27
	LCD_CS_U
    4e5a:	db 98       	cbi	0x1b, 3	; 27
	REG_PART_1_PORT = (dat & 0x00FF);
    4e5c:	15 ba       	out	0x15, r1	; 21
	REG_PART_2_PORT = (dat & 0xFF00) >> 8;
    4e5e:	12 ba       	out	0x12, r1	; 18
	LCD_WR_U
    4e60:	d9 98       	cbi	0x1b, 1	; 27
    4e62:	5d e0       	ldi	r21, 0x0D	; 13
    4e64:	5a 95       	dec	r21
    4e66:	f1 f7       	brne	.-4      	; 0x4e64 <LCD_Init+0x44c>
    4e68:	00 00       	nop
	_delay_us(5);
	LCD_WR_S
    4e6a:	d9 9a       	sbi	0x1b, 1	; 27
	LCD_CS_S
    4e6c:	db 9a       	sbi	0x1b, 3	; 27
	else return ((r / 8) << 11) | ((g / 4) << 5) | (b / 8);
}

inline static void LCD_Send_Cmd(uint16_t cmd)
{
	LCD_RS_U
    4e6e:	d8 98       	cbi	0x1b, 0	; 27
	LCD_RD_S
    4e70:	da 9a       	sbi	0x1b, 2	; 27
	LCD_CS_U
    4e72:	db 98       	cbi	0x1b, 3	; 27
	REG_PART_1_PORT = (cmd & 0x00FF);
    4e74:	9e eb       	ldi	r25, 0xBE	; 190
    4e76:	95 bb       	out	0x15, r25	; 21
	REG_PART_2_PORT = (cmd & 0xFF00) >> 8;
    4e78:	12 ba       	out	0x12, r1	; 18
	LCD_WR_U
    4e7a:	d9 98       	cbi	0x1b, 1	; 27
    4e7c:	9d e0       	ldi	r25, 0x0D	; 13
    4e7e:	9a 95       	dec	r25
    4e80:	f1 f7       	brne	.-4      	; 0x4e7e <LCD_Init+0x466>
    4e82:	00 00       	nop
	_delay_us(5);
	LCD_WR_S
    4e84:	d9 9a       	sbi	0x1b, 1	; 27
	LCD_CS_S
    4e86:	db 9a       	sbi	0x1b, 3	; 27
}

inline static void LCD_Send_Dat(uint16_t dat)
{
	LCD_RS_S
    4e88:	d8 9a       	sbi	0x1b, 0	; 27
	LCD_RD_S
    4e8a:	da 9a       	sbi	0x1b, 2	; 27
	LCD_CS_U
    4e8c:	db 98       	cbi	0x1b, 3	; 27
	REG_PART_1_PORT = (dat & 0x00FF);
    4e8e:	85 bb       	out	0x15, r24	; 21
	REG_PART_2_PORT = (dat & 0xFF00) >> 8;
    4e90:	12 ba       	out	0x12, r1	; 18
	LCD_WR_U
    4e92:	d9 98       	cbi	0x1b, 1	; 27
    4e94:	2d e0       	ldi	r18, 0x0D	; 13
    4e96:	2a 95       	dec	r18
    4e98:	f1 f7       	brne	.-4      	; 0x4e96 <LCD_Init+0x47e>
    4e9a:	00 00       	nop
	_delay_us(5);
	LCD_WR_S
    4e9c:	d9 9a       	sbi	0x1b, 1	; 27
	LCD_CS_S
    4e9e:	db 9a       	sbi	0x1b, 3	; 27
	LCD_CS_S
}

inline static void LCD_Send_Dat(uint16_t dat)
{
	LCD_RS_S
    4ea0:	d8 9a       	sbi	0x1b, 0	; 27
	LCD_RD_S
    4ea2:	da 9a       	sbi	0x1b, 2	; 27
	LCD_CS_U
    4ea4:	db 98       	cbi	0x1b, 3	; 27
	REG_PART_1_PORT = (dat & 0x00FF);
    4ea6:	8f ef       	ldi	r24, 0xFF	; 255
    4ea8:	85 bb       	out	0x15, r24	; 21
	REG_PART_2_PORT = (dat & 0xFF00) >> 8;
    4eaa:	12 ba       	out	0x12, r1	; 18
	LCD_WR_U
    4eac:	d9 98       	cbi	0x1b, 1	; 27
    4eae:	3d e0       	ldi	r19, 0x0D	; 13
    4eb0:	3a 95       	dec	r19
    4eb2:	f1 f7       	brne	.-4      	; 0x4eb0 <LCD_Init+0x498>
    4eb4:	00 00       	nop
	_delay_us(5);
	LCD_WR_S
    4eb6:	d9 9a       	sbi	0x1b, 1	; 27
	LCD_CS_S
    4eb8:	db 9a       	sbi	0x1b, 3	; 27
	LCD_CS_S
}

inline static void LCD_Send_Dat(uint16_t dat)
{
	LCD_RS_S
    4eba:	d8 9a       	sbi	0x1b, 0	; 27
	LCD_RD_S
    4ebc:	da 9a       	sbi	0x1b, 2	; 27
	LCD_CS_U
    4ebe:	db 98       	cbi	0x1b, 3	; 27
	REG_PART_1_PORT = (dat & 0x00FF);
    4ec0:	81 e0       	ldi	r24, 0x01	; 1
    4ec2:	85 bb       	out	0x15, r24	; 21
	REG_PART_2_PORT = (dat & 0xFF00) >> 8;
    4ec4:	12 ba       	out	0x12, r1	; 18
	LCD_WR_U
    4ec6:	d9 98       	cbi	0x1b, 1	; 27
    4ec8:	4d e0       	ldi	r20, 0x0D	; 13
    4eca:	4a 95       	dec	r20
    4ecc:	f1 f7       	brne	.-4      	; 0x4eca <LCD_Init+0x4b2>
    4ece:	00 00       	nop
	_delay_us(5);
	LCD_WR_S
    4ed0:	d9 9a       	sbi	0x1b, 1	; 27
	LCD_CS_S
    4ed2:	db 9a       	sbi	0x1b, 3	; 27
	else return ((r / 8) << 11) | ((g / 4) << 5) | (b / 8);
}

inline static void LCD_Send_Cmd(uint16_t cmd)
{
	LCD_RS_U
    4ed4:	d8 98       	cbi	0x1b, 0	; 27
	LCD_RD_S
    4ed6:	da 9a       	sbi	0x1b, 2	; 27
	LCD_CS_U
    4ed8:	db 98       	cbi	0x1b, 3	; 27
	REG_PART_1_PORT = (cmd & 0x00FF);
    4eda:	86 e3       	ldi	r24, 0x36	; 54
    4edc:	85 bb       	out	0x15, r24	; 21
	REG_PART_2_PORT = (cmd & 0xFF00) >> 8;
    4ede:	12 ba       	out	0x12, r1	; 18
	LCD_WR_U
    4ee0:	d9 98       	cbi	0x1b, 1	; 27
    4ee2:	5d e0       	ldi	r21, 0x0D	; 13
    4ee4:	5a 95       	dec	r21
    4ee6:	f1 f7       	brne	.-4      	; 0x4ee4 <LCD_Init+0x4cc>
    4ee8:	00 00       	nop
	_delay_us(5);
	LCD_WR_S
    4eea:	d9 9a       	sbi	0x1b, 1	; 27
	LCD_CS_S
    4eec:	db 9a       	sbi	0x1b, 3	; 27
	else return ((r / 8) << 11) | ((g / 4) << 5) | (b / 8);
}

inline static void LCD_Send_Cmd(uint16_t cmd)
{
	LCD_RS_U
    4eee:	d8 98       	cbi	0x1b, 0	; 27
	LCD_RD_S
    4ef0:	da 9a       	sbi	0x1b, 2	; 27
	LCD_CS_U
    4ef2:	db 98       	cbi	0x1b, 3	; 27
	REG_PART_1_PORT = (cmd & 0x00FF);
    4ef4:	80 ef       	ldi	r24, 0xF0	; 240
    4ef6:	85 bb       	out	0x15, r24	; 21
	REG_PART_2_PORT = (cmd & 0xFF00) >> 8;
    4ef8:	12 ba       	out	0x12, r1	; 18
	LCD_WR_U
    4efa:	d9 98       	cbi	0x1b, 1	; 27
    4efc:	8d e0       	ldi	r24, 0x0D	; 13
    4efe:	8a 95       	dec	r24
    4f00:	f1 f7       	brne	.-4      	; 0x4efe <LCD_Init+0x4e6>
    4f02:	00 00       	nop
	_delay_us(5);
	LCD_WR_S
    4f04:	d9 9a       	sbi	0x1b, 1	; 27
	LCD_CS_S
    4f06:	db 9a       	sbi	0x1b, 3	; 27
}

inline static void LCD_Send_Dat(uint16_t dat)
{
	LCD_RS_S
    4f08:	d8 9a       	sbi	0x1b, 0	; 27
	LCD_RD_S
    4f0a:	da 9a       	sbi	0x1b, 2	; 27
	LCD_CS_U
    4f0c:	db 98       	cbi	0x1b, 3	; 27
	REG_PART_1_PORT = (dat & 0x00FF);
    4f0e:	83 e0       	ldi	r24, 0x03	; 3
    4f10:	85 bb       	out	0x15, r24	; 21
	REG_PART_2_PORT = (dat & 0xFF00) >> 8;
    4f12:	12 ba       	out	0x12, r1	; 18
	LCD_WR_U
    4f14:	d9 98       	cbi	0x1b, 1	; 27
    4f16:	9d e0       	ldi	r25, 0x0D	; 13
    4f18:	9a 95       	dec	r25
    4f1a:	f1 f7       	brne	.-4      	; 0x4f18 <LCD_Init+0x500>
    4f1c:	00 00       	nop
	_delay_us(5);
	LCD_WR_S
    4f1e:	d9 9a       	sbi	0x1b, 1	; 27
	LCD_CS_S
    4f20:	db 9a       	sbi	0x1b, 3	; 27
	else return ((r / 8) << 11) | ((g / 4) << 5) | (b / 8);
}

inline static void LCD_Send_Cmd(uint16_t cmd)
{
	LCD_RS_U
    4f22:	d8 98       	cbi	0x1b, 0	; 27
	LCD_RD_S
    4f24:	da 9a       	sbi	0x1b, 2	; 27
	LCD_CS_U
    4f26:	db 98       	cbi	0x1b, 3	; 27
	REG_PART_1_PORT = (cmd & 0x00FF);
    4f28:	89 e2       	ldi	r24, 0x29	; 41
    4f2a:	85 bb       	out	0x15, r24	; 21
	REG_PART_2_PORT = (cmd & 0xFF00) >> 8;
    4f2c:	12 ba       	out	0x12, r1	; 18
	LCD_WR_U
    4f2e:	d9 98       	cbi	0x1b, 1	; 27
    4f30:	2d e0       	ldi	r18, 0x0D	; 13
    4f32:	2a 95       	dec	r18
    4f34:	f1 f7       	brne	.-4      	; 0x4f32 <LCD_Init+0x51a>
    4f36:	00 00       	nop
	_delay_us(5);
	LCD_WR_S
    4f38:	d9 9a       	sbi	0x1b, 1	; 27
	LCD_CS_S
    4f3a:	db 9a       	sbi	0x1b, 3	; 27
    4f3c:	08 95       	ret

00004f3e <Spi_Master_Transmit>:
	return (x - in_min) * (out_max - out_min) / (in_max - in_min) + out_min;
}

uint8_t Spi_Master_Transmit(uint8_t out_data)
{
	SPDR = out_data;
    4f3e:	8f b9       	out	0x0f, r24	; 15
	while(!(SPSR & (1 << SPIF)));
    4f40:	77 9b       	sbis	0x0e, 7	; 14
    4f42:	fe cf       	rjmp	.-4      	; 0x4f40 <Spi_Master_Transmit+0x2>
	return SPDR;
    4f44:	8f b1       	in	r24, 0x0f	; 15
}
    4f46:	08 95       	ret

00004f48 <XPT2046_Init>:

void XPT2046_Init(void)
{
	XPT2046_SPI_PORT |= (1 << XPT2046_CLK_PIN) | (1 << XPT2046_MISO_PIN) | (1 << XPT2046_MOSI_PIN);
    4f48:	88 b3       	in	r24, 0x18	; 24
    4f4a:	80 6e       	ori	r24, 0xE0	; 224
    4f4c:	88 bb       	out	0x18, r24	; 24
	XPT2046_SPI_DDR  |= (1 << XPT2046_CLK_PIN) | (1 << XPT2046_MISO_PIN) | (1 << XPT2046_MOSI_PIN);
    4f4e:	87 b3       	in	r24, 0x17	; 23
    4f50:	80 6e       	ori	r24, 0xE0	; 224
    4f52:	87 bb       	out	0x17, r24	; 23
	XPT2046_CS_PORT |= (1 << XPT2046_CS_PIN);
    4f54:	c4 9a       	sbi	0x18, 4	; 24
	XPT2046_CS_DDR |= (1 << XPT2046_CS_PIN);
    4f56:	bc 9a       	sbi	0x17, 4	; 23
	XPT2046_IRQ_PORT |= (0 << XPT2046_IRQ_PIN);
    4f58:	88 b3       	in	r24, 0x18	; 24
    4f5a:	88 bb       	out	0x18, r24	; 24
	XPT2046_IRQ_DDR |= (0 << XPT2046_IRQ_PIN);
    4f5c:	87 b3       	in	r24, 0x17	; 23
    4f5e:	87 bb       	out	0x17, r24	; 23
	SPCR |= (1 << SPE) | (1 << MSTR);
    4f60:	8d b1       	in	r24, 0x0d	; 13
    4f62:	80 65       	ori	r24, 0x50	; 80
    4f64:	8d b9       	out	0x0d, r24	; 13
	SPSR |= (0 << SPI2X) | (1 << SPR1) | (1 << SPR0);
    4f66:	8e b1       	in	r24, 0x0e	; 14
    4f68:	83 60       	ori	r24, 0x03	; 3
    4f6a:	8e b9       	out	0x0e, r24	; 14
	XPT2046_CS_U
    4f6c:	c4 98       	cbi	0x18, 4	; 24
	Spi_Master_Transmit(XPT2046_ADDR_I);
    4f6e:	80 e8       	ldi	r24, 0x80	; 128
    4f70:	e6 df       	rcall	.-52     	; 0x4f3e <Spi_Master_Transmit>
	Spi_Master_Transmit(0x00);
    4f72:	80 e0       	ldi	r24, 0x00	; 0
    4f74:	e4 df       	rcall	.-56     	; 0x4f3e <Spi_Master_Transmit>
	Spi_Master_Transmit(0x00);
    4f76:	80 e0       	ldi	r24, 0x00	; 0
    4f78:	e2 df       	rcall	.-60     	; 0x4f3e <Spi_Master_Transmit>
    4f7a:	c4 9a       	sbi	0x18, 4	; 24
	XPT2046_CS_S
    4f7c:	08 95       	ret

00004f7e <getRaw>:
    4f7e:	cf 93       	push	r28
}

uint16_t getRaw(uint8_t address)
{
	uint16_t LSB, MSB;
	XPT2046_CS_U
    4f80:	c4 98       	cbi	0x18, 4	; 24
	#else
		//round up by default
		__ticks_dc = (uint32_t)(ceil(fabs(__tmp)));
	#endif

	__builtin_avr_delay_cycles(__ticks_dc);
    4f82:	ef e1       	ldi	r30, 0x1F	; 31
    4f84:	fe e4       	ldi	r31, 0x4E	; 78
    4f86:	31 97       	sbiw	r30, 0x01	; 1
    4f88:	f1 f7       	brne	.-4      	; 0x4f86 <getRaw+0x8>
    4f8a:	00 c0       	rjmp	.+0      	; 0x4f8c <getRaw+0xe>
    4f8c:	00 00       	nop
	_delay_ms(10);
	Spi_Master_Transmit(address);
    4f8e:	d7 df       	rcall	.-82     	; 0x4f3e <Spi_Master_Transmit>
	MSB = Spi_Master_Transmit(0x00);
    4f90:	80 e0       	ldi	r24, 0x00	; 0
    4f92:	d5 df       	rcall	.-86     	; 0x4f3e <Spi_Master_Transmit>
    4f94:	c8 2f       	mov	r28, r24
	LSB = Spi_Master_Transmit(0x00);
    4f96:	80 e0       	ldi	r24, 0x00	; 0
    4f98:	d2 df       	rcall	.-92     	; 0x4f3e <Spi_Master_Transmit>
    4f9a:	c4 9a       	sbi	0x18, 4	; 24
	XPT2046_CS_S
    4f9c:	2c 2f       	mov	r18, r28
	return ((MSB << 8) | (LSB)) >> 3;
    4f9e:	30 e0       	ldi	r19, 0x00	; 0
    4fa0:	32 2f       	mov	r19, r18
    4fa2:	22 27       	eor	r18, r18
    4fa4:	a9 01       	movw	r20, r18
    4fa6:	48 2b       	or	r20, r24
    4fa8:	ca 01       	movw	r24, r20
    4faa:	96 95       	lsr	r25
}
    4fac:	87 95       	ror	r24
    4fae:	96 95       	lsr	r25
    4fb0:	87 95       	ror	r24
    4fb2:	96 95       	lsr	r25
    4fb4:	87 95       	ror	r24
    4fb6:	cf 91       	pop	r28
    4fb8:	08 95       	ret

00004fba <getX>:
    4fba:	0f 93       	push	r16
	if (y > OUT_MIN_Y && y < OUT_MAX_Y) return y;
	else return 0;
}

uint16_t getX(void)
{
    4fbc:	1f 93       	push	r17
    4fbe:	cf 93       	push	r28
    4fc0:	df 93       	push	r29
{
	uint16_t x;
	x = (uint16_t) remap(getRaw(XPT2046_ADDR_X), RAW_MIN_X, RAW_MAX_X, OUT_MIN_X, OUT_MAX_X);
	if (XPT2046_MIRROR_X) x = OUT_MAX_X - x;
	if (x > OUT_MIN_X && x < OUT_MAX_X) return x;
	else return 0;
    4fc2:	00 e0       	ldi	r16, 0x00	; 0
    4fc4:	10 e0       	ldi	r17, 0x00	; 0
}

inline static uint16_t X(void)
{
	uint16_t x;
	x = (uint16_t) remap(getRaw(XPT2046_ADDR_X), RAW_MIN_X, RAW_MAX_X, OUT_MIN_X, OUT_MAX_X);
    4fc6:	80 ed       	ldi	r24, 0xD0	; 208
    4fc8:	da df       	rcall	.-76     	; 0x4f7e <getRaw>
    4fca:	bc 01       	movw	r22, r24
    4fcc:	80 e0       	ldi	r24, 0x00	; 0
    4fce:	90 e0       	ldi	r25, 0x00	; 0
    4fd0:	f2 d1       	rcall	.+996    	; 0x53b6 <__floatunsisf>
    4fd2:	20 e0       	ldi	r18, 0x00	; 0
    4fd4:	30 e8       	ldi	r19, 0x80	; 128
    4fd6:	49 e0       	ldi	r20, 0x09	; 9
    4fd8:	54 e4       	ldi	r21, 0x44	; 68
    4fda:	f4 d0       	rcall	.+488    	; 0x51c4 <__subsf3>
    4fdc:	20 e0       	ldi	r18, 0x00	; 0
    4fde:	30 ec       	ldi	r19, 0xC0	; 192
    4fe0:	47 e4       	ldi	r20, 0x47	; 71
    4fe2:	54 e4       	ldi	r21, 0x44	; 68
    4fe4:	76 d2       	rcall	.+1260   	; 0x54d2 <__mulsf3>
    4fe6:	20 e0       	ldi	r18, 0x00	; 0
    4fe8:	30 e2       	ldi	r19, 0x20	; 32
    4fea:	42 e3       	ldi	r20, 0x32	; 50
    4fec:	55 e4       	ldi	r21, 0x45	; 69
    4fee:	4f d1       	rcall	.+670    	; 0x528e <__divsf3>
    4ff0:	20 e0       	ldi	r18, 0x00	; 0
    4ff2:	30 e0       	ldi	r19, 0x00	; 0
    4ff4:	a9 01       	movw	r20, r18
    4ff6:	e7 d0       	rcall	.+462    	; 0x51c6 <__addsf3>
    4ff8:	b2 d1       	rcall	.+868    	; 0x535e <__fixunssfsi>
    4ffa:	eb 01       	movw	r28, r22
	if (XPT2046_MIRROR_X) x = OUT_MAX_X - x;
	if (x > OUT_MIN_X && x < OUT_MAX_X) return x;
    4ffc:	61 50       	subi	r22, 0x01	; 1
    4ffe:	71 09       	sbc	r23, r1
    5000:	6e 31       	cpi	r22, 0x1E	; 30
    5002:	73 40       	sbci	r23, 0x03	; 3
}

inline static uint16_t X(void)
{
	uint16_t x;
	x = (uint16_t) remap(getRaw(XPT2046_ADDR_X), RAW_MIN_X, RAW_MAX_X, OUT_MIN_X, OUT_MAX_X);
    5004:	50 f5       	brcc	.+84     	; 0x505a <getX+0xa0>
    5006:	80 ed       	ldi	r24, 0xD0	; 208
    5008:	ba df       	rcall	.-140    	; 0x4f7e <getRaw>
    500a:	bc 01       	movw	r22, r24
    500c:	80 e0       	ldi	r24, 0x00	; 0
    500e:	90 e0       	ldi	r25, 0x00	; 0
    5010:	d2 d1       	rcall	.+932    	; 0x53b6 <__floatunsisf>
    5012:	20 e0       	ldi	r18, 0x00	; 0
    5014:	30 e8       	ldi	r19, 0x80	; 128
    5016:	49 e0       	ldi	r20, 0x09	; 9
    5018:	54 e4       	ldi	r21, 0x44	; 68
    501a:	d4 d0       	rcall	.+424    	; 0x51c4 <__subsf3>
    501c:	20 e0       	ldi	r18, 0x00	; 0
    501e:	30 ec       	ldi	r19, 0xC0	; 192
    5020:	47 e4       	ldi	r20, 0x47	; 71
    5022:	54 e4       	ldi	r21, 0x44	; 68
    5024:	56 d2       	rcall	.+1196   	; 0x54d2 <__mulsf3>
    5026:	20 e0       	ldi	r18, 0x00	; 0
    5028:	30 e2       	ldi	r19, 0x20	; 32
    502a:	42 e3       	ldi	r20, 0x32	; 50
    502c:	55 e4       	ldi	r21, 0x45	; 69
    502e:	2f d1       	rcall	.+606    	; 0x528e <__divsf3>
    5030:	20 e0       	ldi	r18, 0x00	; 0
    5032:	30 e0       	ldi	r19, 0x00	; 0
    5034:	a9 01       	movw	r20, r18
    5036:	c7 d0       	rcall	.+398    	; 0x51c6 <__addsf3>
    5038:	92 d1       	rcall	.+804    	; 0x535e <__fixunssfsi>
    503a:	9b 01       	movw	r18, r22
    503c:	61 50       	subi	r22, 0x01	; 1
	if (XPT2046_MIRROR_X) x = OUT_MAX_X - x;
	if (x > OUT_MIN_X && x < OUT_MAX_X) return x;
    503e:	71 09       	sbc	r23, r1
    5040:	6e 31       	cpi	r22, 0x1E	; 30
    5042:	73 40       	sbci	r23, 0x03	; 3
    5044:	28 f0       	brcs	.+10     	; 0x5050 <getX+0x96>
	else return 0;
    5046:	20 2f       	mov	r18, r16
    5048:	31 2f       	mov	r19, r17
    504a:	02 c0       	rjmp	.+4      	; 0x5050 <getX+0x96>
    504c:	c0 2f       	mov	r28, r16
uint16_t getX(void)
{
	if (XPT2046_ACCURACY)
	{
		uint16_t x[2] = { 1, 2 };
		while (x[0] != x[1])
    504e:	d1 2f       	mov	r29, r17
    5050:	2c 17       	cp	r18, r28
    5052:	3d 07       	cpc	r19, r29
    5054:	09 f0       	breq	.+2      	; 0x5058 <getX+0x9e>
}

inline static uint16_t X(void)
{
	uint16_t x;
	x = (uint16_t) remap(getRaw(XPT2046_ADDR_X), RAW_MIN_X, RAW_MAX_X, OUT_MIN_X, OUT_MAX_X);
    5056:	b7 cf       	rjmp	.-146    	; 0x4fc6 <getX+0xc>
    5058:	22 c0       	rjmp	.+68     	; 0x509e <getX+0xe4>
    505a:	80 ed       	ldi	r24, 0xD0	; 208
    505c:	90 df       	rcall	.-224    	; 0x4f7e <getRaw>
    505e:	bc 01       	movw	r22, r24
    5060:	80 e0       	ldi	r24, 0x00	; 0
    5062:	90 e0       	ldi	r25, 0x00	; 0
    5064:	a8 d1       	rcall	.+848    	; 0x53b6 <__floatunsisf>
    5066:	20 e0       	ldi	r18, 0x00	; 0
    5068:	30 e8       	ldi	r19, 0x80	; 128
    506a:	49 e0       	ldi	r20, 0x09	; 9
    506c:	54 e4       	ldi	r21, 0x44	; 68
    506e:	aa d0       	rcall	.+340    	; 0x51c4 <__subsf3>
    5070:	20 e0       	ldi	r18, 0x00	; 0
    5072:	30 ec       	ldi	r19, 0xC0	; 192
    5074:	47 e4       	ldi	r20, 0x47	; 71
    5076:	54 e4       	ldi	r21, 0x44	; 68
    5078:	2c d2       	rcall	.+1112   	; 0x54d2 <__mulsf3>
    507a:	20 e0       	ldi	r18, 0x00	; 0
    507c:	30 e2       	ldi	r19, 0x20	; 32
    507e:	42 e3       	ldi	r20, 0x32	; 50
    5080:	55 e4       	ldi	r21, 0x45	; 69
    5082:	05 d1       	rcall	.+522    	; 0x528e <__divsf3>
    5084:	20 e0       	ldi	r18, 0x00	; 0
    5086:	30 e0       	ldi	r19, 0x00	; 0
    5088:	a9 01       	movw	r20, r18
    508a:	9d d0       	rcall	.+314    	; 0x51c6 <__addsf3>
    508c:	68 d1       	rcall	.+720    	; 0x535e <__fixunssfsi>
    508e:	9b 01       	movw	r18, r22
    5090:	61 50       	subi	r22, 0x01	; 1
	if (XPT2046_MIRROR_X) x = OUT_MAX_X - x;
	if (x > OUT_MIN_X && x < OUT_MAX_X) return x;
    5092:	71 09       	sbc	r23, r1
    5094:	6e 31       	cpi	r22, 0x1E	; 30
    5096:	73 40       	sbci	r23, 0x03	; 3
    5098:	c8 f2       	brcs	.-78     	; 0x504c <getX+0x92>
    509a:	c0 e0       	ldi	r28, 0x00	; 0
	else return 0;
    509c:	d0 e0       	ldi	r29, 0x00	; 0
    509e:	ce 01       	movw	r24, r28
			else { x[0] = X(); x[1] = X(); }
		}
		return x[0];
	}
	else if (XPT2046_REVERSED) return Y(); else return X();
}
    50a0:	df 91       	pop	r29
    50a2:	cf 91       	pop	r28
    50a4:	1f 91       	pop	r17
    50a6:	0f 91       	pop	r16
    50a8:	08 95       	ret

000050aa <getY>:
    50aa:	cf 92       	push	r12

uint16_t getY(void)
{
    50ac:	df 92       	push	r13
    50ae:	ef 92       	push	r14
    50b0:	ff 92       	push	r15
    50b2:	0f 93       	push	r16
    50b4:	1f 93       	push	r17
    50b6:	cf 93       	push	r28
    50b8:	df 93       	push	r29
inline static uint16_t Y(void)
{
	uint16_t y;
	y = (uint16_t) remap(getRaw(XPT2046_ADDR_Y), RAW_MIN_Y, RAW_MAX_Y, OUT_MIN_Y, OUT_MAX_Y);
	if (XPT2046_MIRROR_Y) y = OUT_MAX_Y - y;
	if (y > OUT_MIN_Y && y < OUT_MAX_Y) return y;
    50ba:	ce ed       	ldi	r28, 0xDE	; 222
    50bc:	d1 e0       	ldi	r29, 0x01	; 1
	else return 0;
    50be:	c1 2c       	mov	r12, r1
    50c0:	d1 2c       	mov	r13, r1

inline static uint16_t Y(void)
{
	uint16_t y;
	y = (uint16_t) remap(getRaw(XPT2046_ADDR_Y), RAW_MIN_Y, RAW_MAX_Y, OUT_MIN_Y, OUT_MAX_Y);
	if (XPT2046_MIRROR_Y) y = OUT_MAX_Y - y;
    50c2:	0f ed       	ldi	r16, 0xDF	; 223
    50c4:	11 e0       	ldi	r17, 0x01	; 1
}

inline static uint16_t Y(void)
{
	uint16_t y;
	y = (uint16_t) remap(getRaw(XPT2046_ADDR_Y), RAW_MIN_Y, RAW_MAX_Y, OUT_MIN_Y, OUT_MAX_Y);
    50c6:	80 e9       	ldi	r24, 0x90	; 144
    50c8:	5a df       	rcall	.-332    	; 0x4f7e <getRaw>
    50ca:	bc 01       	movw	r22, r24
    50cc:	80 e0       	ldi	r24, 0x00	; 0
    50ce:	90 e0       	ldi	r25, 0x00	; 0
    50d0:	72 d1       	rcall	.+740    	; 0x53b6 <__floatunsisf>
    50d2:	20 e0       	ldi	r18, 0x00	; 0
    50d4:	30 e8       	ldi	r19, 0x80	; 128
    50d6:	42 e2       	ldi	r20, 0x22	; 34
    50d8:	54 e4       	ldi	r21, 0x44	; 68
    50da:	74 d0       	rcall	.+232    	; 0x51c4 <__subsf3>
    50dc:	20 e0       	ldi	r18, 0x00	; 0
    50de:	30 e8       	ldi	r19, 0x80	; 128
    50e0:	4f ee       	ldi	r20, 0xEF	; 239
    50e2:	53 e4       	ldi	r21, 0x43	; 67
    50e4:	f6 d1       	rcall	.+1004   	; 0x54d2 <__mulsf3>
    50e6:	20 e0       	ldi	r18, 0x00	; 0
    50e8:	30 e2       	ldi	r19, 0x20	; 32
    50ea:	49 e1       	ldi	r20, 0x19	; 25
    50ec:	55 e4       	ldi	r21, 0x45	; 69
    50ee:	cf d0       	rcall	.+414    	; 0x528e <__divsf3>
    50f0:	20 e0       	ldi	r18, 0x00	; 0
    50f2:	30 e0       	ldi	r19, 0x00	; 0
    50f4:	a9 01       	movw	r20, r18
    50f6:	67 d0       	rcall	.+206    	; 0x51c6 <__addsf3>
    50f8:	32 d1       	rcall	.+612    	; 0x535e <__fixunssfsi>
	if (XPT2046_MIRROR_Y) y = OUT_MAX_Y - y;
	if (y > OUT_MIN_Y && y < OUT_MAX_Y) return y;
    50fa:	9e 01       	movw	r18, r28
    50fc:	26 1b       	sub	r18, r22
    50fe:	37 0b       	sbc	r19, r23
    5100:	2e 3d       	cpi	r18, 0xDE	; 222
    5102:	31 40       	sbci	r19, 0x01	; 1

inline static uint16_t Y(void)
{
	uint16_t y;
	y = (uint16_t) remap(getRaw(XPT2046_ADDR_Y), RAW_MIN_Y, RAW_MAX_Y, OUT_MIN_Y, OUT_MAX_Y);
	if (XPT2046_MIRROR_Y) y = OUT_MAX_Y - y;
    5104:	90 f5       	brcc	.+100    	; 0x516a <getY+0xc0>
    5106:	78 01       	movw	r14, r16
}

inline static uint16_t Y(void)
{
	uint16_t y;
	y = (uint16_t) remap(getRaw(XPT2046_ADDR_Y), RAW_MIN_Y, RAW_MAX_Y, OUT_MIN_Y, OUT_MAX_Y);
    5108:	e6 1a       	sub	r14, r22
    510a:	f7 0a       	sbc	r15, r23
    510c:	80 e9       	ldi	r24, 0x90	; 144
    510e:	37 df       	rcall	.-402    	; 0x4f7e <getRaw>
    5110:	bc 01       	movw	r22, r24
    5112:	80 e0       	ldi	r24, 0x00	; 0
    5114:	90 e0       	ldi	r25, 0x00	; 0
    5116:	4f d1       	rcall	.+670    	; 0x53b6 <__floatunsisf>
    5118:	20 e0       	ldi	r18, 0x00	; 0
    511a:	30 e8       	ldi	r19, 0x80	; 128
    511c:	42 e2       	ldi	r20, 0x22	; 34
    511e:	54 e4       	ldi	r21, 0x44	; 68
    5120:	51 d0       	rcall	.+162    	; 0x51c4 <__subsf3>
    5122:	20 e0       	ldi	r18, 0x00	; 0
    5124:	30 e8       	ldi	r19, 0x80	; 128
    5126:	4f ee       	ldi	r20, 0xEF	; 239
    5128:	53 e4       	ldi	r21, 0x43	; 67
    512a:	d3 d1       	rcall	.+934    	; 0x54d2 <__mulsf3>
    512c:	20 e0       	ldi	r18, 0x00	; 0
    512e:	30 e2       	ldi	r19, 0x20	; 32
    5130:	49 e1       	ldi	r20, 0x19	; 25
    5132:	55 e4       	ldi	r21, 0x45	; 69
    5134:	ac d0       	rcall	.+344    	; 0x528e <__divsf3>
    5136:	20 e0       	ldi	r18, 0x00	; 0
    5138:	30 e0       	ldi	r19, 0x00	; 0
    513a:	a9 01       	movw	r20, r18
    513c:	44 d0       	rcall	.+136    	; 0x51c6 <__addsf3>
    513e:	0f d1       	rcall	.+542    	; 0x535e <__fixunssfsi>
    5140:	9b 01       	movw	r18, r22
	if (XPT2046_MIRROR_Y) y = OUT_MAX_Y - y;
	if (y > OUT_MIN_Y && y < OUT_MAX_Y) return y;
    5142:	ce 01       	movw	r24, r28
    5144:	86 1b       	sub	r24, r22
    5146:	97 0b       	sbc	r25, r23
    5148:	8e 3d       	cpi	r24, 0xDE	; 222
    514a:	91 40       	sbci	r25, 0x01	; 1
    514c:	18 f0       	brcs	.+6      	; 0x5154 <getY+0xaa>
    514e:	06 c0       	rjmp	.+12     	; 0x515c <getY+0xb2>
	else return 0;
    5150:	ec 2c       	mov	r14, r12

inline static uint16_t Y(void)
{
	uint16_t y;
	y = (uint16_t) remap(getRaw(XPT2046_ADDR_Y), RAW_MIN_Y, RAW_MAX_Y, OUT_MIN_Y, OUT_MAX_Y);
	if (XPT2046_MIRROR_Y) y = OUT_MAX_Y - y;
    5152:	fd 2c       	mov	r15, r13
    5154:	c8 01       	movw	r24, r16
    5156:	82 1b       	sub	r24, r18
	if (y > OUT_MIN_Y && y < OUT_MAX_Y) return y;
	else return 0;
    5158:	93 0b       	sbc	r25, r19
    515a:	02 c0       	rjmp	.+4      	; 0x5160 <getY+0xb6>
uint16_t getY(void)
{
	if (XPT2046_ACCURACY)
	{
		uint16_t y[2] = { 1, 2 };
		while (y[0] != y[1])
    515c:	8c 2d       	mov	r24, r12
    515e:	9d 2d       	mov	r25, r13
    5160:	8e 15       	cp	r24, r14
    5162:	9f 05       	cpc	r25, r15
}

inline static uint16_t Y(void)
{
	uint16_t y;
	y = (uint16_t) remap(getRaw(XPT2046_ADDR_Y), RAW_MIN_Y, RAW_MAX_Y, OUT_MIN_Y, OUT_MAX_Y);
    5164:	09 f0       	breq	.+2      	; 0x5168 <getY+0xbe>
    5166:	af cf       	rjmp	.-162    	; 0x50c6 <getY+0x1c>
    5168:	23 c0       	rjmp	.+70     	; 0x51b0 <getY+0x106>
    516a:	80 e9       	ldi	r24, 0x90	; 144
    516c:	08 df       	rcall	.-496    	; 0x4f7e <getRaw>
    516e:	bc 01       	movw	r22, r24
    5170:	80 e0       	ldi	r24, 0x00	; 0
    5172:	90 e0       	ldi	r25, 0x00	; 0
    5174:	20 d1       	rcall	.+576    	; 0x53b6 <__floatunsisf>
    5176:	20 e0       	ldi	r18, 0x00	; 0
    5178:	30 e8       	ldi	r19, 0x80	; 128
    517a:	42 e2       	ldi	r20, 0x22	; 34
    517c:	54 e4       	ldi	r21, 0x44	; 68
    517e:	22 d0       	rcall	.+68     	; 0x51c4 <__subsf3>
    5180:	20 e0       	ldi	r18, 0x00	; 0
    5182:	30 e8       	ldi	r19, 0x80	; 128
    5184:	4f ee       	ldi	r20, 0xEF	; 239
    5186:	53 e4       	ldi	r21, 0x43	; 67
    5188:	a4 d1       	rcall	.+840    	; 0x54d2 <__mulsf3>
    518a:	20 e0       	ldi	r18, 0x00	; 0
    518c:	30 e2       	ldi	r19, 0x20	; 32
    518e:	49 e1       	ldi	r20, 0x19	; 25
    5190:	55 e4       	ldi	r21, 0x45	; 69
    5192:	7d d0       	rcall	.+250    	; 0x528e <__divsf3>
    5194:	20 e0       	ldi	r18, 0x00	; 0
    5196:	30 e0       	ldi	r19, 0x00	; 0
    5198:	a9 01       	movw	r20, r18
    519a:	15 d0       	rcall	.+42     	; 0x51c6 <__addsf3>
    519c:	e0 d0       	rcall	.+448    	; 0x535e <__fixunssfsi>
    519e:	9b 01       	movw	r18, r22
	if (XPT2046_MIRROR_Y) y = OUT_MAX_Y - y;
	if (y > OUT_MIN_Y && y < OUT_MAX_Y) return y;
    51a0:	ce 01       	movw	r24, r28
    51a2:	86 1b       	sub	r24, r22
    51a4:	97 0b       	sbc	r25, r23
    51a6:	8e 3d       	cpi	r24, 0xDE	; 222
    51a8:	91 40       	sbci	r25, 0x01	; 1
    51aa:	90 f2       	brcs	.-92     	; 0x5150 <getY+0xa6>
	else return 0;
    51ac:	e1 2c       	mov	r14, r1
    51ae:	f1 2c       	mov	r15, r1
			else { y[0] = Y(); y[1] = Y(); }
		}
		return y[0];
	}
	else if (XPT2046_REVERSED) return X(); else return Y();
}
    51b0:	c7 01       	movw	r24, r14
    51b2:	df 91       	pop	r29
    51b4:	cf 91       	pop	r28
    51b6:	1f 91       	pop	r17
    51b8:	0f 91       	pop	r16
    51ba:	ff 90       	pop	r15
    51bc:	ef 90       	pop	r14
    51be:	df 90       	pop	r13
    51c0:	cf 90       	pop	r12
    51c2:	08 95       	ret

000051c4 <__subsf3>:
    51c4:	50 58       	subi	r21, 0x80	; 128

000051c6 <__addsf3>:
    51c6:	bb 27       	eor	r27, r27
    51c8:	aa 27       	eor	r26, r26
    51ca:	0e d0       	rcall	.+28     	; 0x51e8 <__addsf3x>
    51cc:	48 c1       	rjmp	.+656    	; 0x545e <__fp_round>
    51ce:	39 d1       	rcall	.+626    	; 0x5442 <__fp_pscA>
    51d0:	30 f0       	brcs	.+12     	; 0x51de <__addsf3+0x18>
    51d2:	3e d1       	rcall	.+636    	; 0x5450 <__fp_pscB>
    51d4:	20 f0       	brcs	.+8      	; 0x51de <__addsf3+0x18>
    51d6:	31 f4       	brne	.+12     	; 0x51e4 <__addsf3+0x1e>
    51d8:	9f 3f       	cpi	r25, 0xFF	; 255
    51da:	11 f4       	brne	.+4      	; 0x51e0 <__addsf3+0x1a>
    51dc:	1e f4       	brtc	.+6      	; 0x51e4 <__addsf3+0x1e>
    51de:	2e c1       	rjmp	.+604    	; 0x543c <__fp_nan>
    51e0:	0e f4       	brtc	.+2      	; 0x51e4 <__addsf3+0x1e>
    51e2:	e0 95       	com	r30
    51e4:	e7 fb       	bst	r30, 7
    51e6:	24 c1       	rjmp	.+584    	; 0x5430 <__fp_inf>

000051e8 <__addsf3x>:
    51e8:	e9 2f       	mov	r30, r25
    51ea:	4a d1       	rcall	.+660    	; 0x5480 <__fp_split3>
    51ec:	80 f3       	brcs	.-32     	; 0x51ce <__addsf3+0x8>
    51ee:	ba 17       	cp	r27, r26
    51f0:	62 07       	cpc	r22, r18
    51f2:	73 07       	cpc	r23, r19
    51f4:	84 07       	cpc	r24, r20
    51f6:	95 07       	cpc	r25, r21
    51f8:	18 f0       	brcs	.+6      	; 0x5200 <__addsf3x+0x18>
    51fa:	71 f4       	brne	.+28     	; 0x5218 <__addsf3x+0x30>
    51fc:	9e f5       	brtc	.+102    	; 0x5264 <__addsf3x+0x7c>
    51fe:	62 c1       	rjmp	.+708    	; 0x54c4 <__fp_zero>
    5200:	0e f4       	brtc	.+2      	; 0x5204 <__addsf3x+0x1c>
    5202:	e0 95       	com	r30
    5204:	0b 2e       	mov	r0, r27
    5206:	ba 2f       	mov	r27, r26
    5208:	a0 2d       	mov	r26, r0
    520a:	0b 01       	movw	r0, r22
    520c:	b9 01       	movw	r22, r18
    520e:	90 01       	movw	r18, r0
    5210:	0c 01       	movw	r0, r24
    5212:	ca 01       	movw	r24, r20
    5214:	a0 01       	movw	r20, r0
    5216:	11 24       	eor	r1, r1
    5218:	ff 27       	eor	r31, r31
    521a:	59 1b       	sub	r21, r25
    521c:	99 f0       	breq	.+38     	; 0x5244 <__addsf3x+0x5c>
    521e:	59 3f       	cpi	r21, 0xF9	; 249
    5220:	50 f4       	brcc	.+20     	; 0x5236 <__addsf3x+0x4e>
    5222:	50 3e       	cpi	r21, 0xE0	; 224
    5224:	68 f1       	brcs	.+90     	; 0x5280 <__addsf3x+0x98>
    5226:	1a 16       	cp	r1, r26
    5228:	f0 40       	sbci	r31, 0x00	; 0
    522a:	a2 2f       	mov	r26, r18
    522c:	23 2f       	mov	r18, r19
    522e:	34 2f       	mov	r19, r20
    5230:	44 27       	eor	r20, r20
    5232:	58 5f       	subi	r21, 0xF8	; 248
    5234:	f3 cf       	rjmp	.-26     	; 0x521c <__addsf3x+0x34>
    5236:	46 95       	lsr	r20
    5238:	37 95       	ror	r19
    523a:	27 95       	ror	r18
    523c:	a7 95       	ror	r26
    523e:	f0 40       	sbci	r31, 0x00	; 0
    5240:	53 95       	inc	r21
    5242:	c9 f7       	brne	.-14     	; 0x5236 <__addsf3x+0x4e>
    5244:	7e f4       	brtc	.+30     	; 0x5264 <__addsf3x+0x7c>
    5246:	1f 16       	cp	r1, r31
    5248:	ba 0b       	sbc	r27, r26
    524a:	62 0b       	sbc	r22, r18
    524c:	73 0b       	sbc	r23, r19
    524e:	84 0b       	sbc	r24, r20
    5250:	ba f0       	brmi	.+46     	; 0x5280 <__addsf3x+0x98>
    5252:	91 50       	subi	r25, 0x01	; 1
    5254:	a1 f0       	breq	.+40     	; 0x527e <__addsf3x+0x96>
    5256:	ff 0f       	add	r31, r31
    5258:	bb 1f       	adc	r27, r27
    525a:	66 1f       	adc	r22, r22
    525c:	77 1f       	adc	r23, r23
    525e:	88 1f       	adc	r24, r24
    5260:	c2 f7       	brpl	.-16     	; 0x5252 <__addsf3x+0x6a>
    5262:	0e c0       	rjmp	.+28     	; 0x5280 <__addsf3x+0x98>
    5264:	ba 0f       	add	r27, r26
    5266:	62 1f       	adc	r22, r18
    5268:	73 1f       	adc	r23, r19
    526a:	84 1f       	adc	r24, r20
    526c:	48 f4       	brcc	.+18     	; 0x5280 <__addsf3x+0x98>
    526e:	87 95       	ror	r24
    5270:	77 95       	ror	r23
    5272:	67 95       	ror	r22
    5274:	b7 95       	ror	r27
    5276:	f7 95       	ror	r31
    5278:	9e 3f       	cpi	r25, 0xFE	; 254
    527a:	08 f0       	brcs	.+2      	; 0x527e <__addsf3x+0x96>
    527c:	b3 cf       	rjmp	.-154    	; 0x51e4 <__addsf3+0x1e>
    527e:	93 95       	inc	r25
    5280:	88 0f       	add	r24, r24
    5282:	08 f0       	brcs	.+2      	; 0x5286 <__addsf3x+0x9e>
    5284:	99 27       	eor	r25, r25
    5286:	ee 0f       	add	r30, r30
    5288:	97 95       	ror	r25
    528a:	87 95       	ror	r24
    528c:	08 95       	ret

0000528e <__divsf3>:
    528e:	0c d0       	rcall	.+24     	; 0x52a8 <__divsf3x>
    5290:	e6 c0       	rjmp	.+460    	; 0x545e <__fp_round>
    5292:	de d0       	rcall	.+444    	; 0x5450 <__fp_pscB>
    5294:	40 f0       	brcs	.+16     	; 0x52a6 <__divsf3+0x18>
    5296:	d5 d0       	rcall	.+426    	; 0x5442 <__fp_pscA>
    5298:	30 f0       	brcs	.+12     	; 0x52a6 <__divsf3+0x18>
    529a:	21 f4       	brne	.+8      	; 0x52a4 <__divsf3+0x16>
    529c:	5f 3f       	cpi	r21, 0xFF	; 255
    529e:	19 f0       	breq	.+6      	; 0x52a6 <__divsf3+0x18>
    52a0:	c7 c0       	rjmp	.+398    	; 0x5430 <__fp_inf>
    52a2:	51 11       	cpse	r21, r1
    52a4:	10 c1       	rjmp	.+544    	; 0x54c6 <__fp_szero>
    52a6:	ca c0       	rjmp	.+404    	; 0x543c <__fp_nan>

000052a8 <__divsf3x>:
    52a8:	eb d0       	rcall	.+470    	; 0x5480 <__fp_split3>
    52aa:	98 f3       	brcs	.-26     	; 0x5292 <__divsf3+0x4>

000052ac <__divsf3_pse>:
    52ac:	99 23       	and	r25, r25
    52ae:	c9 f3       	breq	.-14     	; 0x52a2 <__divsf3+0x14>
    52b0:	55 23       	and	r21, r21
    52b2:	b1 f3       	breq	.-20     	; 0x52a0 <__divsf3+0x12>
    52b4:	95 1b       	sub	r25, r21
    52b6:	55 0b       	sbc	r21, r21
    52b8:	bb 27       	eor	r27, r27
    52ba:	aa 27       	eor	r26, r26
    52bc:	62 17       	cp	r22, r18
    52be:	73 07       	cpc	r23, r19
    52c0:	84 07       	cpc	r24, r20
    52c2:	38 f0       	brcs	.+14     	; 0x52d2 <__divsf3_pse+0x26>
    52c4:	9f 5f       	subi	r25, 0xFF	; 255
    52c6:	5f 4f       	sbci	r21, 0xFF	; 255
    52c8:	22 0f       	add	r18, r18
    52ca:	33 1f       	adc	r19, r19
    52cc:	44 1f       	adc	r20, r20
    52ce:	aa 1f       	adc	r26, r26
    52d0:	a9 f3       	breq	.-22     	; 0x52bc <__divsf3_pse+0x10>
    52d2:	33 d0       	rcall	.+102    	; 0x533a <__divsf3_pse+0x8e>
    52d4:	0e 2e       	mov	r0, r30
    52d6:	3a f0       	brmi	.+14     	; 0x52e6 <__divsf3_pse+0x3a>
    52d8:	e0 e8       	ldi	r30, 0x80	; 128
    52da:	30 d0       	rcall	.+96     	; 0x533c <__divsf3_pse+0x90>
    52dc:	91 50       	subi	r25, 0x01	; 1
    52de:	50 40       	sbci	r21, 0x00	; 0
    52e0:	e6 95       	lsr	r30
    52e2:	00 1c       	adc	r0, r0
    52e4:	ca f7       	brpl	.-14     	; 0x52d8 <__divsf3_pse+0x2c>
    52e6:	29 d0       	rcall	.+82     	; 0x533a <__divsf3_pse+0x8e>
    52e8:	fe 2f       	mov	r31, r30
    52ea:	27 d0       	rcall	.+78     	; 0x533a <__divsf3_pse+0x8e>
    52ec:	66 0f       	add	r22, r22
    52ee:	77 1f       	adc	r23, r23
    52f0:	88 1f       	adc	r24, r24
    52f2:	bb 1f       	adc	r27, r27
    52f4:	26 17       	cp	r18, r22
    52f6:	37 07       	cpc	r19, r23
    52f8:	48 07       	cpc	r20, r24
    52fa:	ab 07       	cpc	r26, r27
    52fc:	b0 e8       	ldi	r27, 0x80	; 128
    52fe:	09 f0       	breq	.+2      	; 0x5302 <__divsf3_pse+0x56>
    5300:	bb 0b       	sbc	r27, r27
    5302:	80 2d       	mov	r24, r0
    5304:	bf 01       	movw	r22, r30
    5306:	ff 27       	eor	r31, r31
    5308:	93 58       	subi	r25, 0x83	; 131
    530a:	5f 4f       	sbci	r21, 0xFF	; 255
    530c:	2a f0       	brmi	.+10     	; 0x5318 <__divsf3_pse+0x6c>
    530e:	9e 3f       	cpi	r25, 0xFE	; 254
    5310:	51 05       	cpc	r21, r1
    5312:	68 f0       	brcs	.+26     	; 0x532e <__divsf3_pse+0x82>
    5314:	8d c0       	rjmp	.+282    	; 0x5430 <__fp_inf>
    5316:	d7 c0       	rjmp	.+430    	; 0x54c6 <__fp_szero>
    5318:	5f 3f       	cpi	r21, 0xFF	; 255
    531a:	ec f3       	brlt	.-6      	; 0x5316 <__divsf3_pse+0x6a>
    531c:	98 3e       	cpi	r25, 0xE8	; 232
    531e:	dc f3       	brlt	.-10     	; 0x5316 <__divsf3_pse+0x6a>
    5320:	86 95       	lsr	r24
    5322:	77 95       	ror	r23
    5324:	67 95       	ror	r22
    5326:	b7 95       	ror	r27
    5328:	f7 95       	ror	r31
    532a:	9f 5f       	subi	r25, 0xFF	; 255
    532c:	c9 f7       	brne	.-14     	; 0x5320 <__divsf3_pse+0x74>
    532e:	88 0f       	add	r24, r24
    5330:	91 1d       	adc	r25, r1
    5332:	96 95       	lsr	r25
    5334:	87 95       	ror	r24
    5336:	97 f9       	bld	r25, 7
    5338:	08 95       	ret
    533a:	e1 e0       	ldi	r30, 0x01	; 1
    533c:	66 0f       	add	r22, r22
    533e:	77 1f       	adc	r23, r23
    5340:	88 1f       	adc	r24, r24
    5342:	bb 1f       	adc	r27, r27
    5344:	62 17       	cp	r22, r18
    5346:	73 07       	cpc	r23, r19
    5348:	84 07       	cpc	r24, r20
    534a:	ba 07       	cpc	r27, r26
    534c:	20 f0       	brcs	.+8      	; 0x5356 <__divsf3_pse+0xaa>
    534e:	62 1b       	sub	r22, r18
    5350:	73 0b       	sbc	r23, r19
    5352:	84 0b       	sbc	r24, r20
    5354:	ba 0b       	sbc	r27, r26
    5356:	ee 1f       	adc	r30, r30
    5358:	88 f7       	brcc	.-30     	; 0x533c <__divsf3_pse+0x90>
    535a:	e0 95       	com	r30
    535c:	08 95       	ret

0000535e <__fixunssfsi>:
    535e:	98 d0       	rcall	.+304    	; 0x5490 <__fp_splitA>
    5360:	88 f0       	brcs	.+34     	; 0x5384 <__fixunssfsi+0x26>
    5362:	9f 57       	subi	r25, 0x7F	; 127
    5364:	90 f0       	brcs	.+36     	; 0x538a <__fixunssfsi+0x2c>
    5366:	b9 2f       	mov	r27, r25
    5368:	99 27       	eor	r25, r25
    536a:	b7 51       	subi	r27, 0x17	; 23
    536c:	a0 f0       	brcs	.+40     	; 0x5396 <__fixunssfsi+0x38>
    536e:	d1 f0       	breq	.+52     	; 0x53a4 <__fixunssfsi+0x46>
    5370:	66 0f       	add	r22, r22
    5372:	77 1f       	adc	r23, r23
    5374:	88 1f       	adc	r24, r24
    5376:	99 1f       	adc	r25, r25
    5378:	1a f0       	brmi	.+6      	; 0x5380 <__fixunssfsi+0x22>
    537a:	ba 95       	dec	r27
    537c:	c9 f7       	brne	.-14     	; 0x5370 <__fixunssfsi+0x12>
    537e:	12 c0       	rjmp	.+36     	; 0x53a4 <__fixunssfsi+0x46>
    5380:	b1 30       	cpi	r27, 0x01	; 1
    5382:	81 f0       	breq	.+32     	; 0x53a4 <__fixunssfsi+0x46>
    5384:	9f d0       	rcall	.+318    	; 0x54c4 <__fp_zero>
    5386:	b1 e0       	ldi	r27, 0x01	; 1
    5388:	08 95       	ret
    538a:	9c c0       	rjmp	.+312    	; 0x54c4 <__fp_zero>
    538c:	67 2f       	mov	r22, r23
    538e:	78 2f       	mov	r23, r24
    5390:	88 27       	eor	r24, r24
    5392:	b8 5f       	subi	r27, 0xF8	; 248
    5394:	39 f0       	breq	.+14     	; 0x53a4 <__fixunssfsi+0x46>
    5396:	b9 3f       	cpi	r27, 0xF9	; 249
    5398:	cc f3       	brlt	.-14     	; 0x538c <__fixunssfsi+0x2e>
    539a:	86 95       	lsr	r24
    539c:	77 95       	ror	r23
    539e:	67 95       	ror	r22
    53a0:	b3 95       	inc	r27
    53a2:	d9 f7       	brne	.-10     	; 0x539a <__fixunssfsi+0x3c>
    53a4:	3e f4       	brtc	.+14     	; 0x53b4 <__fixunssfsi+0x56>
    53a6:	90 95       	com	r25
    53a8:	80 95       	com	r24
    53aa:	70 95       	com	r23
    53ac:	61 95       	neg	r22
    53ae:	7f 4f       	sbci	r23, 0xFF	; 255
    53b0:	8f 4f       	sbci	r24, 0xFF	; 255
    53b2:	9f 4f       	sbci	r25, 0xFF	; 255
    53b4:	08 95       	ret

000053b6 <__floatunsisf>:
    53b6:	e8 94       	clt
    53b8:	09 c0       	rjmp	.+18     	; 0x53cc <__floatsisf+0x12>

000053ba <__floatsisf>:
    53ba:	97 fb       	bst	r25, 7
    53bc:	3e f4       	brtc	.+14     	; 0x53cc <__floatsisf+0x12>
    53be:	90 95       	com	r25
    53c0:	80 95       	com	r24
    53c2:	70 95       	com	r23
    53c4:	61 95       	neg	r22
    53c6:	7f 4f       	sbci	r23, 0xFF	; 255
    53c8:	8f 4f       	sbci	r24, 0xFF	; 255
    53ca:	9f 4f       	sbci	r25, 0xFF	; 255
    53cc:	99 23       	and	r25, r25
    53ce:	a9 f0       	breq	.+42     	; 0x53fa <__floatsisf+0x40>
    53d0:	f9 2f       	mov	r31, r25
    53d2:	96 e9       	ldi	r25, 0x96	; 150
    53d4:	bb 27       	eor	r27, r27
    53d6:	93 95       	inc	r25
    53d8:	f6 95       	lsr	r31
    53da:	87 95       	ror	r24
    53dc:	77 95       	ror	r23
    53de:	67 95       	ror	r22
    53e0:	b7 95       	ror	r27
    53e2:	f1 11       	cpse	r31, r1
    53e4:	f8 cf       	rjmp	.-16     	; 0x53d6 <__floatsisf+0x1c>
    53e6:	fa f4       	brpl	.+62     	; 0x5426 <__floatsisf+0x6c>
    53e8:	bb 0f       	add	r27, r27
    53ea:	11 f4       	brne	.+4      	; 0x53f0 <__floatsisf+0x36>
    53ec:	60 ff       	sbrs	r22, 0
    53ee:	1b c0       	rjmp	.+54     	; 0x5426 <__floatsisf+0x6c>
    53f0:	6f 5f       	subi	r22, 0xFF	; 255
    53f2:	7f 4f       	sbci	r23, 0xFF	; 255
    53f4:	8f 4f       	sbci	r24, 0xFF	; 255
    53f6:	9f 4f       	sbci	r25, 0xFF	; 255
    53f8:	16 c0       	rjmp	.+44     	; 0x5426 <__floatsisf+0x6c>
    53fa:	88 23       	and	r24, r24
    53fc:	11 f0       	breq	.+4      	; 0x5402 <__floatsisf+0x48>
    53fe:	96 e9       	ldi	r25, 0x96	; 150
    5400:	11 c0       	rjmp	.+34     	; 0x5424 <__floatsisf+0x6a>
    5402:	77 23       	and	r23, r23
    5404:	21 f0       	breq	.+8      	; 0x540e <__floatsisf+0x54>
    5406:	9e e8       	ldi	r25, 0x8E	; 142
    5408:	87 2f       	mov	r24, r23
    540a:	76 2f       	mov	r23, r22
    540c:	05 c0       	rjmp	.+10     	; 0x5418 <__floatsisf+0x5e>
    540e:	66 23       	and	r22, r22
    5410:	71 f0       	breq	.+28     	; 0x542e <__floatsisf+0x74>
    5412:	96 e8       	ldi	r25, 0x86	; 134
    5414:	86 2f       	mov	r24, r22
    5416:	70 e0       	ldi	r23, 0x00	; 0
    5418:	60 e0       	ldi	r22, 0x00	; 0
    541a:	2a f0       	brmi	.+10     	; 0x5426 <__floatsisf+0x6c>
    541c:	9a 95       	dec	r25
    541e:	66 0f       	add	r22, r22
    5420:	77 1f       	adc	r23, r23
    5422:	88 1f       	adc	r24, r24
    5424:	da f7       	brpl	.-10     	; 0x541c <__floatsisf+0x62>
    5426:	88 0f       	add	r24, r24
    5428:	96 95       	lsr	r25
    542a:	87 95       	ror	r24
    542c:	97 f9       	bld	r25, 7
    542e:	08 95       	ret

00005430 <__fp_inf>:
    5430:	97 f9       	bld	r25, 7
    5432:	9f 67       	ori	r25, 0x7F	; 127
    5434:	80 e8       	ldi	r24, 0x80	; 128
    5436:	70 e0       	ldi	r23, 0x00	; 0
    5438:	60 e0       	ldi	r22, 0x00	; 0
    543a:	08 95       	ret

0000543c <__fp_nan>:
    543c:	9f ef       	ldi	r25, 0xFF	; 255
    543e:	80 ec       	ldi	r24, 0xC0	; 192
    5440:	08 95       	ret

00005442 <__fp_pscA>:
    5442:	00 24       	eor	r0, r0
    5444:	0a 94       	dec	r0
    5446:	16 16       	cp	r1, r22
    5448:	17 06       	cpc	r1, r23
    544a:	18 06       	cpc	r1, r24
    544c:	09 06       	cpc	r0, r25
    544e:	08 95       	ret

00005450 <__fp_pscB>:
    5450:	00 24       	eor	r0, r0
    5452:	0a 94       	dec	r0
    5454:	12 16       	cp	r1, r18
    5456:	13 06       	cpc	r1, r19
    5458:	14 06       	cpc	r1, r20
    545a:	05 06       	cpc	r0, r21
    545c:	08 95       	ret

0000545e <__fp_round>:
    545e:	09 2e       	mov	r0, r25
    5460:	03 94       	inc	r0
    5462:	00 0c       	add	r0, r0
    5464:	11 f4       	brne	.+4      	; 0x546a <__fp_round+0xc>
    5466:	88 23       	and	r24, r24
    5468:	52 f0       	brmi	.+20     	; 0x547e <__fp_round+0x20>
    546a:	bb 0f       	add	r27, r27
    546c:	40 f4       	brcc	.+16     	; 0x547e <__fp_round+0x20>
    546e:	bf 2b       	or	r27, r31
    5470:	11 f4       	brne	.+4      	; 0x5476 <__fp_round+0x18>
    5472:	60 ff       	sbrs	r22, 0
    5474:	04 c0       	rjmp	.+8      	; 0x547e <__fp_round+0x20>
    5476:	6f 5f       	subi	r22, 0xFF	; 255
    5478:	7f 4f       	sbci	r23, 0xFF	; 255
    547a:	8f 4f       	sbci	r24, 0xFF	; 255
    547c:	9f 4f       	sbci	r25, 0xFF	; 255
    547e:	08 95       	ret

00005480 <__fp_split3>:
    5480:	57 fd       	sbrc	r21, 7
    5482:	90 58       	subi	r25, 0x80	; 128
    5484:	44 0f       	add	r20, r20
    5486:	55 1f       	adc	r21, r21
    5488:	59 f0       	breq	.+22     	; 0x54a0 <__fp_splitA+0x10>
    548a:	5f 3f       	cpi	r21, 0xFF	; 255
    548c:	71 f0       	breq	.+28     	; 0x54aa <__fp_splitA+0x1a>
    548e:	47 95       	ror	r20

00005490 <__fp_splitA>:
    5490:	88 0f       	add	r24, r24
    5492:	97 fb       	bst	r25, 7
    5494:	99 1f       	adc	r25, r25
    5496:	61 f0       	breq	.+24     	; 0x54b0 <__fp_splitA+0x20>
    5498:	9f 3f       	cpi	r25, 0xFF	; 255
    549a:	79 f0       	breq	.+30     	; 0x54ba <__fp_splitA+0x2a>
    549c:	87 95       	ror	r24
    549e:	08 95       	ret
    54a0:	12 16       	cp	r1, r18
    54a2:	13 06       	cpc	r1, r19
    54a4:	14 06       	cpc	r1, r20
    54a6:	55 1f       	adc	r21, r21
    54a8:	f2 cf       	rjmp	.-28     	; 0x548e <__fp_split3+0xe>
    54aa:	46 95       	lsr	r20
    54ac:	f1 df       	rcall	.-30     	; 0x5490 <__fp_splitA>
    54ae:	08 c0       	rjmp	.+16     	; 0x54c0 <__fp_splitA+0x30>
    54b0:	16 16       	cp	r1, r22
    54b2:	17 06       	cpc	r1, r23
    54b4:	18 06       	cpc	r1, r24
    54b6:	99 1f       	adc	r25, r25
    54b8:	f1 cf       	rjmp	.-30     	; 0x549c <__fp_splitA+0xc>
    54ba:	86 95       	lsr	r24
    54bc:	71 05       	cpc	r23, r1
    54be:	61 05       	cpc	r22, r1
    54c0:	08 94       	sec
    54c2:	08 95       	ret

000054c4 <__fp_zero>:
    54c4:	e8 94       	clt

000054c6 <__fp_szero>:
    54c6:	bb 27       	eor	r27, r27
    54c8:	66 27       	eor	r22, r22
    54ca:	77 27       	eor	r23, r23
    54cc:	cb 01       	movw	r24, r22
    54ce:	97 f9       	bld	r25, 7
    54d0:	08 95       	ret

000054d2 <__mulsf3>:
    54d2:	0b d0       	rcall	.+22     	; 0x54ea <__mulsf3x>
    54d4:	c4 cf       	rjmp	.-120    	; 0x545e <__fp_round>
    54d6:	b5 df       	rcall	.-150    	; 0x5442 <__fp_pscA>
    54d8:	28 f0       	brcs	.+10     	; 0x54e4 <__mulsf3+0x12>
    54da:	ba df       	rcall	.-140    	; 0x5450 <__fp_pscB>
    54dc:	18 f0       	brcs	.+6      	; 0x54e4 <__mulsf3+0x12>
    54de:	95 23       	and	r25, r21
    54e0:	09 f0       	breq	.+2      	; 0x54e4 <__mulsf3+0x12>
    54e2:	a6 cf       	rjmp	.-180    	; 0x5430 <__fp_inf>
    54e4:	ab cf       	rjmp	.-170    	; 0x543c <__fp_nan>
    54e6:	11 24       	eor	r1, r1
    54e8:	ee cf       	rjmp	.-36     	; 0x54c6 <__fp_szero>

000054ea <__mulsf3x>:
    54ea:	ca df       	rcall	.-108    	; 0x5480 <__fp_split3>
    54ec:	a0 f3       	brcs	.-24     	; 0x54d6 <__mulsf3+0x4>

000054ee <__mulsf3_pse>:
    54ee:	95 9f       	mul	r25, r21
    54f0:	d1 f3       	breq	.-12     	; 0x54e6 <__mulsf3+0x14>
    54f2:	95 0f       	add	r25, r21
    54f4:	50 e0       	ldi	r21, 0x00	; 0
    54f6:	55 1f       	adc	r21, r21
    54f8:	62 9f       	mul	r22, r18
    54fa:	f0 01       	movw	r30, r0
    54fc:	72 9f       	mul	r23, r18
    54fe:	bb 27       	eor	r27, r27
    5500:	f0 0d       	add	r31, r0
    5502:	b1 1d       	adc	r27, r1
    5504:	63 9f       	mul	r22, r19
    5506:	aa 27       	eor	r26, r26
    5508:	f0 0d       	add	r31, r0
    550a:	b1 1d       	adc	r27, r1
    550c:	aa 1f       	adc	r26, r26
    550e:	64 9f       	mul	r22, r20
    5510:	66 27       	eor	r22, r22
    5512:	b0 0d       	add	r27, r0
    5514:	a1 1d       	adc	r26, r1
    5516:	66 1f       	adc	r22, r22
    5518:	82 9f       	mul	r24, r18
    551a:	22 27       	eor	r18, r18
    551c:	b0 0d       	add	r27, r0
    551e:	a1 1d       	adc	r26, r1
    5520:	62 1f       	adc	r22, r18
    5522:	73 9f       	mul	r23, r19
    5524:	b0 0d       	add	r27, r0
    5526:	a1 1d       	adc	r26, r1
    5528:	62 1f       	adc	r22, r18
    552a:	83 9f       	mul	r24, r19
    552c:	a0 0d       	add	r26, r0
    552e:	61 1d       	adc	r22, r1
    5530:	22 1f       	adc	r18, r18
    5532:	74 9f       	mul	r23, r20
    5534:	33 27       	eor	r19, r19
    5536:	a0 0d       	add	r26, r0
    5538:	61 1d       	adc	r22, r1
    553a:	23 1f       	adc	r18, r19
    553c:	84 9f       	mul	r24, r20
    553e:	60 0d       	add	r22, r0
    5540:	21 1d       	adc	r18, r1
    5542:	82 2f       	mov	r24, r18
    5544:	76 2f       	mov	r23, r22
    5546:	6a 2f       	mov	r22, r26
    5548:	11 24       	eor	r1, r1
    554a:	9f 57       	subi	r25, 0x7F	; 127
    554c:	50 40       	sbci	r21, 0x00	; 0
    554e:	8a f0       	brmi	.+34     	; 0x5572 <__mulsf3_pse+0x84>
    5550:	e1 f0       	breq	.+56     	; 0x558a <__mulsf3_pse+0x9c>
    5552:	88 23       	and	r24, r24
    5554:	4a f0       	brmi	.+18     	; 0x5568 <__mulsf3_pse+0x7a>
    5556:	ee 0f       	add	r30, r30
    5558:	ff 1f       	adc	r31, r31
    555a:	bb 1f       	adc	r27, r27
    555c:	66 1f       	adc	r22, r22
    555e:	77 1f       	adc	r23, r23
    5560:	88 1f       	adc	r24, r24
    5562:	91 50       	subi	r25, 0x01	; 1
    5564:	50 40       	sbci	r21, 0x00	; 0
    5566:	a9 f7       	brne	.-22     	; 0x5552 <__mulsf3_pse+0x64>
    5568:	9e 3f       	cpi	r25, 0xFE	; 254
    556a:	51 05       	cpc	r21, r1
    556c:	70 f0       	brcs	.+28     	; 0x558a <__mulsf3_pse+0x9c>
    556e:	60 cf       	rjmp	.-320    	; 0x5430 <__fp_inf>
    5570:	aa cf       	rjmp	.-172    	; 0x54c6 <__fp_szero>
    5572:	5f 3f       	cpi	r21, 0xFF	; 255
    5574:	ec f3       	brlt	.-6      	; 0x5570 <__mulsf3_pse+0x82>
    5576:	98 3e       	cpi	r25, 0xE8	; 232
    5578:	dc f3       	brlt	.-10     	; 0x5570 <__mulsf3_pse+0x82>
    557a:	86 95       	lsr	r24
    557c:	77 95       	ror	r23
    557e:	67 95       	ror	r22
    5580:	b7 95       	ror	r27
    5582:	f7 95       	ror	r31
    5584:	e7 95       	ror	r30
    5586:	9f 5f       	subi	r25, 0xFF	; 255
    5588:	c1 f7       	brne	.-16     	; 0x557a <__mulsf3_pse+0x8c>
    558a:	fe 2b       	or	r31, r30
    558c:	88 0f       	add	r24, r24
    558e:	91 1d       	adc	r25, r1
    5590:	96 95       	lsr	r25
    5592:	87 95       	ror	r24
    5594:	97 f9       	bld	r25, 7
    5596:	08 95       	ret

00005598 <__umulhisi3>:
    5598:	a2 9f       	mul	r26, r18
    559a:	b0 01       	movw	r22, r0
    559c:	b3 9f       	mul	r27, r19
    559e:	c0 01       	movw	r24, r0
    55a0:	a3 9f       	mul	r26, r19
    55a2:	70 0d       	add	r23, r0
    55a4:	81 1d       	adc	r24, r1
    55a6:	11 24       	eor	r1, r1
    55a8:	91 1d       	adc	r25, r1
    55aa:	b2 9f       	mul	r27, r18
    55ac:	70 0d       	add	r23, r0
    55ae:	81 1d       	adc	r24, r1
    55b0:	11 24       	eor	r1, r1
    55b2:	91 1d       	adc	r25, r1
    55b4:	08 95       	ret

000055b6 <__mulshisi3>:
    55b6:	b7 ff       	sbrs	r27, 7
    55b8:	04 c0       	rjmp	.+8      	; 0x55c2 <__muluhisi3>

000055ba <__mulohisi3>:
    55ba:	03 d0       	rcall	.+6      	; 0x55c2 <__muluhisi3>
    55bc:	82 1b       	sub	r24, r18
    55be:	93 0b       	sbc	r25, r19
    55c0:	08 95       	ret

000055c2 <__muluhisi3>:
    55c2:	ea df       	rcall	.-44     	; 0x5598 <__umulhisi3>
    55c4:	a5 9f       	mul	r26, r21
    55c6:	90 0d       	add	r25, r0
    55c8:	b4 9f       	mul	r27, r20
    55ca:	90 0d       	add	r25, r0
    55cc:	a4 9f       	mul	r26, r20
    55ce:	80 0d       	add	r24, r0
    55d0:	91 1d       	adc	r25, r1
    55d2:	11 24       	eor	r1, r1
    55d4:	08 95       	ret

000055d6 <memcpy_P>:
    55d6:	fb 01       	movw	r30, r22
    55d8:	dc 01       	movw	r26, r24
    55da:	02 c0       	rjmp	.+4      	; 0x55e0 <memcpy_P+0xa>
    55dc:	05 90       	lpm	r0, Z+
    55de:	0d 92       	st	X+, r0
    55e0:	41 50       	subi	r20, 0x01	; 1
    55e2:	50 40       	sbci	r21, 0x00	; 0
    55e4:	d8 f7       	brcc	.-10     	; 0x55dc <memcpy_P+0x6>
    55e6:	08 95       	ret

000055e8 <sprintf>:
    55e8:	ae e0       	ldi	r26, 0x0E	; 14
    55ea:	b0 e0       	ldi	r27, 0x00	; 0
    55ec:	e9 ef       	ldi	r30, 0xF9	; 249
    55ee:	fa e2       	ldi	r31, 0x2A	; 42
    55f0:	aa c2       	rjmp	.+1364   	; 0x5b46 <__prologue_saves__+0x1c>
    55f2:	0d 89       	ldd	r16, Y+21	; 0x15
    55f4:	1e 89       	ldd	r17, Y+22	; 0x16
    55f6:	86 e0       	ldi	r24, 0x06	; 6
    55f8:	8c 83       	std	Y+4, r24	; 0x04
    55fa:	1a 83       	std	Y+2, r17	; 0x02
    55fc:	09 83       	std	Y+1, r16	; 0x01
    55fe:	8f ef       	ldi	r24, 0xFF	; 255
    5600:	9f e7       	ldi	r25, 0x7F	; 127
    5602:	9e 83       	std	Y+6, r25	; 0x06
    5604:	8d 83       	std	Y+5, r24	; 0x05
    5606:	ae 01       	movw	r20, r28
    5608:	47 5e       	subi	r20, 0xE7	; 231
    560a:	5f 4f       	sbci	r21, 0xFF	; 255
    560c:	6f 89       	ldd	r22, Y+23	; 0x17
    560e:	78 8d       	ldd	r23, Y+24	; 0x18
    5610:	ce 01       	movw	r24, r28
    5612:	01 96       	adiw	r24, 0x01	; 1
    5614:	08 d0       	rcall	.+16     	; 0x5626 <vfprintf>
    5616:	ef 81       	ldd	r30, Y+7	; 0x07
    5618:	f8 85       	ldd	r31, Y+8	; 0x08
    561a:	e0 0f       	add	r30, r16
    561c:	f1 1f       	adc	r31, r17
    561e:	10 82       	st	Z, r1
    5620:	2e 96       	adiw	r28, 0x0e	; 14
    5622:	e4 e0       	ldi	r30, 0x04	; 4
    5624:	ac c2       	rjmp	.+1368   	; 0x5b7e <__epilogue_restores__+0x1c>

00005626 <vfprintf>:
    5626:	ab e0       	ldi	r26, 0x0B	; 11
    5628:	b0 e0       	ldi	r27, 0x00	; 0
    562a:	e8 e1       	ldi	r30, 0x18	; 24
    562c:	fb e2       	ldi	r31, 0x2B	; 43
    562e:	7d c2       	rjmp	.+1274   	; 0x5b2a <__prologue_saves__>
    5630:	6c 01       	movw	r12, r24
    5632:	7b 01       	movw	r14, r22
    5634:	8a 01       	movw	r16, r20
    5636:	fc 01       	movw	r30, r24
    5638:	17 82       	std	Z+7, r1	; 0x07
    563a:	16 82       	std	Z+6, r1	; 0x06
    563c:	83 81       	ldd	r24, Z+3	; 0x03
    563e:	81 ff       	sbrs	r24, 1
    5640:	bf c1       	rjmp	.+894    	; 0x59c0 <vfprintf+0x39a>
    5642:	ce 01       	movw	r24, r28
    5644:	01 96       	adiw	r24, 0x01	; 1
    5646:	3c 01       	movw	r6, r24
    5648:	f6 01       	movw	r30, r12
    564a:	93 81       	ldd	r25, Z+3	; 0x03
    564c:	f7 01       	movw	r30, r14
    564e:	93 fd       	sbrc	r25, 3
    5650:	85 91       	lpm	r24, Z+
    5652:	93 ff       	sbrs	r25, 3
    5654:	81 91       	ld	r24, Z+
    5656:	7f 01       	movw	r14, r30
    5658:	88 23       	and	r24, r24
    565a:	09 f4       	brne	.+2      	; 0x565e <vfprintf+0x38>
    565c:	ad c1       	rjmp	.+858    	; 0x59b8 <vfprintf+0x392>
    565e:	85 32       	cpi	r24, 0x25	; 37
    5660:	39 f4       	brne	.+14     	; 0x5670 <vfprintf+0x4a>
    5662:	93 fd       	sbrc	r25, 3
    5664:	85 91       	lpm	r24, Z+
    5666:	93 ff       	sbrs	r25, 3
    5668:	81 91       	ld	r24, Z+
    566a:	7f 01       	movw	r14, r30
    566c:	85 32       	cpi	r24, 0x25	; 37
    566e:	21 f4       	brne	.+8      	; 0x5678 <vfprintf+0x52>
    5670:	b6 01       	movw	r22, r12
    5672:	90 e0       	ldi	r25, 0x00	; 0
    5674:	c0 d1       	rcall	.+896    	; 0x59f6 <fputc>
    5676:	e8 cf       	rjmp	.-48     	; 0x5648 <vfprintf+0x22>
    5678:	91 2c       	mov	r9, r1
    567a:	21 2c       	mov	r2, r1
    567c:	31 2c       	mov	r3, r1
    567e:	ff e1       	ldi	r31, 0x1F	; 31
    5680:	f3 15       	cp	r31, r3
    5682:	d8 f0       	brcs	.+54     	; 0x56ba <vfprintf+0x94>
    5684:	8b 32       	cpi	r24, 0x2B	; 43
    5686:	79 f0       	breq	.+30     	; 0x56a6 <vfprintf+0x80>
    5688:	38 f4       	brcc	.+14     	; 0x5698 <vfprintf+0x72>
    568a:	80 32       	cpi	r24, 0x20	; 32
    568c:	79 f0       	breq	.+30     	; 0x56ac <vfprintf+0x86>
    568e:	83 32       	cpi	r24, 0x23	; 35
    5690:	a1 f4       	brne	.+40     	; 0x56ba <vfprintf+0x94>
    5692:	23 2d       	mov	r18, r3
    5694:	20 61       	ori	r18, 0x10	; 16
    5696:	1d c0       	rjmp	.+58     	; 0x56d2 <vfprintf+0xac>
    5698:	8d 32       	cpi	r24, 0x2D	; 45
    569a:	61 f0       	breq	.+24     	; 0x56b4 <vfprintf+0x8e>
    569c:	80 33       	cpi	r24, 0x30	; 48
    569e:	69 f4       	brne	.+26     	; 0x56ba <vfprintf+0x94>
    56a0:	23 2d       	mov	r18, r3
    56a2:	21 60       	ori	r18, 0x01	; 1
    56a4:	16 c0       	rjmp	.+44     	; 0x56d2 <vfprintf+0xac>
    56a6:	83 2d       	mov	r24, r3
    56a8:	82 60       	ori	r24, 0x02	; 2
    56aa:	38 2e       	mov	r3, r24
    56ac:	e3 2d       	mov	r30, r3
    56ae:	e4 60       	ori	r30, 0x04	; 4
    56b0:	3e 2e       	mov	r3, r30
    56b2:	2a c0       	rjmp	.+84     	; 0x5708 <vfprintf+0xe2>
    56b4:	f3 2d       	mov	r31, r3
    56b6:	f8 60       	ori	r31, 0x08	; 8
    56b8:	1d c0       	rjmp	.+58     	; 0x56f4 <vfprintf+0xce>
    56ba:	37 fc       	sbrc	r3, 7
    56bc:	2d c0       	rjmp	.+90     	; 0x5718 <vfprintf+0xf2>
    56be:	20 ed       	ldi	r18, 0xD0	; 208
    56c0:	28 0f       	add	r18, r24
    56c2:	2a 30       	cpi	r18, 0x0A	; 10
    56c4:	40 f0       	brcs	.+16     	; 0x56d6 <vfprintf+0xb0>
    56c6:	8e 32       	cpi	r24, 0x2E	; 46
    56c8:	b9 f4       	brne	.+46     	; 0x56f8 <vfprintf+0xd2>
    56ca:	36 fc       	sbrc	r3, 6
    56cc:	75 c1       	rjmp	.+746    	; 0x59b8 <vfprintf+0x392>
    56ce:	23 2d       	mov	r18, r3
    56d0:	20 64       	ori	r18, 0x40	; 64
    56d2:	32 2e       	mov	r3, r18
    56d4:	19 c0       	rjmp	.+50     	; 0x5708 <vfprintf+0xe2>
    56d6:	36 fe       	sbrs	r3, 6
    56d8:	06 c0       	rjmp	.+12     	; 0x56e6 <vfprintf+0xc0>
    56da:	8a e0       	ldi	r24, 0x0A	; 10
    56dc:	98 9e       	mul	r9, r24
    56de:	20 0d       	add	r18, r0
    56e0:	11 24       	eor	r1, r1
    56e2:	92 2e       	mov	r9, r18
    56e4:	11 c0       	rjmp	.+34     	; 0x5708 <vfprintf+0xe2>
    56e6:	ea e0       	ldi	r30, 0x0A	; 10
    56e8:	2e 9e       	mul	r2, r30
    56ea:	20 0d       	add	r18, r0
    56ec:	11 24       	eor	r1, r1
    56ee:	22 2e       	mov	r2, r18
    56f0:	f3 2d       	mov	r31, r3
    56f2:	f0 62       	ori	r31, 0x20	; 32
    56f4:	3f 2e       	mov	r3, r31
    56f6:	08 c0       	rjmp	.+16     	; 0x5708 <vfprintf+0xe2>
    56f8:	8c 36       	cpi	r24, 0x6C	; 108
    56fa:	21 f4       	brne	.+8      	; 0x5704 <vfprintf+0xde>
    56fc:	83 2d       	mov	r24, r3
    56fe:	80 68       	ori	r24, 0x80	; 128
    5700:	38 2e       	mov	r3, r24
    5702:	02 c0       	rjmp	.+4      	; 0x5708 <vfprintf+0xe2>
    5704:	88 36       	cpi	r24, 0x68	; 104
    5706:	41 f4       	brne	.+16     	; 0x5718 <vfprintf+0xf2>
    5708:	f7 01       	movw	r30, r14
    570a:	93 fd       	sbrc	r25, 3
    570c:	85 91       	lpm	r24, Z+
    570e:	93 ff       	sbrs	r25, 3
    5710:	81 91       	ld	r24, Z+
    5712:	7f 01       	movw	r14, r30
    5714:	81 11       	cpse	r24, r1
    5716:	b3 cf       	rjmp	.-154    	; 0x567e <vfprintf+0x58>
    5718:	98 2f       	mov	r25, r24
    571a:	9f 7d       	andi	r25, 0xDF	; 223
    571c:	95 54       	subi	r25, 0x45	; 69
    571e:	93 30       	cpi	r25, 0x03	; 3
    5720:	28 f4       	brcc	.+10     	; 0x572c <vfprintf+0x106>
    5722:	0c 5f       	subi	r16, 0xFC	; 252
    5724:	1f 4f       	sbci	r17, 0xFF	; 255
    5726:	9f e3       	ldi	r25, 0x3F	; 63
    5728:	99 83       	std	Y+1, r25	; 0x01
    572a:	0d c0       	rjmp	.+26     	; 0x5746 <vfprintf+0x120>
    572c:	83 36       	cpi	r24, 0x63	; 99
    572e:	31 f0       	breq	.+12     	; 0x573c <vfprintf+0x116>
    5730:	83 37       	cpi	r24, 0x73	; 115
    5732:	71 f0       	breq	.+28     	; 0x5750 <vfprintf+0x12a>
    5734:	83 35       	cpi	r24, 0x53	; 83
    5736:	09 f0       	breq	.+2      	; 0x573a <vfprintf+0x114>
    5738:	55 c0       	rjmp	.+170    	; 0x57e4 <vfprintf+0x1be>
    573a:	20 c0       	rjmp	.+64     	; 0x577c <vfprintf+0x156>
    573c:	f8 01       	movw	r30, r16
    573e:	80 81       	ld	r24, Z
    5740:	89 83       	std	Y+1, r24	; 0x01
    5742:	0e 5f       	subi	r16, 0xFE	; 254
    5744:	1f 4f       	sbci	r17, 0xFF	; 255
    5746:	88 24       	eor	r8, r8
    5748:	83 94       	inc	r8
    574a:	91 2c       	mov	r9, r1
    574c:	53 01       	movw	r10, r6
    574e:	12 c0       	rjmp	.+36     	; 0x5774 <vfprintf+0x14e>
    5750:	28 01       	movw	r4, r16
    5752:	f2 e0       	ldi	r31, 0x02	; 2
    5754:	4f 0e       	add	r4, r31
    5756:	51 1c       	adc	r5, r1
    5758:	f8 01       	movw	r30, r16
    575a:	a0 80       	ld	r10, Z
    575c:	b1 80       	ldd	r11, Z+1	; 0x01
    575e:	36 fe       	sbrs	r3, 6
    5760:	03 c0       	rjmp	.+6      	; 0x5768 <vfprintf+0x142>
    5762:	69 2d       	mov	r22, r9
    5764:	70 e0       	ldi	r23, 0x00	; 0
    5766:	02 c0       	rjmp	.+4      	; 0x576c <vfprintf+0x146>
    5768:	6f ef       	ldi	r22, 0xFF	; 255
    576a:	7f ef       	ldi	r23, 0xFF	; 255
    576c:	c5 01       	movw	r24, r10
    576e:	38 d1       	rcall	.+624    	; 0x59e0 <strnlen>
    5770:	4c 01       	movw	r8, r24
    5772:	82 01       	movw	r16, r4
    5774:	f3 2d       	mov	r31, r3
    5776:	ff 77       	andi	r31, 0x7F	; 127
    5778:	3f 2e       	mov	r3, r31
    577a:	15 c0       	rjmp	.+42     	; 0x57a6 <vfprintf+0x180>
    577c:	28 01       	movw	r4, r16
    577e:	22 e0       	ldi	r18, 0x02	; 2
    5780:	42 0e       	add	r4, r18
    5782:	51 1c       	adc	r5, r1
    5784:	f8 01       	movw	r30, r16
    5786:	a0 80       	ld	r10, Z
    5788:	b1 80       	ldd	r11, Z+1	; 0x01
    578a:	36 fe       	sbrs	r3, 6
    578c:	03 c0       	rjmp	.+6      	; 0x5794 <vfprintf+0x16e>
    578e:	69 2d       	mov	r22, r9
    5790:	70 e0       	ldi	r23, 0x00	; 0
    5792:	02 c0       	rjmp	.+4      	; 0x5798 <vfprintf+0x172>
    5794:	6f ef       	ldi	r22, 0xFF	; 255
    5796:	7f ef       	ldi	r23, 0xFF	; 255
    5798:	c5 01       	movw	r24, r10
    579a:	17 d1       	rcall	.+558    	; 0x59ca <strnlen_P>
    579c:	4c 01       	movw	r8, r24
    579e:	f3 2d       	mov	r31, r3
    57a0:	f0 68       	ori	r31, 0x80	; 128
    57a2:	3f 2e       	mov	r3, r31
    57a4:	82 01       	movw	r16, r4
    57a6:	33 fc       	sbrc	r3, 3
    57a8:	19 c0       	rjmp	.+50     	; 0x57dc <vfprintf+0x1b6>
    57aa:	82 2d       	mov	r24, r2
    57ac:	90 e0       	ldi	r25, 0x00	; 0
    57ae:	88 16       	cp	r8, r24
    57b0:	99 06       	cpc	r9, r25
    57b2:	a0 f4       	brcc	.+40     	; 0x57dc <vfprintf+0x1b6>
    57b4:	b6 01       	movw	r22, r12
    57b6:	80 e2       	ldi	r24, 0x20	; 32
    57b8:	90 e0       	ldi	r25, 0x00	; 0
    57ba:	1d d1       	rcall	.+570    	; 0x59f6 <fputc>
    57bc:	2a 94       	dec	r2
    57be:	f5 cf       	rjmp	.-22     	; 0x57aa <vfprintf+0x184>
    57c0:	f5 01       	movw	r30, r10
    57c2:	37 fc       	sbrc	r3, 7
    57c4:	85 91       	lpm	r24, Z+
    57c6:	37 fe       	sbrs	r3, 7
    57c8:	81 91       	ld	r24, Z+
    57ca:	5f 01       	movw	r10, r30
    57cc:	b6 01       	movw	r22, r12
    57ce:	90 e0       	ldi	r25, 0x00	; 0
    57d0:	12 d1       	rcall	.+548    	; 0x59f6 <fputc>
    57d2:	21 10       	cpse	r2, r1
    57d4:	2a 94       	dec	r2
    57d6:	21 e0       	ldi	r18, 0x01	; 1
    57d8:	82 1a       	sub	r8, r18
    57da:	91 08       	sbc	r9, r1
    57dc:	81 14       	cp	r8, r1
    57de:	91 04       	cpc	r9, r1
    57e0:	79 f7       	brne	.-34     	; 0x57c0 <vfprintf+0x19a>
    57e2:	e1 c0       	rjmp	.+450    	; 0x59a6 <vfprintf+0x380>
    57e4:	84 36       	cpi	r24, 0x64	; 100
    57e6:	11 f0       	breq	.+4      	; 0x57ec <vfprintf+0x1c6>
    57e8:	89 36       	cpi	r24, 0x69	; 105
    57ea:	39 f5       	brne	.+78     	; 0x583a <vfprintf+0x214>
    57ec:	f8 01       	movw	r30, r16
    57ee:	37 fe       	sbrs	r3, 7
    57f0:	07 c0       	rjmp	.+14     	; 0x5800 <vfprintf+0x1da>
    57f2:	60 81       	ld	r22, Z
    57f4:	71 81       	ldd	r23, Z+1	; 0x01
    57f6:	82 81       	ldd	r24, Z+2	; 0x02
    57f8:	93 81       	ldd	r25, Z+3	; 0x03
    57fa:	0c 5f       	subi	r16, 0xFC	; 252
    57fc:	1f 4f       	sbci	r17, 0xFF	; 255
    57fe:	08 c0       	rjmp	.+16     	; 0x5810 <vfprintf+0x1ea>
    5800:	60 81       	ld	r22, Z
    5802:	71 81       	ldd	r23, Z+1	; 0x01
    5804:	07 2e       	mov	r0, r23
    5806:	00 0c       	add	r0, r0
    5808:	88 0b       	sbc	r24, r24
    580a:	99 0b       	sbc	r25, r25
    580c:	0e 5f       	subi	r16, 0xFE	; 254
    580e:	1f 4f       	sbci	r17, 0xFF	; 255
    5810:	f3 2d       	mov	r31, r3
    5812:	ff 76       	andi	r31, 0x6F	; 111
    5814:	3f 2e       	mov	r3, r31
    5816:	97 ff       	sbrs	r25, 7
    5818:	09 c0       	rjmp	.+18     	; 0x582c <vfprintf+0x206>
    581a:	90 95       	com	r25
    581c:	80 95       	com	r24
    581e:	70 95       	com	r23
    5820:	61 95       	neg	r22
    5822:	7f 4f       	sbci	r23, 0xFF	; 255
    5824:	8f 4f       	sbci	r24, 0xFF	; 255
    5826:	9f 4f       	sbci	r25, 0xFF	; 255
    5828:	f0 68       	ori	r31, 0x80	; 128
    582a:	3f 2e       	mov	r3, r31
    582c:	2a e0       	ldi	r18, 0x0A	; 10
    582e:	30 e0       	ldi	r19, 0x00	; 0
    5830:	a3 01       	movw	r20, r6
    5832:	1d d1       	rcall	.+570    	; 0x5a6e <__ultoa_invert>
    5834:	88 2e       	mov	r8, r24
    5836:	86 18       	sub	r8, r6
    5838:	44 c0       	rjmp	.+136    	; 0x58c2 <vfprintf+0x29c>
    583a:	85 37       	cpi	r24, 0x75	; 117
    583c:	31 f4       	brne	.+12     	; 0x584a <vfprintf+0x224>
    583e:	23 2d       	mov	r18, r3
    5840:	2f 7e       	andi	r18, 0xEF	; 239
    5842:	b2 2e       	mov	r11, r18
    5844:	2a e0       	ldi	r18, 0x0A	; 10
    5846:	30 e0       	ldi	r19, 0x00	; 0
    5848:	25 c0       	rjmp	.+74     	; 0x5894 <vfprintf+0x26e>
    584a:	93 2d       	mov	r25, r3
    584c:	99 7f       	andi	r25, 0xF9	; 249
    584e:	b9 2e       	mov	r11, r25
    5850:	8f 36       	cpi	r24, 0x6F	; 111
    5852:	c1 f0       	breq	.+48     	; 0x5884 <vfprintf+0x25e>
    5854:	18 f4       	brcc	.+6      	; 0x585c <vfprintf+0x236>
    5856:	88 35       	cpi	r24, 0x58	; 88
    5858:	79 f0       	breq	.+30     	; 0x5878 <vfprintf+0x252>
    585a:	ae c0       	rjmp	.+348    	; 0x59b8 <vfprintf+0x392>
    585c:	80 37       	cpi	r24, 0x70	; 112
    585e:	19 f0       	breq	.+6      	; 0x5866 <vfprintf+0x240>
    5860:	88 37       	cpi	r24, 0x78	; 120
    5862:	21 f0       	breq	.+8      	; 0x586c <vfprintf+0x246>
    5864:	a9 c0       	rjmp	.+338    	; 0x59b8 <vfprintf+0x392>
    5866:	e9 2f       	mov	r30, r25
    5868:	e0 61       	ori	r30, 0x10	; 16
    586a:	be 2e       	mov	r11, r30
    586c:	b4 fe       	sbrs	r11, 4
    586e:	0d c0       	rjmp	.+26     	; 0x588a <vfprintf+0x264>
    5870:	fb 2d       	mov	r31, r11
    5872:	f4 60       	ori	r31, 0x04	; 4
    5874:	bf 2e       	mov	r11, r31
    5876:	09 c0       	rjmp	.+18     	; 0x588a <vfprintf+0x264>
    5878:	34 fe       	sbrs	r3, 4
    587a:	0a c0       	rjmp	.+20     	; 0x5890 <vfprintf+0x26a>
    587c:	29 2f       	mov	r18, r25
    587e:	26 60       	ori	r18, 0x06	; 6
    5880:	b2 2e       	mov	r11, r18
    5882:	06 c0       	rjmp	.+12     	; 0x5890 <vfprintf+0x26a>
    5884:	28 e0       	ldi	r18, 0x08	; 8
    5886:	30 e0       	ldi	r19, 0x00	; 0
    5888:	05 c0       	rjmp	.+10     	; 0x5894 <vfprintf+0x26e>
    588a:	20 e1       	ldi	r18, 0x10	; 16
    588c:	30 e0       	ldi	r19, 0x00	; 0
    588e:	02 c0       	rjmp	.+4      	; 0x5894 <vfprintf+0x26e>
    5890:	20 e1       	ldi	r18, 0x10	; 16
    5892:	32 e0       	ldi	r19, 0x02	; 2
    5894:	f8 01       	movw	r30, r16
    5896:	b7 fe       	sbrs	r11, 7
    5898:	07 c0       	rjmp	.+14     	; 0x58a8 <vfprintf+0x282>
    589a:	60 81       	ld	r22, Z
    589c:	71 81       	ldd	r23, Z+1	; 0x01
    589e:	82 81       	ldd	r24, Z+2	; 0x02
    58a0:	93 81       	ldd	r25, Z+3	; 0x03
    58a2:	0c 5f       	subi	r16, 0xFC	; 252
    58a4:	1f 4f       	sbci	r17, 0xFF	; 255
    58a6:	06 c0       	rjmp	.+12     	; 0x58b4 <vfprintf+0x28e>
    58a8:	60 81       	ld	r22, Z
    58aa:	71 81       	ldd	r23, Z+1	; 0x01
    58ac:	80 e0       	ldi	r24, 0x00	; 0
    58ae:	90 e0       	ldi	r25, 0x00	; 0
    58b0:	0e 5f       	subi	r16, 0xFE	; 254
    58b2:	1f 4f       	sbci	r17, 0xFF	; 255
    58b4:	a3 01       	movw	r20, r6
    58b6:	db d0       	rcall	.+438    	; 0x5a6e <__ultoa_invert>
    58b8:	88 2e       	mov	r8, r24
    58ba:	86 18       	sub	r8, r6
    58bc:	fb 2d       	mov	r31, r11
    58be:	ff 77       	andi	r31, 0x7F	; 127
    58c0:	3f 2e       	mov	r3, r31
    58c2:	36 fe       	sbrs	r3, 6
    58c4:	0d c0       	rjmp	.+26     	; 0x58e0 <vfprintf+0x2ba>
    58c6:	23 2d       	mov	r18, r3
    58c8:	2e 7f       	andi	r18, 0xFE	; 254
    58ca:	a2 2e       	mov	r10, r18
    58cc:	89 14       	cp	r8, r9
    58ce:	58 f4       	brcc	.+22     	; 0x58e6 <vfprintf+0x2c0>
    58d0:	34 fe       	sbrs	r3, 4
    58d2:	0b c0       	rjmp	.+22     	; 0x58ea <vfprintf+0x2c4>
    58d4:	32 fc       	sbrc	r3, 2
    58d6:	09 c0       	rjmp	.+18     	; 0x58ea <vfprintf+0x2c4>
    58d8:	83 2d       	mov	r24, r3
    58da:	8e 7e       	andi	r24, 0xEE	; 238
    58dc:	a8 2e       	mov	r10, r24
    58de:	05 c0       	rjmp	.+10     	; 0x58ea <vfprintf+0x2c4>
    58e0:	b8 2c       	mov	r11, r8
    58e2:	a3 2c       	mov	r10, r3
    58e4:	03 c0       	rjmp	.+6      	; 0x58ec <vfprintf+0x2c6>
    58e6:	b8 2c       	mov	r11, r8
    58e8:	01 c0       	rjmp	.+2      	; 0x58ec <vfprintf+0x2c6>
    58ea:	b9 2c       	mov	r11, r9
    58ec:	a4 fe       	sbrs	r10, 4
    58ee:	0f c0       	rjmp	.+30     	; 0x590e <vfprintf+0x2e8>
    58f0:	fe 01       	movw	r30, r28
    58f2:	e8 0d       	add	r30, r8
    58f4:	f1 1d       	adc	r31, r1
    58f6:	80 81       	ld	r24, Z
    58f8:	80 33       	cpi	r24, 0x30	; 48
    58fa:	21 f4       	brne	.+8      	; 0x5904 <vfprintf+0x2de>
    58fc:	9a 2d       	mov	r25, r10
    58fe:	99 7e       	andi	r25, 0xE9	; 233
    5900:	a9 2e       	mov	r10, r25
    5902:	09 c0       	rjmp	.+18     	; 0x5916 <vfprintf+0x2f0>
    5904:	a2 fe       	sbrs	r10, 2
    5906:	06 c0       	rjmp	.+12     	; 0x5914 <vfprintf+0x2ee>
    5908:	b3 94       	inc	r11
    590a:	b3 94       	inc	r11
    590c:	04 c0       	rjmp	.+8      	; 0x5916 <vfprintf+0x2f0>
    590e:	8a 2d       	mov	r24, r10
    5910:	86 78       	andi	r24, 0x86	; 134
    5912:	09 f0       	breq	.+2      	; 0x5916 <vfprintf+0x2f0>
    5914:	b3 94       	inc	r11
    5916:	a3 fc       	sbrc	r10, 3
    5918:	10 c0       	rjmp	.+32     	; 0x593a <vfprintf+0x314>
    591a:	a0 fe       	sbrs	r10, 0
    591c:	06 c0       	rjmp	.+12     	; 0x592a <vfprintf+0x304>
    591e:	b2 14       	cp	r11, r2
    5920:	80 f4       	brcc	.+32     	; 0x5942 <vfprintf+0x31c>
    5922:	28 0c       	add	r2, r8
    5924:	92 2c       	mov	r9, r2
    5926:	9b 18       	sub	r9, r11
    5928:	0d c0       	rjmp	.+26     	; 0x5944 <vfprintf+0x31e>
    592a:	b2 14       	cp	r11, r2
    592c:	58 f4       	brcc	.+22     	; 0x5944 <vfprintf+0x31e>
    592e:	b6 01       	movw	r22, r12
    5930:	80 e2       	ldi	r24, 0x20	; 32
    5932:	90 e0       	ldi	r25, 0x00	; 0
    5934:	60 d0       	rcall	.+192    	; 0x59f6 <fputc>
    5936:	b3 94       	inc	r11
    5938:	f8 cf       	rjmp	.-16     	; 0x592a <vfprintf+0x304>
    593a:	b2 14       	cp	r11, r2
    593c:	18 f4       	brcc	.+6      	; 0x5944 <vfprintf+0x31e>
    593e:	2b 18       	sub	r2, r11
    5940:	02 c0       	rjmp	.+4      	; 0x5946 <vfprintf+0x320>
    5942:	98 2c       	mov	r9, r8
    5944:	21 2c       	mov	r2, r1
    5946:	a4 fe       	sbrs	r10, 4
    5948:	0f c0       	rjmp	.+30     	; 0x5968 <vfprintf+0x342>
    594a:	b6 01       	movw	r22, r12
    594c:	80 e3       	ldi	r24, 0x30	; 48
    594e:	90 e0       	ldi	r25, 0x00	; 0
    5950:	52 d0       	rcall	.+164    	; 0x59f6 <fputc>
    5952:	a2 fe       	sbrs	r10, 2
    5954:	16 c0       	rjmp	.+44     	; 0x5982 <vfprintf+0x35c>
    5956:	a1 fc       	sbrc	r10, 1
    5958:	03 c0       	rjmp	.+6      	; 0x5960 <vfprintf+0x33a>
    595a:	88 e7       	ldi	r24, 0x78	; 120
    595c:	90 e0       	ldi	r25, 0x00	; 0
    595e:	02 c0       	rjmp	.+4      	; 0x5964 <vfprintf+0x33e>
    5960:	88 e5       	ldi	r24, 0x58	; 88
    5962:	90 e0       	ldi	r25, 0x00	; 0
    5964:	b6 01       	movw	r22, r12
    5966:	0c c0       	rjmp	.+24     	; 0x5980 <vfprintf+0x35a>
    5968:	8a 2d       	mov	r24, r10
    596a:	86 78       	andi	r24, 0x86	; 134
    596c:	51 f0       	breq	.+20     	; 0x5982 <vfprintf+0x35c>
    596e:	a1 fe       	sbrs	r10, 1
    5970:	02 c0       	rjmp	.+4      	; 0x5976 <vfprintf+0x350>
    5972:	8b e2       	ldi	r24, 0x2B	; 43
    5974:	01 c0       	rjmp	.+2      	; 0x5978 <vfprintf+0x352>
    5976:	80 e2       	ldi	r24, 0x20	; 32
    5978:	a7 fc       	sbrc	r10, 7
    597a:	8d e2       	ldi	r24, 0x2D	; 45
    597c:	b6 01       	movw	r22, r12
    597e:	90 e0       	ldi	r25, 0x00	; 0
    5980:	3a d0       	rcall	.+116    	; 0x59f6 <fputc>
    5982:	89 14       	cp	r8, r9
    5984:	30 f4       	brcc	.+12     	; 0x5992 <vfprintf+0x36c>
    5986:	b6 01       	movw	r22, r12
    5988:	80 e3       	ldi	r24, 0x30	; 48
    598a:	90 e0       	ldi	r25, 0x00	; 0
    598c:	34 d0       	rcall	.+104    	; 0x59f6 <fputc>
    598e:	9a 94       	dec	r9
    5990:	f8 cf       	rjmp	.-16     	; 0x5982 <vfprintf+0x35c>
    5992:	8a 94       	dec	r8
    5994:	f3 01       	movw	r30, r6
    5996:	e8 0d       	add	r30, r8
    5998:	f1 1d       	adc	r31, r1
    599a:	80 81       	ld	r24, Z
    599c:	b6 01       	movw	r22, r12
    599e:	90 e0       	ldi	r25, 0x00	; 0
    59a0:	2a d0       	rcall	.+84     	; 0x59f6 <fputc>
    59a2:	81 10       	cpse	r8, r1
    59a4:	f6 cf       	rjmp	.-20     	; 0x5992 <vfprintf+0x36c>
    59a6:	22 20       	and	r2, r2
    59a8:	09 f4       	brne	.+2      	; 0x59ac <vfprintf+0x386>
    59aa:	4e ce       	rjmp	.-868    	; 0x5648 <vfprintf+0x22>
    59ac:	b6 01       	movw	r22, r12
    59ae:	80 e2       	ldi	r24, 0x20	; 32
    59b0:	90 e0       	ldi	r25, 0x00	; 0
    59b2:	21 d0       	rcall	.+66     	; 0x59f6 <fputc>
    59b4:	2a 94       	dec	r2
    59b6:	f7 cf       	rjmp	.-18     	; 0x59a6 <vfprintf+0x380>
    59b8:	f6 01       	movw	r30, r12
    59ba:	86 81       	ldd	r24, Z+6	; 0x06
    59bc:	97 81       	ldd	r25, Z+7	; 0x07
    59be:	02 c0       	rjmp	.+4      	; 0x59c4 <vfprintf+0x39e>
    59c0:	8f ef       	ldi	r24, 0xFF	; 255
    59c2:	9f ef       	ldi	r25, 0xFF	; 255
    59c4:	2b 96       	adiw	r28, 0x0b	; 11
    59c6:	e2 e1       	ldi	r30, 0x12	; 18
    59c8:	cc c0       	rjmp	.+408    	; 0x5b62 <__epilogue_restores__>

000059ca <strnlen_P>:
    59ca:	fc 01       	movw	r30, r24
    59cc:	05 90       	lpm	r0, Z+
    59ce:	61 50       	subi	r22, 0x01	; 1
    59d0:	70 40       	sbci	r23, 0x00	; 0
    59d2:	01 10       	cpse	r0, r1
    59d4:	d8 f7       	brcc	.-10     	; 0x59cc <strnlen_P+0x2>
    59d6:	80 95       	com	r24
    59d8:	90 95       	com	r25
    59da:	8e 0f       	add	r24, r30
    59dc:	9f 1f       	adc	r25, r31
    59de:	08 95       	ret

000059e0 <strnlen>:
    59e0:	fc 01       	movw	r30, r24
    59e2:	61 50       	subi	r22, 0x01	; 1
    59e4:	70 40       	sbci	r23, 0x00	; 0
    59e6:	01 90       	ld	r0, Z+
    59e8:	01 10       	cpse	r0, r1
    59ea:	d8 f7       	brcc	.-10     	; 0x59e2 <strnlen+0x2>
    59ec:	80 95       	com	r24
    59ee:	90 95       	com	r25
    59f0:	8e 0f       	add	r24, r30
    59f2:	9f 1f       	adc	r25, r31
    59f4:	08 95       	ret

000059f6 <fputc>:
    59f6:	0f 93       	push	r16
    59f8:	1f 93       	push	r17
    59fa:	cf 93       	push	r28
    59fc:	df 93       	push	r29
    59fe:	fb 01       	movw	r30, r22
    5a00:	23 81       	ldd	r18, Z+3	; 0x03
    5a02:	21 fd       	sbrc	r18, 1
    5a04:	03 c0       	rjmp	.+6      	; 0x5a0c <fputc+0x16>
    5a06:	8f ef       	ldi	r24, 0xFF	; 255
    5a08:	9f ef       	ldi	r25, 0xFF	; 255
    5a0a:	2c c0       	rjmp	.+88     	; 0x5a64 <fputc+0x6e>
    5a0c:	22 ff       	sbrs	r18, 2
    5a0e:	16 c0       	rjmp	.+44     	; 0x5a3c <fputc+0x46>
    5a10:	46 81       	ldd	r20, Z+6	; 0x06
    5a12:	57 81       	ldd	r21, Z+7	; 0x07
    5a14:	24 81       	ldd	r18, Z+4	; 0x04
    5a16:	35 81       	ldd	r19, Z+5	; 0x05
    5a18:	42 17       	cp	r20, r18
    5a1a:	53 07       	cpc	r21, r19
    5a1c:	44 f4       	brge	.+16     	; 0x5a2e <fputc+0x38>
    5a1e:	a0 81       	ld	r26, Z
    5a20:	b1 81       	ldd	r27, Z+1	; 0x01
    5a22:	9d 01       	movw	r18, r26
    5a24:	2f 5f       	subi	r18, 0xFF	; 255
    5a26:	3f 4f       	sbci	r19, 0xFF	; 255
    5a28:	31 83       	std	Z+1, r19	; 0x01
    5a2a:	20 83       	st	Z, r18
    5a2c:	8c 93       	st	X, r24
    5a2e:	26 81       	ldd	r18, Z+6	; 0x06
    5a30:	37 81       	ldd	r19, Z+7	; 0x07
    5a32:	2f 5f       	subi	r18, 0xFF	; 255
    5a34:	3f 4f       	sbci	r19, 0xFF	; 255
    5a36:	37 83       	std	Z+7, r19	; 0x07
    5a38:	26 83       	std	Z+6, r18	; 0x06
    5a3a:	14 c0       	rjmp	.+40     	; 0x5a64 <fputc+0x6e>
    5a3c:	8b 01       	movw	r16, r22
    5a3e:	ec 01       	movw	r28, r24
    5a40:	fb 01       	movw	r30, r22
    5a42:	00 84       	ldd	r0, Z+8	; 0x08
    5a44:	f1 85       	ldd	r31, Z+9	; 0x09
    5a46:	e0 2d       	mov	r30, r0
    5a48:	09 95       	icall
    5a4a:	89 2b       	or	r24, r25
    5a4c:	e1 f6       	brne	.-72     	; 0x5a06 <fputc+0x10>
    5a4e:	d8 01       	movw	r26, r16
    5a50:	16 96       	adiw	r26, 0x06	; 6
    5a52:	8d 91       	ld	r24, X+
    5a54:	9c 91       	ld	r25, X
    5a56:	17 97       	sbiw	r26, 0x07	; 7
    5a58:	01 96       	adiw	r24, 0x01	; 1
    5a5a:	17 96       	adiw	r26, 0x07	; 7
    5a5c:	9c 93       	st	X, r25
    5a5e:	8e 93       	st	-X, r24
    5a60:	16 97       	sbiw	r26, 0x06	; 6
    5a62:	ce 01       	movw	r24, r28
    5a64:	df 91       	pop	r29
    5a66:	cf 91       	pop	r28
    5a68:	1f 91       	pop	r17
    5a6a:	0f 91       	pop	r16
    5a6c:	08 95       	ret

00005a6e <__ultoa_invert>:
    5a6e:	fa 01       	movw	r30, r20
    5a70:	aa 27       	eor	r26, r26
    5a72:	28 30       	cpi	r18, 0x08	; 8
    5a74:	51 f1       	breq	.+84     	; 0x5aca <__ultoa_invert+0x5c>
    5a76:	20 31       	cpi	r18, 0x10	; 16
    5a78:	81 f1       	breq	.+96     	; 0x5ada <__ultoa_invert+0x6c>
    5a7a:	e8 94       	clt
    5a7c:	6f 93       	push	r22
    5a7e:	6e 7f       	andi	r22, 0xFE	; 254
    5a80:	6e 5f       	subi	r22, 0xFE	; 254
    5a82:	7f 4f       	sbci	r23, 0xFF	; 255
    5a84:	8f 4f       	sbci	r24, 0xFF	; 255
    5a86:	9f 4f       	sbci	r25, 0xFF	; 255
    5a88:	af 4f       	sbci	r26, 0xFF	; 255
    5a8a:	b1 e0       	ldi	r27, 0x01	; 1
    5a8c:	3e d0       	rcall	.+124    	; 0x5b0a <__ultoa_invert+0x9c>
    5a8e:	b4 e0       	ldi	r27, 0x04	; 4
    5a90:	3c d0       	rcall	.+120    	; 0x5b0a <__ultoa_invert+0x9c>
    5a92:	67 0f       	add	r22, r23
    5a94:	78 1f       	adc	r23, r24
    5a96:	89 1f       	adc	r24, r25
    5a98:	9a 1f       	adc	r25, r26
    5a9a:	a1 1d       	adc	r26, r1
    5a9c:	68 0f       	add	r22, r24
    5a9e:	79 1f       	adc	r23, r25
    5aa0:	8a 1f       	adc	r24, r26
    5aa2:	91 1d       	adc	r25, r1
    5aa4:	a1 1d       	adc	r26, r1
    5aa6:	6a 0f       	add	r22, r26
    5aa8:	71 1d       	adc	r23, r1
    5aaa:	81 1d       	adc	r24, r1
    5aac:	91 1d       	adc	r25, r1
    5aae:	a1 1d       	adc	r26, r1
    5ab0:	20 d0       	rcall	.+64     	; 0x5af2 <__ultoa_invert+0x84>
    5ab2:	09 f4       	brne	.+2      	; 0x5ab6 <__ultoa_invert+0x48>
    5ab4:	68 94       	set
    5ab6:	3f 91       	pop	r19
    5ab8:	2a e0       	ldi	r18, 0x0A	; 10
    5aba:	26 9f       	mul	r18, r22
    5abc:	11 24       	eor	r1, r1
    5abe:	30 19       	sub	r19, r0
    5ac0:	30 5d       	subi	r19, 0xD0	; 208
    5ac2:	31 93       	st	Z+, r19
    5ac4:	de f6       	brtc	.-74     	; 0x5a7c <__ultoa_invert+0xe>
    5ac6:	cf 01       	movw	r24, r30
    5ac8:	08 95       	ret
    5aca:	46 2f       	mov	r20, r22
    5acc:	47 70       	andi	r20, 0x07	; 7
    5ace:	40 5d       	subi	r20, 0xD0	; 208
    5ad0:	41 93       	st	Z+, r20
    5ad2:	b3 e0       	ldi	r27, 0x03	; 3
    5ad4:	0f d0       	rcall	.+30     	; 0x5af4 <__ultoa_invert+0x86>
    5ad6:	c9 f7       	brne	.-14     	; 0x5aca <__ultoa_invert+0x5c>
    5ad8:	f6 cf       	rjmp	.-20     	; 0x5ac6 <__ultoa_invert+0x58>
    5ada:	46 2f       	mov	r20, r22
    5adc:	4f 70       	andi	r20, 0x0F	; 15
    5ade:	40 5d       	subi	r20, 0xD0	; 208
    5ae0:	4a 33       	cpi	r20, 0x3A	; 58
    5ae2:	18 f0       	brcs	.+6      	; 0x5aea <__ultoa_invert+0x7c>
    5ae4:	49 5d       	subi	r20, 0xD9	; 217
    5ae6:	31 fd       	sbrc	r19, 1
    5ae8:	40 52       	subi	r20, 0x20	; 32
    5aea:	41 93       	st	Z+, r20
    5aec:	02 d0       	rcall	.+4      	; 0x5af2 <__ultoa_invert+0x84>
    5aee:	a9 f7       	brne	.-22     	; 0x5ada <__ultoa_invert+0x6c>
    5af0:	ea cf       	rjmp	.-44     	; 0x5ac6 <__ultoa_invert+0x58>
    5af2:	b4 e0       	ldi	r27, 0x04	; 4
    5af4:	a6 95       	lsr	r26
    5af6:	97 95       	ror	r25
    5af8:	87 95       	ror	r24
    5afa:	77 95       	ror	r23
    5afc:	67 95       	ror	r22
    5afe:	ba 95       	dec	r27
    5b00:	c9 f7       	brne	.-14     	; 0x5af4 <__ultoa_invert+0x86>
    5b02:	00 97       	sbiw	r24, 0x00	; 0
    5b04:	61 05       	cpc	r22, r1
    5b06:	71 05       	cpc	r23, r1
    5b08:	08 95       	ret
    5b0a:	9b 01       	movw	r18, r22
    5b0c:	ac 01       	movw	r20, r24
    5b0e:	0a 2e       	mov	r0, r26
    5b10:	06 94       	lsr	r0
    5b12:	57 95       	ror	r21
    5b14:	47 95       	ror	r20
    5b16:	37 95       	ror	r19
    5b18:	27 95       	ror	r18
    5b1a:	ba 95       	dec	r27
    5b1c:	c9 f7       	brne	.-14     	; 0x5b10 <__ultoa_invert+0xa2>
    5b1e:	62 0f       	add	r22, r18
    5b20:	73 1f       	adc	r23, r19
    5b22:	84 1f       	adc	r24, r20
    5b24:	95 1f       	adc	r25, r21
    5b26:	a0 1d       	adc	r26, r0
    5b28:	08 95       	ret

00005b2a <__prologue_saves__>:
    5b2a:	2f 92       	push	r2
    5b2c:	3f 92       	push	r3
    5b2e:	4f 92       	push	r4
    5b30:	5f 92       	push	r5
    5b32:	6f 92       	push	r6
    5b34:	7f 92       	push	r7
    5b36:	8f 92       	push	r8
    5b38:	9f 92       	push	r9
    5b3a:	af 92       	push	r10
    5b3c:	bf 92       	push	r11
    5b3e:	cf 92       	push	r12
    5b40:	df 92       	push	r13
    5b42:	ef 92       	push	r14
    5b44:	ff 92       	push	r15
    5b46:	0f 93       	push	r16
    5b48:	1f 93       	push	r17
    5b4a:	cf 93       	push	r28
    5b4c:	df 93       	push	r29
    5b4e:	cd b7       	in	r28, 0x3d	; 61
    5b50:	de b7       	in	r29, 0x3e	; 62
    5b52:	ca 1b       	sub	r28, r26
    5b54:	db 0b       	sbc	r29, r27
    5b56:	0f b6       	in	r0, 0x3f	; 63
    5b58:	f8 94       	cli
    5b5a:	de bf       	out	0x3e, r29	; 62
    5b5c:	0f be       	out	0x3f, r0	; 63
    5b5e:	cd bf       	out	0x3d, r28	; 61
    5b60:	09 94       	ijmp

00005b62 <__epilogue_restores__>:
    5b62:	2a 88       	ldd	r2, Y+18	; 0x12
    5b64:	39 88       	ldd	r3, Y+17	; 0x11
    5b66:	48 88       	ldd	r4, Y+16	; 0x10
    5b68:	5f 84       	ldd	r5, Y+15	; 0x0f
    5b6a:	6e 84       	ldd	r6, Y+14	; 0x0e
    5b6c:	7d 84       	ldd	r7, Y+13	; 0x0d
    5b6e:	8c 84       	ldd	r8, Y+12	; 0x0c
    5b70:	9b 84       	ldd	r9, Y+11	; 0x0b
    5b72:	aa 84       	ldd	r10, Y+10	; 0x0a
    5b74:	b9 84       	ldd	r11, Y+9	; 0x09
    5b76:	c8 84       	ldd	r12, Y+8	; 0x08
    5b78:	df 80       	ldd	r13, Y+7	; 0x07
    5b7a:	ee 80       	ldd	r14, Y+6	; 0x06
    5b7c:	fd 80       	ldd	r15, Y+5	; 0x05
    5b7e:	0c 81       	ldd	r16, Y+4	; 0x04
    5b80:	1b 81       	ldd	r17, Y+3	; 0x03
    5b82:	aa 81       	ldd	r26, Y+2	; 0x02
    5b84:	b9 81       	ldd	r27, Y+1	; 0x01
    5b86:	ce 0f       	add	r28, r30
    5b88:	d1 1d       	adc	r29, r1
    5b8a:	0f b6       	in	r0, 0x3f	; 63
    5b8c:	f8 94       	cli
    5b8e:	de bf       	out	0x3e, r29	; 62
    5b90:	0f be       	out	0x3f, r0	; 63
    5b92:	cd bf       	out	0x3d, r28	; 61
    5b94:	ed 01       	movw	r28, r26
    5b96:	08 95       	ret

00005b98 <_exit>:
    5b98:	f8 94       	cli

00005b9a <__stop_program>:
    5b9a:	ff cf       	rjmp	.-2      	; 0x5b9a <__stop_program>
