
SSD1306.elf:     file format elf32-avr

Sections:
Idx Name          Size      VMA       LMA       File off  Algn
  0 .data         00000006  00800100  00002bb8  00002c4c  2**0
                  CONTENTS, ALLOC, LOAD, DATA
  1 .text         00002bb8  00000000  00000000  00000094  2**1
                  CONTENTS, ALLOC, LOAD, READONLY, CODE
  2 .bss          00000416  00800106  00800106  00002c52  2**0
                  ALLOC
  3 .comment      00000030  00000000  00000000  00002c52  2**0
                  CONTENTS, READONLY
  4 .note.gnu.avr.deviceinfo 00000040  00000000  00000000  00002c84  2**2
                  CONTENTS, READONLY
  5 .debug_aranges 00000190  00000000  00000000  00002cc4  2**0
                  CONTENTS, READONLY, DEBUGGING
  6 .debug_info   00006596  00000000  00000000  00002e54  2**0
                  CONTENTS, READONLY, DEBUGGING
  7 .debug_abbrev 00000b59  00000000  00000000  000093ea  2**0
                  CONTENTS, READONLY, DEBUGGING
  8 .debug_line   000023bc  00000000  00000000  00009f43  2**0
                  CONTENTS, READONLY, DEBUGGING
  9 .debug_frame  00000810  00000000  00000000  0000c300  2**2
                  CONTENTS, READONLY, DEBUGGING
 10 .debug_str    0000238e  00000000  00000000  0000cb10  2**0
                  CONTENTS, READONLY, DEBUGGING
 11 .debug_loc    00003c7b  00000000  00000000  0000ee9e  2**0
                  CONTENTS, READONLY, DEBUGGING
 12 .debug_ranges 00000160  00000000  00000000  00012b19  2**0
                  CONTENTS, READONLY, DEBUGGING

Disassembly of section .text:

00000000 <__vectors>:
       0:	0c 94 a1 0d 	jmp	0x1b42	; 0x1b42 <__ctors_end>
       4:	0c 94 be 0d 	jmp	0x1b7c	; 0x1b7c <__bad_interrupt>
       8:	0c 94 be 0d 	jmp	0x1b7c	; 0x1b7c <__bad_interrupt>
       c:	0c 94 be 0d 	jmp	0x1b7c	; 0x1b7c <__bad_interrupt>
      10:	0c 94 be 0d 	jmp	0x1b7c	; 0x1b7c <__bad_interrupt>
      14:	0c 94 be 0d 	jmp	0x1b7c	; 0x1b7c <__bad_interrupt>
      18:	0c 94 be 0d 	jmp	0x1b7c	; 0x1b7c <__bad_interrupt>
      1c:	0c 94 be 0d 	jmp	0x1b7c	; 0x1b7c <__bad_interrupt>
      20:	0c 94 be 0d 	jmp	0x1b7c	; 0x1b7c <__bad_interrupt>
      24:	0c 94 be 0d 	jmp	0x1b7c	; 0x1b7c <__bad_interrupt>
      28:	0c 94 be 0d 	jmp	0x1b7c	; 0x1b7c <__bad_interrupt>
      2c:	0c 94 be 0d 	jmp	0x1b7c	; 0x1b7c <__bad_interrupt>
      30:	0c 94 be 0d 	jmp	0x1b7c	; 0x1b7c <__bad_interrupt>
      34:	0c 94 be 0d 	jmp	0x1b7c	; 0x1b7c <__bad_interrupt>
      38:	0c 94 be 0d 	jmp	0x1b7c	; 0x1b7c <__bad_interrupt>
      3c:	0c 94 be 0d 	jmp	0x1b7c	; 0x1b7c <__bad_interrupt>
      40:	0c 94 be 0d 	jmp	0x1b7c	; 0x1b7c <__bad_interrupt>
      44:	0c 94 be 0d 	jmp	0x1b7c	; 0x1b7c <__bad_interrupt>
      48:	0c 94 be 0d 	jmp	0x1b7c	; 0x1b7c <__bad_interrupt>
      4c:	0c 94 be 0d 	jmp	0x1b7c	; 0x1b7c <__bad_interrupt>
      50:	0c 94 be 0d 	jmp	0x1b7c	; 0x1b7c <__bad_interrupt>
      54:	0c 94 be 0d 	jmp	0x1b7c	; 0x1b7c <__bad_interrupt>
      58:	0c 94 be 0d 	jmp	0x1b7c	; 0x1b7c <__bad_interrupt>
      5c:	0c 94 be 0d 	jmp	0x1b7c	; 0x1b7c <__bad_interrupt>
      60:	0c 94 b0 14 	jmp	0x2960	; 0x2960 <__vector_24>
      64:	0c 94 be 0d 	jmp	0x1b7c	; 0x1b7c <__bad_interrupt>

00000068 <Font_24_Segment_16_Full>:
      68:	08 03 6f 00 20 7e 24                                ..o. ~$

0000006f <Font_24_Segment_16_FullGlyphs>:
      6f:	00 00 00 00 18 00 00 00 00 03 1e 18 0b e0 0c 00     ................
      7f:	12 03 18 03 de 13 00 16 22 18 01 de 71 00 16 22     ........"...q.."
      8f:	18 01 de cf 00 16 22 18 01 de 2d 01 14 22 18 01     ......"...-.."..
      9f:	de 82 01 06 0b 18 0e e2 8b 01 11 22 18 04 de d4     ..........."....
      af:	01 11 22 18 03 de 1d 02 12 1e 18 03 e0 61 02 12     .."..........a..
      bf:	1e 18 03 e0 a5 02 06 0b 18 04 f1 ae 02 12 04 18     ................
      cf:	03 ed b7 02 04 03 18 0a fd b9 02 10 1a 18 04 e2     ................
      df:	ed 02 16 22 18 01 de 4b 03 12 22 18 03 de 98 03     ..."...K..".....
      ef:	16 22 18 01 de f6 03 14 22 18 03 de 4b 04 16 1e     ."......"...K...
      ff:	18 01 e0 9e 04 16 22 18 01 de fc 04 16 22 18 01     ......"......"..
     10f:	de 5a 05 14 20 18 03 de aa 05 16 22 18 01 de 08     .Z.. ......"....
     11f:	06 16 22 18 01 de 66 06 04 12 18 0a e6 6f 06 0a     .."...f......o..
     12f:	1c 18 04 e0 92 06 06 1a 18 09 e2 a6 06 12 12 18     ................
     13f:	03 e6 cf 06 06 1a 18 09 e2 e3 06 14 20 18 03 de     ............ ...
     14f:	33 07 16 22 18 01 de 91 07 16 20 18 01 de e9 07     3.."...... .....
     15f:	14 22 18 03 de 3e 08 14 22 18 01 de 93 08 14 22     ."...>.."......"
     16f:	18 03 de e8 08 14 22 18 01 de 3d 09 14 20 18 01     ......"...=.. ..
     17f:	de 8d 09 16 22 18 01 de eb 09 16 1e 18 01 e0 3e     ...."..........>
     18f:	0a 12 22 18 03 de 8b 0a 16 22 18 01 de e9 0a 13     .."......"......
     19f:	1e 18 01 e0 31 0b 14 20 18 01 e0 81 0b 16 1e 18     ....1.. ........
     1af:	01 e0 d4 0b 16 1e 18 01 e0 27 0c 16 22 18 01 de     .........'.."...
     1bf:	85 0c 16 20 18 01 de dd 0c 16 22 18 01 de 3b 0d     ... ......"...;.
     1cf:	16 20 18 01 de 93 0d 16 22 18 01 de f1 0d 12 20     . ......"...... 
     1df:	18 03 de 39 0e 16 20 18 01 e0 91 0e 13 1e 18 01     ...9.. .........
     1ef:	e0 d9 0e 16 20 18 01 e0 31 0f 10 1a 18 04 e2 65     .... ...1......e
     1ff:	0f 10 1c 18 04 e2 9d 0f 12 22 18 03 de ea 0f 0b     ........."......
     20f:	22 18 01 de 19 10 10 1a 18 04 e2 4d 10 0a 22 18     "..........M..".
     21f:	0d de 78 10 10 0b 18 04 e2 8e 10 12 03 18 03 fd     ..x.............
     22f:	95 10 06 0b 18 04 e2 9e 10 06 06 18 09 ec a3 10     ................
     23f:	0c 0c 18 06 e9 b5 10 12 20 18 03 e0 fd 10 14 1e     ........ .......
     24f:	18 01 e0 48 11 14 1e 18 03 e0 93 11 0d 13 18 01     ...H............
     25f:	ed b2 11 0d 13 18 01 de d1 11 16 20 18 01 de 29     ........... ...)
     26f:	12 14 22 18 03 de 7e 12 16 13 18 01 ed b3 12 12     .."...~.........
     27f:	13 18 03 ed de 12 12 03 18 03 de e5 12 12 22 18     ..............".
     28f:	03 de 32 13 12 13 18 03 de 5d 13 12 22 18 03 de     ..2......].."...
     29f:	aa 13 12 22 18 03 de f7 13 12 22 18 03 de 44 14     ..."......"...D.
     2af:	12 20 18 03 e0 8c 14 16 1e 18 01 e0 df 14 12 22     . ............."
     2bf:	18 03 de 2c 15 10 1e 18 04 e0 68 15 10 1e 18 04     ...,......h.....
     2cf:	e0 a4 15 16 1e 18 01 e0 f7 15 12 22 18 03 de 44     ..........."...D
     2df:	16 16 22 18 01 de a2 16 16 22 18 01 de 00 17 12     .."......"......
     2ef:	22 18 03 de 4d 17 12 22 18 03 de 9a 17 12 22 18     "...M.."......".
     2ff:	03 de e7 17 16 1e 18 01 e0                          .........

00000308 <Font_24_Segment_16_FullBitmaps>:
     308:	db ff ff ff ff 80 df ff ff ff fd 80 7f 3f bf cf     .............?..
     318:	ff f3 fc 1f cf e0 ff 3f c7 ff ff b8 0c 07 e0 38     .......?.......8
     328:	1f 80 e0 7e 03 81 f8 0e 07 e0 38 1f 80 e0 7e 03     ...~......8...~.
     338:	81 f8 0e 07 e0 38 1f 80 e0 7e 03 01 fb ed f7 3f     .....8...~.....?
     348:	cf f0 ff 3f cf fb 7f f8 0c 07 e0 38 1f 80 e0 7e     ...?.......8...~
     358:	03 81 f8 0e 07 e0 38 1f 80 e0 7e 03 81 f8 0e 07     ......8...~.....
     368:	e0 38 1f 80 e0 7e 03 01 df ff fe 3f cf f0 7f 3f     .8...~.....?...?
     378:	80 1f cf e0 ff 3f c7 ff ff 38 0c 00 e0 38 03 80     .....?...8...8..
     388:	e0 0e 03 80 38 0e 00 e0 38 03 80 e0 0e 03 80 38     ....8...8......8
     398:	0e 00 e0 38 03 80 e0 0e 03 00 3b ed f0 3f cf f0     ...8......;..?..
     3a8:	ff 3f c1 fb 7f c0 0c 07 00 38 1c 00 e0 70 03 81     .?.......8...p..
     3b8:	c0 0e 07 00 38 1c 00 e0 70 03 81 c0 0e 07 00 38     ....8...p......8
     3c8:	1c 00 e0 70 03 01 cf ff fe 3f cf f0 7f 3f 80 1f     ...p.....?...?..
     3d8:	c0 00 ff 00 07 ff 00 38 0c 00 e0 38 63 80 e3 8e     .......8...8c...
     3e8:	03 8e 38 0e 70 e0 39 c3 80 ee 0e 03 38 38 0d c0     ..8.p.9.....88..
     3f8:	e0 3f 03 80 f8 0e 03 c0 3b ec 70 3f cf f0 ff 3f     .?......;.p?...?
     408:	c1 fb 7f c0 3c 07 01 f8 1c 07 e0 70 3b 81 c1 ce     ....<......p;...
     418:	07 07 38 1c 38 e0 70 e3 81 c7 0e 07 1c 38 1c 60     ..8.8.p......8.`
     428:	e0 70 03 01 c0 0f fe 00 0f f0 00 3f 80 1f c0 03     .p.........?....
     438:	fc 00 7f f0 0e 03 00 e0 38 0e 03 80 e0 38 0e 03     ........8....8..
     448:	80 e0 38 0e 03 80 e0 38 0e 03 80 e0 38 0e 03 80     ..8....8....8...
     458:	e0 38 0e fb 00 3f c0 03 fc 00 ff 80 0e 00 40 e0     .8...?........@.
     468:	06 0e 00 70 e0 07 0e 00 38 e0 03 8e 00 1c e0 01     ...p....8.......
     478:	ce 00 0e e0 00 ee 00 06 e0 00 07 fc ff 3f cf f1     .............?..
     488:	fc fe 0c 71 ce 39 c7 38 e3 0c 00 00 7f 00 3f c0     ...q.9.8......?.
     498:	1f e0 00 00 c0 00 60 00 70 00 38 00 38 00 1c 00     ......`.p.8.8...
     4a8:	1c 00 0e 00 0e 00 07 00 03 00 00 00 00 00 00 00     ................
     4b8:	00 00 00 18 00 0c 00 07 00 01 c0 00 e0 00 38 00     ..............8.
     4c8:	1c 00 07 00 03 80 00 c0 00 60 00 10 00 00 ff 00     .........`......
     4d8:	7f 80 3f 80 7f 00 7f c0 3f c0 00 00 00 01 80 00     ..?.....?.......
     4e8:	c0 00 70 00 38 00 0e 00 07 00 01 c0 00 f0 00 38     ..p.8..........8
     4f8:	00 0c 00 06 00 00 00 00 00 00 00 00 00 00 30 00     ..............0.
     508:	18 00 1c 00 1e 00 0e 00 0e 00 07 00 07 00 03 80     ................
     518:	01 80 00 c0 00 01 fe 00 ff 80 3f 80 00 00 c0 00     ..........?.....
     528:	30 06 0e 19 c3 8e 70 e3 8e 39 c3 8e 70 73 b8 1c     0.....p..9..ps..
     538:	ce 03 b7 00 7f c0 1f e0 03 f0 0e 31 cf f3 ff fc     ...........1....
     548:	ff 7e df 80 fc 00 7f 80 1f f0 0e dc 07 33 81 ce     .~...........3..
     558:	e0 e3 9c 38 e7 1c 38 e7 0e 39 83 86 00 c0 00 30     ...8..8..9.....0
     568:	00 00 c0 00 30 00 0e 00 03 80 00 e0 00 38 00 0e     ....0........8..
     578:	00 03 80 00 e0 00 38 00 0e 00 03 80 00 c0 0f b7     ......8.........
     588:	cf f3 ff fc ff 7e df 80 30 00 0e 00 03 80 00 e0     .....~..0.......
     598:	00 38 00 0e 00 03 80 00 e0 00 38 00 0e 00 03 80     .8........8.....
     5a8:	00 c0 00 30 00 04 30 c7 38 e7 1c e3 8c 00 3e 1f     ...0..0.8.....>.
     5b8:	3f cf ff f3 fd f8 7e 6f 60 00 03 00 07 00 07 00     ?.....~o`.......
     5c8:	0e 00 0e 00 1c 00 1c 00 38 00 38 00 30 00 30 00     ........8.8.0.0.
     5d8:	00 00 00 00 00 00 00 04 00 0c 00 0c 00 1c 00 38     ...............8
     5e8:	00 38 00 70 00 70 00 e0 00 e0 00 c0 00 1f cf e0     .8.p.p..........
     5f8:	ff 3f c7 fc ff b8 00 07 e0 00 7f 80 03 fe 00 0f     .?..............
     608:	f8 00 77 e0 01 df 80 0e 7e 00 39 f8 01 c7 e0 07     ..w.....~.9.....
     618:	1f 80 18 7e 00 61 f8 00 07 00 00 00 00 00 0e 00     ...~.a..........
     628:	01 f8 20 07 e1 80 1f 86 00 7e 38 01 f9 c0 07 e7     .. ......~8.....
     638:	00 1f b8 00 7e e0 01 ff 00 07 fc 00 1f e0 00 7e     ....~..........~
     648:	00 01 df f3 fe 3f cf f0 7f 3f 80 7f 00 3f c0 0f     .....?...?...?..
     658:	fc 00 03 00 00 e0 00 38 00 0e 00 03 80 00 e0 00     .......8........
     668:	38 00 0e 00 03 80 00 e0 00 38 00 0e 00 03 00 00     8........8......
     678:	00 00 00 00 0c 00 03 80 00 e0 00 38 00 0e 00 03     ...........8....
     688:	80 00 e0 00 38 00 0e 00 03 80 00 e0 00 38 00 0c     ....8........8..
     698:	03 ff ff ff 3f df cf e0 1f cf e0 ff 3f c3 fc ff     ....?.......?...
     6a8:	80 00 07 00 00 1c 00 00 70 00 01 c0 00 07 00 00     ........p.......
     6b8:	1c 00 00 70 00 01 c0 00 07 00 00 1c 00 00 70 00     ...p..........p.
     6c8:	01 c3 e1 f7 3f cf f0 ff 3f cf f8 7e 38 00 00 e0     ....?...?..~8...
     6d8:	00 03 80 00 0e 00 00 38 00 00 e0 00 03 80 00 0e     .......8........
     6e8:	00 00 38 00 00 e0 00 03 80 00 0e 00 00 1f f3 fc     ..8.............
     6f8:	3f cf f0 7f 3f 80 7f 3f 8f f3 fc ff 3f e0 00 07     ?...?..?....?...
     708:	00 00 70 00 07 00 00 70 00 07 00 00 70 00 07 00     ..p....p....p...
     718:	00 70 00 07 00 00 70 00 07 00 00 73 e1 f7 ff 3f     .p....p....s...?
     728:	cf f3 fc 7e 1f f0 00 07 00 00 70 00 07 00 00 70     ...~......p....p
     738:	00 07 00 00 70 00 07 00 00 70 00 07 00 00 70 00     ....p....p....p.
     748:	07 00 00 7f f3 fe ff 3f c7 f3 f8 40 00 0b 80 00     .......?...@....
     758:	7e 00 01 f8 00 07 e0 00 1f 80 00 7e 00 01 f8 00     ~..........~....
     768:	07 e0 00 1f 80 00 7e 00 01 f8 00 07 e0 00 1f be     ......~.........
     778:	1f 73 fc ff 0f f3 fc 1f 87 fc 00 00 70 00 01 c0     .s..........p...
     788:	00 07 00 00 1c 00 00 70 00 01 c0 00 07 00 00 1c     .......p........
     798:	00 00 70 00 01 c0 00 07 00 00 1c 00 00 20 1f cf     ..p.......... ..
     7a8:	e0 ff 3f c7 fc ff 38 00 00 e0 00 03 80 00 0e 00     ..?...8.........
     7b8:	00 38 00 00 e0 00 03 80 00 0e 00 00 38 00 00 e0     .8..........8...
     7c8:	00 03 80 00 0e 00 00 3b e1 f0 3f cf f0 ff 3f c1     .......;..?...?.
     7d8:	f8 7f c0 00 07 00 00 1c 00 00 70 00 01 c0 00 07     ..........p.....
     7e8:	00 00 1c 00 00 70 00 01 c0 00 07 00 00 1c 00 00     .....p..........
     7f8:	70 00 01 cf f3 fe 3f cf f0 7f 3f 80 1f cf e0 ff     p.....?...?.....
     808:	3f c7 fc ff 38 00 00 e0 00 03 80 00 0e 00 00 38     ?...8..........8
     818:	00 00 e0 00 03 80 00 0e 00 00 38 00 00 e0 00 03     ..........8.....
     828:	80 00 0e 00 00 3b e1 f0 3f cf f0 ff 3f cf f8 7f     .....;..?...?...
     838:	f8 00 07 e0 00 1f 80 00 7e 00 01 f8 00 07 e0 00     ........~.......
     848:	1f 80 00 7e 00 01 f8 00 07 e0 00 1f 80 00 7e 00     ...~..........~.
     858:	01 df f3 fe 3f cf f0 7f 3f 80 7f 3f 8f f3 fc ff     ....?...?..?....
     868:	3f e0 00 07 00 00 70 00 07 00 00 70 00 07 00 00     ?.....p....p....
     878:	70 00 07 00 00 70 00 07 00 00 70 00 07 00 00 70     p....p....p....p
     888:	00 07 00 00 00 00 00 00 00 70 00 07 00 00 70 00     .........p....p.
     898:	07 00 00 70 00 07 00 00 70 00 07 00 00 70 00 07     ...p....p....p..
     8a8:	00 00 70 00 07 00 00 70 00 02 1f cf e0 ff 3f c7     ..p....p......?.
     8b8:	fc ff b8 00 07 e0 00 1f 80 00 7e 00 01 f8 00 07     ..........~.....
     8c8:	e0 00 1f 80 00 7e 00 01 f8 00 07 e0 00 1f 80 00     .....~..........
     8d8:	7e 00 01 fb e1 f7 3f cf f0 ff 3f cf f8 7f f8 00     ~.....?...?.....
     8e8:	07 e0 00 1f 80 00 7e 00 01 f8 00 07 e0 00 1f 80     ......~.........
     8f8:	00 7e 00 01 f8 00 07 e0 00 1f 80 00 7e 00 01 df     .~..........~...
     908:	f3 fe 3f cf f0 7f 3f 80 1f cf e0 ff 3f c7 fc ff     ..?...?.....?...
     918:	b8 00 07 e0 00 1f 80 00 7e 00 01 f8 00 07 e0 00     ........~.......
     928:	1f 80 00 7e 00 01 f8 00 07 e0 00 1f 80 00 7e 00     ...~..........~.
     938:	01 fb e1 f7 3f cf f0 ff 3f c1 f8 7f c0 00 07 00     ....?...?.......
     948:	00 1c 00 00 70 00 01 c0 00 07 00 00 1c 00 00 70     ....p..........p
     958:	00 01 c0 00 07 00 00 1c 00 00 70 00 01 cf f3 fe     ..........p.....
     968:	3f cf f0 7f 3f 80 6f 60 00 00 00 00 00 06 f7 01     ?...?.o`........
     978:	80 60 1c 07 01 c0 70 1c 07 01 c0 70 1c 07 01 c0     .`....p....p....
     988:	60 00 00 00 01 00 c0 30 1c 0e 03 81 c0 70 38 0e     `......0.....p8.
     998:	03 00 0c 31 c7 39 c7 38 e3 0c 00 00 00 30 c3 8e     ...1.9.8.....0..
     9a8:	1c 70 e3 c7 0c 30 ff 3f ff cf f7 f3 f8 00 00 00     .p...0.?........
	...
     9cc:	00 00 00 01 fc fe ff 3f ff cf f0 c3 0e 3c 70 e3     .......?.....<p.
     9dc:	87 1c 30 c0 00 00 03 0c 71 ce 39 c7 38 c3 00 7f     ..0.....q.9.8...
     9ec:	3f 8f f3 fc ff 3f e0 00 07 00 00 70 00 07 00 00     ?....?.....p....
     9fc:	70 00 07 00 00 70 00 07 00 00 70 00 07 00 00 70     p....p....p....p
     a0c:	00 07 00 00 70 01 f7 00 3f c0 03 fc 00 df 80 0c     ....p...?.......
     a1c:	00 00 e0 00 0e 00 00 e0 00 0e 00 00 e0 00 0e 00     ................
     a2c:	00 e0 00 0e 00 00 e0 00 0e 00 00 c0 00 0c 00 1f     ................
     a3c:	cf e0 ff 3f c7 ff ff b8 0c 07 e0 38 1f 80 e0 7e     ...?.......8...~
     a4c:	03 81 f8 0e 07 e0 38 1f 80 e0 7e 03 81 f8 0e 07     ......8...~.....
     a5c:	e0 38 1f 80 e0 7e 03 01 f8 0d f7 00 0f f0 00 3f     .8...~.........?
     a6c:	ce 00 7e 38 00 00 e0 00 03 80 00 0e 00 00 38 00     ..~8..........8.
     a7c:	00 e0 00 03 80 00 0e 00 00 38 00 00 e0 00 03 80     .........8......
     a8c:	00 0e 00 00 1f f3 fc 3f cf f0 7f 3f 80 1f cf e0     .......?...?....
     a9c:	ff 3f c7 fc ff b8 00 07 e0 00 1f 80 00 7e 00 01     .?...........~..
     aac:	f8 00 07 e0 00 1f 80 00 7e 00 01 f8 00 07 e0 00     ........~.......
     abc:	1f 80 00 7e 00 01 fb e1 f7 3f cf f0 ff 3f cf f8     ...~.....?...?..
     acc:	7f f8 00 07 e0 00 1f 80 00 7e 00 01 f8 00 07 e0     .........~......
     adc:	00 1f 80 00 7e 00 01 f8 00 07 e0 00 1f 80 00 7e     ....~..........~
     aec:	00 01 d0 00 02 7f 3f 8f f3 fc ff ff e0 0c 07 00     ......?.........
     afc:	e0 70 0e 07 00 e0 70 0e 07 00 e0 70 0e 07 00 e0     .p....p....p....
     b0c:	70 0e 07 00 e0 70 0e 07 00 c0 73 ed f7 ff 3f cf     p....p....s...?.
     b1c:	f3 fc 7e df f0 0c 07 00 e0 70 0e 07 00 e0 70 0e     ..~......p....p.
     b2c:	07 00 e0 70 0e 07 00 e0 70 0e 07 00 e0 70 0e 07     ...p....p....p..
     b3c:	00 c0 7f ff fe ff 3f c7 f3 f8 1f cf e3 fc ff 7f     ......?.........
     b4c:	cf fe 00 00 e0 00 0e 00 00 e0 00 0e 00 00 e0 00     ................
     b5c:	0e 00 00 e0 00 0e 00 00 e0 00 0e 00 00 e0 00 0e     ................
     b6c:	00 00 00 00 00 00 00 e0 00 0e 00 00 e0 00 0e 00     ................
     b7c:	00 e0 00 0e 00 00 e0 00 0e 00 00 e0 00 0e 00 00     ................
     b8c:	e0 00 0e 00 00 e0 00 07 fc ff 3f cf f1 fc fe 7f     ..........?.....
     b9c:	3f 8f f3 fc ff ff e0 0c 07 00 e0 70 0e 07 00 e0     ?..........p....
     bac:	70 0e 07 00 e0 70 0e 07 00 e0 70 0e 07 00 e0 70     p....p....p....p
     bbc:	0e 07 00 e0 70 0c 07 00 00 00 00 00 00 c0 70 0e     ....p.........p.
     bcc:	07 00 e0 70 0e 07 00 e0 70 0e 07 00 e0 70 0e 07     ...p....p....p..
     bdc:	00 e0 70 0e 07 00 e0 70 0e 07 00 c0 7f ff fe ff     ..p....p........
     bec:	3f c7 f3 f8 1f cf e3 fc ff 7f cf fe 00 00 e0 00     ?...............
     bfc:	0e 00 00 e0 00 0e 00 00 e0 00 0e 00 00 e0 00 0e     ................
     c0c:	00 00 e0 00 0e 00 00 e0 00 0e f8 7c 3f cf f3 fc     ...........|?...
     c1c:	ff ff 87 ee 00 00 e0 00 0e 00 00 e0 00 0e 00 00     ................
     c2c:	e0 00 0e 00 00 e0 00 0e 00 00 e0 00 0e 00 00 e0     ................
     c3c:	00 07 fc ff 3f cf f1 fc fe 1f cf e3 fc ff 7f cf     ....?...........
     c4c:	fe 00 00 e0 00 0e 00 00 e0 00 0e 00 00 e0 00 0e     ................
     c5c:	00 00 e0 00 0e 00 00 e0 00 0e 00 00 e0 00 0e f8     ................
     c6c:	7c 3f cf f3 fc ff ff 87 ee 00 00 e0 00 0e 00 00     |?..............
     c7c:	e0 00 0e 00 00 e0 00 0e 00 00 e0 00 0e 00 00 e0     ................
     c8c:	00 0e 00 00 e0 00 04 00 00 1f cf e0 ff 3f c7 fc     .............?..
     c9c:	ff 38 00 00 e0 00 03 80 00 0e 00 00 38 00 00 e0     .8..........8...
     cac:	00 03 80 00 0e 00 00 38 00 00 e0 00 03 80 00 0e     .......8........
     cbc:	00 00 38 01 f0 00 0f f0 00 3f ce 00 7f f8 00 07     ..8......?......
     ccc:	e0 00 1f 80 00 7e 00 01 f8 00 07 e0 00 1f 80 00     .....~..........
     cdc:	7e 00 01 f8 00 07 e0 00 1f 80 00 7e 00 01 df f3     ~..........~....
     cec:	fe 3f cf f0 7f 3f 80 40 00 0b 80 00 7e 00 01 f8     .?...?.@....~...
     cfc:	00 07 e0 00 1f 80 00 7e 00 01 f8 00 07 e0 00 1f     .......~........
     d0c:	80 00 7e 00 01 f8 00 07 e0 00 1f be 1f 73 fc ff     ..~..........s..
     d1c:	0f f3 fc ff 87 ff 80 00 7e 00 01 f8 00 07 e0 00     ........~.......
     d2c:	1f 80 00 7e 00 01 f8 00 07 e0 00 1f 80 00 7e 00     ...~..........~.
     d3c:	01 f8 00 07 e0 00 1d 00 00 20 7f 3f bf cf ff ff     ......... .?....
     d4c:	fc 03 00 00 e0 00 38 00 0e 00 03 80 00 e0 00 38     ......8........8
     d5c:	00 0e 00 03 80 00 e0 00 38 00 0e 00 03 00 00 00     ........8.......
     d6c:	00 00 00 0c 00 03 80 00 e0 00 38 00 0e 00 03 80     ..........8.....
     d7c:	00 e0 00 38 00 0e 00 03 80 00 e0 00 38 00 0c 03     ...8........8...
     d8c:	ff ff ff 3f df cf e0 00 0f e0 00 3f c0 00 ff 80     ...?.......?....
     d9c:	00 07 00 00 1c 00 00 70 00 01 c0 00 07 00 00 1c     .......p........
     dac:	00 00 70 00 01 c0 00 07 00 00 1c 00 00 70 00 01     ..p..........p..
     dbc:	c0 00 07 00 00 00 00 00 0e 00 01 f8 00 07 e0 00     ................
     dcc:	1f 80 00 7e 00 01 f8 00 07 e0 00 1f 80 00 7e 00     ...~..........~.
     ddc:	01 f8 00 07 e0 00 1f 80 00 7e 00 01 df f3 fe 3f     .........~.....?
     dec:	cf f0 7f 3f 80 40 00 1c 00 03 80 01 f0 00 7e 00     ...?.@........~.
     dfc:	0f c0 03 b8 00 77 00 1c e0 03 9c 00 e3 80 1c 70     .....w.........p
     e0c:	03 0e 00 61 df 00 0f f0 01 fe 00 ff 80 1c 00 83     ...a............
     e1c:	80 18 70 03 8e 00 71 c0 07 38 00 e7 00 0e e0 01     ..p...q..8......
     e2c:	dc 00 1f 80 03 f0 00 3e 00 00 80 00 00 40 00 0e     .......>.....@..
     e3c:	00 00 e0 00 0e 00 00 e0 00 0e 00 00 e0 00 0e 00     ................
     e4c:	00 e0 00 0e 00 00 e0 00 0e 00 00 e0 00 0e 00 00     ................
     e5c:	00 00 00 00 00 e0 00 0e 00 00 e0 00 0e 00 00 e0     ................
     e6c:	00 0e 00 00 e0 00 0e 00 00 e0 00 0e 00 00 e0 00     ................
     e7c:	0e 00 00 e0 00 07 fc ff 3f cf f1 fc fe 40 00 0b     ........?....@..
     e8c:	80 00 7f 80 07 ff 00 3f fc 00 ff b8 07 7e e0 1d     .......?.....~..
     e9c:	f9 c0 e7 e7 03 9f 8e 1c 7e 18 71 f8 61 87 e0 86     ........~.q.a...
     eac:	1f 80 00 70 00 00 00 00 00 e0 30 1f 80 e0 7e 03     ...p......0...~.
     ebc:	81 f8 0e 07 e0 38 1f 80 e0 7e 03 81 f8 0e 07 e0     .....8...~......
     ecc:	38 1f 80 e0 7e 03 81 f8 0e 07 e0 30 1d 00 c0 20     8...~......0... 
     edc:	40 00 0b 80 00 7f 80 01 ff 00 07 fc 00 1f b8 00     @...............
     eec:	7e e0 01 f9 c0 07 e7 00 1f 8e 00 7e 18 01 f8 60     ~..........~...`
     efc:	07 e0 80 1f 80 00 70 00 00 00 00 00 e0 00 1f 80     ......p.........
     f0c:	10 7e 00 61 f8 01 c7 e0 07 1f 80 0e 7e 00 39 f8     .~.a........~.9.
     f1c:	00 77 e0 01 df 80 03 fe 00 0f f8 00 1f e0 00 1d     .w..............
     f2c:	00 00 20 1f cf e0 ff 3f c7 fc ff b8 00 07 e0 00     .. ....?........
     f3c:	1f 80 00 7e 00 01 f8 00 07 e0 00 1f 80 00 7e 00     ...~..........~.
     f4c:	01 f8 00 07 e0 00 1f 80 00 7e 00 01 f8 00 07 00     .........~......
     f5c:	00 00 00 00 0e 00 01 f8 00 07 e0 00 1f 80 00 7e     ...............~
     f6c:	00 01 f8 00 07 e0 00 1f 80 00 7e 00 01 f8 00 07     ..........~.....
     f7c:	e0 00 1f 80 00 7e 00 01 df f3 fe 3f cf f0 7f 3f     .....~.....?...?
     f8c:	80 1f cf e0 ff 3f c7 fc ff b8 00 07 e0 00 1f 80     .....?..........
     f9c:	00 7e 00 01 f8 00 07 e0 00 1f 80 00 7e 00 01 f8     .~..........~...
     fac:	00 07 e0 00 1f 80 00 7e 00 01 fb e1 f7 3f cf f0     .......~.....?..
     fbc:	ff 3f cf f8 7e 38 00 00 e0 00 03 80 00 0e 00 00     .?..~8..........
     fcc:	38 00 00 e0 00 03 80 00 0e 00 00 38 00 00 e0 00     8..........8....
     fdc:	03 80 00 0e 00 00 10 00 00 1f cf e0 ff 3f c7 fc     .............?..
     fec:	ff b8 00 07 e0 00 1f 80 00 7e 00 01 f8 00 07 e0     .........~......
     ffc:	00 1f 80 00 7e 00 01 f8 00 07 e0 00 1f 80 00 7e     ....~..........~
    100c:	00 01 f8 00 07 00 00 00 00 00 0e 00 01 f8 01 07     ................
    101c:	e0 06 1f 80 1c 7e 00 71 f8 00 e7 e0 03 9f 80 07     .....~.q........
    102c:	7e 00 1d f8 00 3f e0 00 ff 80 01 fe 00 01 df f3     ~....?..........
    103c:	fe 3f cf f0 7f 3f 80 1f cf e0 ff 3f c7 fc ff b8     .?...?.....?....
    104c:	00 07 e0 00 1f 80 00 7e 00 01 f8 00 07 e0 00 1f     .......~........
    105c:	80 00 7e 00 01 f8 00 07 e0 00 1f 80 00 7e 00 01     ..~..........~..
    106c:	fb e0 07 3f c0 00 ff 00 0f f8 00 38 01 00 e0 06     ...?.......8....
    107c:	03 80 1c 0e 00 70 38 00 e0 e0 03 83 80 07 0e 00     .....p8.........
    108c:	1c 38 00 38 e0 00 e3 80 01 8e 00 00 10 00 00 1f     .8.8............
    109c:	cf e0 ff 3f c7 fc ff 38 00 00 e0 00 03 80 00 0e     ...?...8........
    10ac:	00 00 38 00 00 e0 00 03 80 00 0e 00 00 38 00 00     ..8..........8..
    10bc:	e0 00 03 80 00 0e 00 00 3b e1 f0 3f cf f0 ff 3f     ........;..?...?
    10cc:	c1 f8 7f c0 00 07 00 00 1c 00 00 70 00 01 c0 00     ...........p....
    10dc:	07 00 00 1c 00 00 70 00 01 c0 00 07 00 00 1c 00     ......p.........
    10ec:	00 70 00 01 cf f3 fe 3f cf f0 7f 3f 80 7f 3f bf     .p.....?...?..?.
    10fc:	cf ff ff fc 03 00 00 e0 00 38 00 0e 00 03 80 00     .........8......
    110c:	e0 00 38 00 0e 00 03 80 00 e0 00 38 00 0e 00 03     ..8........8....
    111c:	00 00 00 00 00 00 0c 00 03 80 00 e0 00 38 00 0e     .............8..
    112c:	00 03 80 00 e0 00 38 00 0e 00 03 80 00 e0 00 38     ......8........8
    113c:	00 0c 00 03 00 40 00 0b 80 00 7e 00 01 f8 00 07     .....@....~.....
    114c:	e0 00 1f 80 00 7e 00 01 f8 00 07 e0 00 1f 80 00     .....~..........
    115c:	7e 00 01 f8 00 07 e0 00 1f 80 00 70 00 00 00 00     ~..........p....
    116c:	00 e0 00 1f 80 00 7e 00 01 f8 00 07 e0 00 1f 80     ......~.........
    117c:	00 7e 00 01 f8 00 07 e0 00 1f 80 00 7e 00 01 f8     .~..........~...
    118c:	00 07 e0 00 1d ff 3f e3 fc ff 07 f3 f8 40 00 1c     ......?......@..
    119c:	00 03 80 01 f0 00 7e 00 0f c0 03 b8 00 77 00 1c     ......~......w..
    11ac:	e0 03 9c 00 e3 80 1c 70 03 0e 00 61 c0 00 00 00     .......p...a....
    11bc:	00 00 00 e0 00 1c 10 03 86 00 70 c0 0e 38 01 ce     ..........p..8..
    11cc:	00 39 c0 07 70 00 ee 00 1f 80 03 f0 00 7c 00 0e     .9..p........|..
    11dc:	00 00 80 00 00 40 00 0b 80 00 7e 00 01 f8 00 07     .....@....~.....
    11ec:	e0 00 1f 80 00 7e 00 01 f8 00 07 e0 00 1f 80 00     .....~..........
    11fc:	7e 00 01 f8 00 07 e0 00 1f 80 00 70 00 00 00 00     ~..........p....
    120c:	00 e0 30 1f 80 e0 7e 03 81 f8 0e 07 e0 38 1f 80     ..0...~......8..
    121c:	e0 7e 03 81 f8 0e 07 e0 38 1f 80 e0 7e 03 81 f8     .~......8...~...
    122c:	0e 07 e0 30 1d ff ff e3 fc ff 07 f3 f8 c0 03 e0     ...0............
    123c:	07 e0 07 70 0e 70 0e 38 1c 38 1c 1c 38 0c 38 0c     ...p.p.8.8..8.8.
    124c:	30 04 30 00 00 00 00 00 00 00 00 04 20 0c 30 0c     0.0......... .0.
    125c:	38 1c 38 38 1c 38 1c 70 0e 70 0e e0 07 e0 07 c0     8.88.8.p.p......
    126c:	03 c0 03 e0 07 e0 07 70 0e 70 0e 38 1c 38 1c 1c     .......p.p.8.8..
    127c:	38 0c 38 0c 30 04 30 00 00 00 00 00 00 01 80 01     8.8.0.0.........
    128c:	c0 01 c0 01 c0 01 c0 01 c0 01 c0 01 c0 01 c0 01     ................
    129c:	c0 01 c0 01 c0 01 80 01 80 7f 3f bf cf ff f3 fc     ..........?.....
    12ac:	00 00 00 01 80 00 e0 00 38 00 1c 00 07 00 03 80     ........8.......
    12bc:	00 e0 00 70 00 1c 00 06 00 01 80 00 00 00 00 00     ...p............
    12cc:	00 00 00 00 08 00 06 00 01 80 00 e0 00 70 00 1c     .............p..
    12dc:	00 0e 00 03 80 01 c0 00 70 00 18 00 00 00 03 fc     ........p.......
    12ec:	ff ff 3f df cf e0 1f c7 fd ff 70 0e 01 c0 38 07     ..?.......p...8.
    12fc:	00 e0 1c 03 80 70 0e 01 c0 38 07 00 00 00 03 80     .....p...8......
    130c:	70 0e 01 c0 38 07 00 e0 1c 03 80 70 0e 01 c0 38     p...8......p...8
    131c:	03 fe 3f e3 f8 c0 00 e0 00 e0 00 70 00 70 00 38     ..?........p.p.8
    132c:	00 38 00 1c 00 0c 00 0c 00 04 00 00 00 00 00 00     .8..............
    133c:	00 00 00 00 20 00 30 00 38 00 38 00 1c 00 1c 00     .... .0.8.8.....
    134c:	0e 00 0e 00 07 00 07 00 03 fe 3f cf f8 07 01 c0     ..........?.....
    135c:	70 1c 07 01 c0 70 1c 07 01 c0 70 1c 07 00 00 00     p....p....p.....
    136c:	1c 07 01 c0 70 1c 07 01 c0 70 1c 07 01 c0 70 1f     ....p....p....p.
    137c:	fe ff 3f 80 0c 30 0c 30 1c 38 1c 38 38 1c 38 1c     ..?..0.0.8.88.8.
    138c:	70 0e 70 0f e0 07 e0 03 c0 03 ff 3f ff cf f7 f3     p.p........?....
    139c:	f8 c3 8e 1c 70 e3 87 0c 30 40 7b ff ff fd e0 0f     ....p...0@{.....
    13ac:	03 fc 7f e7 fe ff ff ff ff ff ff 7f e7 fe 3f c0     ..............?.
    13bc:	f0 00 c0 00 30 00 0e 00 03 80 00 e0 00 38 00 0e     ....0........8..
    13cc:	00 03 80 00 e0 00 38 00 0e 00 03 80 00 e0 00 30     ......8........0
    13dc:	00 00 00 00 00 00 c0 00 38 00 0e 00 03 80 00 e0     ........8.......
    13ec:	00 38 00 0e 00 03 80 00 e0 00 38 00 0e 00 03 80     .8........8.....
    13fc:	00 c0 3f ff ff f3 fd fc fe 40 00 0e 00 00 e0 00     ..?......@......
    140c:	0e 00 00 e0 00 0e 00 00 e0 00 0e 00 00 e0 00 0e     ................
    141c:	00 00 e0 00 0e 00 00 e0 00 0e f8 7c 3f cf f3 fc     ...........|?...
    142c:	ff ff 87 ee 00 00 e0 00 0e 00 00 e0 00 0e 00 00     ................
    143c:	e0 00 0e 00 00 e0 00 0e 00 00 e0 00 0e 00 00 e0     ................
    144c:	00 04 00 00 00 00 20 00 07 00 00 70 00 07 00 00     ...... ....p....
    145c:	70 00 07 00 00 70 00 07 00 00 70 00 07 00 00 70     p....p....p....p
    146c:	00 07 00 00 73 e1 f7 ff 3f cf f3 fc 7e 1f f0 00     ....s...?...~...
    147c:	07 00 00 70 00 07 00 00 70 00 07 00 00 70 00 07     ...p....p....p..
    148c:	00 00 70 00 07 00 00 70 00 07 00 00 70 00 02 0f     ..p....p....p...
    149c:	81 fe 0f f1 ff 6e 03 f0 1f 80 fc 07 e0 3f 01 f8     .....n.......?..
    14ac:	0f c0 7e 03 f0 1f 80 fc 06 7f f1 fe 07 f0 1f c1     ..~.............
    14bc:	fe 1f fd c0 6e 03 f0 1f 80 fc 07 e0 3f 01 f8 0f     ....n.......?...
    14cc:	c0 7e 03 f0 1f 80 fd f6 3f c1 fe 07 e0 1f cf e0     .~......?.......
    14dc:	ff 3f c7 fc ff b8 00 07 e0 00 1f 80 00 7e 00 01     .?...........~..
    14ec:	f8 00 07 e0 00 1f 80 00 7e 00 01 f8 00 07 e0 00     ........~.......
    14fc:	1f 80 00 7e 00 01 f8 00 07 00 00 00 00 00 0e 00     ...~............
    150c:	01 f8 00 07 e0 00 1f 80 00 7e 00 01 f8 00 07 e0     .........~......
    151c:	00 1f 80 00 7e 00 01 f8 00 07 e0 00 1f 80 00 7e     ....~..........~
    152c:	00 01 d0 00 02 7f 3f 8f f3 fc ff 3f e0 00 07 00     ......?....?....
    153c:	00 70 00 07 00 00 70 00 07 00 00 70 00 07 00 00     .p....p....p....
    154c:	70 00 07 00 00 70 00 07 00 00 70 00 07 00 00 00     p....p....p.....
    155c:	00 00 00 00 70 00 07 00 00 70 00 07 00 00 70 00     ....p....p....p.
    156c:	07 00 00 70 00 07 00 00 70 00 07 00 00 70 00 07     ...p....p....p..
    157c:	00 00 7f f3 fe ff 3f c7 f3 f8 0f 87 c0 ff 3f c3     ......?.......?.
    158c:	fc ff 3f ed ff e0 30 1f 80 e0 7e 03 81 f8 0e 07     ..?...0...~.....
    159c:	e0 38 1f 80 e0 7e 03 81 f8 0e 07 e0 38 1f 80 e0     .8...~......8...
    15ac:	7e 03 81 f8 0c 07 7f ff f8 ff 3f c1 fc fe 00 3e     ~.........?....>
    15bc:	1f 3f cf ff f3 fd f8 7e 00 00 00 00 00 00 00 00     .?.....~........
	...
    15dc:	00 00 00 ff 3f ff cf f7 f3 f8 7f 3f bf cf ff f3     ....?......?....
    15ec:	fc 7f 3f bf cf ff f3 fc 00 00 00 00 00 00 00 00     ..?.............
	...
    1630:	00 00 03 fc ff ff 3f df cf e0 7f 3f bf cf ff f3     ......?....?....
    1640:	fc 00 00 00 00 00 00 00 00 00 00 00 00 00 00 00     ................
	...
    165c:	f8 7c ff 3f ff cf f7 e1 f8 7f 3f bf cf ff f3 fc     .|.?......?.....
	...
    1684:	00 00 00 f8 7c ff 3f ff cf f7 e1 f8 00 00 00 00     ....|.?.........
	...
    16a8:	00 00 03 fc ff ff 3f df cf e0 7f 3f bf cf ff f3     ......?....?....
    16b8:	fc 00 00 60 00 1c 00 07 00 00 e0 00 38 00 07 00     ...`........8...
    16c8:	01 c0 00 38 00 06 00 01 80 00 20 00 00 00 00 00     ...8...... .....
    16d8:	00 00 00 00 00 08 00 06 00 01 80 00 e0 00 70 00     ..............p.
    16e8:	1c 00 0e 00 03 80 01 c0 00 70 00 18 00 00 00 03     .........p......
    16f8:	fc ff ff 3f df cf e0 00 3f 80 0f f0 0f fc 03 00     ...?....?.......
    1708:	00 e0 00 38 00 0e 00 03 80 00 e0 00 38 00 0e 00     ...8........8...
    1718:	03 80 00 e0 00 38 00 0e 00 03 00 00 00 00 00 00     .....8..........
    1728:	0c 00 03 80 00 e0 00 38 00 0e 00 03 80 00 e0 00     .......8........
    1738:	38 00 0e 00 03 80 00 e0 00 38 00 0c 03 ff 00 ff     8........8......
    1748:	00 1f c0 00 00 c0 00 30 00 0e 00 03 80 00 e0 00     .......0........
    1758:	38 00 0e 00 03 80 00 e0 00 38 00 0e 00 03 80 00     8........8......
    1768:	c0 0f b7 cf f3 ff fc ff 7e df 80 30 00 0e 00 03     ........~..0....
    1778:	80 00 e0 00 38 00 0e 00 03 80 00 e0 00 38 00 0e     ....8........8..
    1788:	00 03 80 00 c0 3f ff ff f3 fd fc fe 40 00 0b 80     .....?......@...
    1798:	00 7e 00 01 f8 00 07 e0 00 1f 80 00 7e 00 01 f8     .~..........~...
    17a8:	00 07 e0 00 1f 80 00 7e 00 01 f8 00 07 e0 00 1f     .......~........
    17b8:	be 1f 73 fc ff 0f f3 fc ff 87 e3 80 00 0e 00 00     ..s.............
    17c8:	38 00 00 e0 00 03 80 00 0e 00 00 38 00 00 e0 00     8..........8....
    17d8:	03 80 00 0e 00 00 38 00 00 e0 00 01 00 00 00 7f     ......8.........
    17e8:	3f bf cf ff f3 fc 00 00 60 01 9c 00 e7 00 38 e0     ?.......`.....8.
    17f8:	1c 38 07 07 03 81 c0 e0 38 70 06 1c 01 86 00 21     .8......8p.....!
    1808:	80 00 00 00 00 00 00 00 00 00 08 40 06 18 01 87     ...........@....
    1818:	00 e1 c0 70 38 1c 0e 0e 01 c3 80 71 c0 0e 70 03     ...p8......q..p.
    1828:	98 00 60 00 03 fc ff ff 3f df cf e0 01 80 01 80     ..`.....?.......
    1838:	01 c0 01 c0 01 c0 01 c0 01 c0 01 c0 01 c0 01 c0     ................
    1848:	01 c0 01 c0 01 c0 01 80 00 00 00 00 01 80 07 e0     ................
    1858:	0f f0 0f f8 1d b8 39 9c 39 dc 71 ce 71 ce e1 c7     ......9.9.q.q...
    1868:	e1 c7 c1 c3 01 80 01 80 01 80 01 80 c1 c3 e1 c7     ................
    1878:	e1 c7 71 ce 71 ce 39 dc 39 9c 1d b8 0f f8 0f f0     ..q.q.9.9.......
    1888:	07 f0 01 80 00 00 00 00 01 80 01 c0 01 c0 01 c0     ................
    1898:	01 c0 01 c0 01 c0 01 c0 01 c0 01 c0 01 c0 01 c0     ................
    18a8:	01 80 01 80 40 30 0b 80 c0 7e 03 81 f8 0e 07 e0     ....@0...~......
    18b8:	38 1f 80 e0 7e 03 81 f8 0e 07 e0 38 1f 80 e0 7e     8...~......8...~
    18c8:	03 81 f8 0e 07 e0 30 1f be df 73 fc ff 0f f3 fc     ......0...s.....
    18d8:	ff b7 ff 80 c0 7e 03 81 f8 0e 07 e0 38 1f 80 e0     .....~......8...
    18e8:	7e 03 81 f8 0e 07 e0 38 1f 80 e0 7e 03 81 f8 0e     ~......8...~....
    18f8:	07 e0 30 1d 00 c0 20 7f 3f bf cf ff ff fc 03 00     ..0... .?.......
    1908:	00 e0 00 38 00 0e 00 03 80 00 e0 00 38 00 0e 00     ...8........8...
    1918:	03 80 00 e0 00 38 00 0c 00 fb 7c ff 3f ff cf f7     .....8....|.?...
    1928:	ed f8 03 00 00 e0 00 38 00 0e 00 03 80 00 e0 00     .......8........
    1938:	38 00 0e 00 03 80 00 e0 00 38 00 0c 03 ff ff ff     8........8......
    1948:	3f df cf e0 1f cf e0 ff 3f c7 fc ff b8 00 07 f8     ?.......?.......
    1958:	00 7f f0 03 ff c0 0f fb 80 77 ee 01 df 9c 0e 7e     .........w.....~
    1968:	70 39 f8 e1 c7 e1 87 1f 86 18 7e 08 61 f8 00 07     p9........~.a...
    1978:	00 00 00 00 00 0e 00 01 f8 21 07 e1 86 1f 86 1c     .........!......
    1988:	7e 38 71 f9 c0 e7 e7 03 9f b8 07 7e e0 1d ff 00     ~8q........~....
    1998:	3f fc 00 ff e0 01 fe 00 01 df f3 fe 3f cf f0 7f     ?...........?...
    19a8:	3f 80 1f cf e0 ff 3f c7 ff ff b8 0c 07 f8 38 7f     ?.....?.......8.
    19b8:	f0 e3 ff c3 8f fb 8e 77 ee 39 df 9c ee 7e 73 39     .......w.9...~s9
    19c8:	f8 ed c7 e1 ff 1f 87 f8 7e 0f c1 fb 8c 77 3f cf     ........~....w?.
    19d8:	f0 ff 3f cf fb 7f f8 3f 07 e1 fe 1f 87 fc 7e 3b     ..?....?......~;
    19e8:	71 f9 cc e7 e7 3b 9f b8 e7 7e e3 9d ff 0e 3f fc     q....;...~....?.
    19f8:	38 ff e0 e1 fe 03 01 df ff fe 3f cf f0 7f 3f 80     8.........?...?.
    1a08:	00 3f 80 0f f0 0f fc 03 00 00 e0 00 38 00 0e 00     .?..........8...
    1a18:	03 80 00 e0 00 38 00 0e 00 03 80 00 e0 00 38 00     .....8........8.
    1a28:	0e 00 fb 00 ff 00 3f c0 07 ec 00 03 80 00 e0 00     ......?.........
    1a38:	38 00 0e 00 03 80 00 e0 00 38 00 0e 00 03 80 00     8........8......
    1a48:	e0 00 38 00 0c 00 03 ff 00 3f c0 0f e0 7f 00 3f     ..8......?.....?
    1a58:	c0 0f fc 00 03 00 00 e0 00 38 00 0e 00 03 80 00     .........8......
    1a68:	e0 00 38 00 0e 00 03 80 00 e0 00 38 00 0e 00 03     ..8........8....
    1a78:	00 00 00 00 00 00 0c 00 03 80 00 e0 00 38 00 0e     .............8..
    1a88:	00 03 80 00 e0 00 38 00 0e 00 03 80 00 e0 00 38     ......8........8
    1a98:	00 0c 00 03 ff 00 3f c0 0f e0 7f 00 3f c0 0f fc     ......?.....?...
    1aa8:	00 03 00 00 e0 00 38 00 0e 00 03 80 00 e0 00 38     ......8........8
    1ab8:	00 0e 00 03 80 00 e0 00 38 00 0c 00 03 7c 00 3f     ........8....|.?
    1ac8:	c0 0f f0 0d f8 03 00 00 e0 00 38 00 0e 00 03 80     ..........8.....
    1ad8:	00 e0 00 38 00 0e 00 03 80 00 e0 00 38 00 0c 03     ...8........8...
    1ae8:	ff 00 ff 00 1f c0 00 00 00 08 00 00 70 00 01 c0     ............p...
    1af8:	00 07 00 00 1c 00 00 70 00 01 c0 00 07 00 00 1c     .......p........
    1b08:	00 00 70 00 01 c0 00 07 00 00 1c 3e 1f 73 fc ff     ..p........>.s..
    1b18:	0f f3 fc ff 87 e3 80 00 0e 00 00 38 00 00 e0 00     ...........8....
    1b28:	03 80 00 0e 00 00 38 00 00 e0 00 03 80 00 0e 00     ......8.........
    1b38:	00 38 00 00 e0 00 01 00 00 00                       .8........

00001b42 <__ctors_end>:
    1b42:	11 24       	eor	r1, r1
    1b44:	1f be       	out	0x3f, r1	; 63
    1b46:	cf ef       	ldi	r28, 0xFF	; 255
    1b48:	d8 e0       	ldi	r29, 0x08	; 8
    1b4a:	de bf       	out	0x3e, r29	; 62
    1b4c:	cd bf       	out	0x3d, r28	; 61

00001b4e <__do_copy_data>:
    1b4e:	11 e0       	ldi	r17, 0x01	; 1
    1b50:	a0 e0       	ldi	r26, 0x00	; 0
    1b52:	b1 e0       	ldi	r27, 0x01	; 1
    1b54:	e8 eb       	ldi	r30, 0xB8	; 184
    1b56:	fb e2       	ldi	r31, 0x2B	; 43
    1b58:	02 c0       	rjmp	.+4      	; 0x1b5e <__do_copy_data+0x10>
    1b5a:	05 90       	lpm	r0, Z+
    1b5c:	0d 92       	st	X+, r0
    1b5e:	a6 30       	cpi	r26, 0x06	; 6
    1b60:	b1 07       	cpc	r27, r17
    1b62:	d9 f7       	brne	.-10     	; 0x1b5a <__do_copy_data+0xc>

00001b64 <__do_clear_bss>:
    1b64:	25 e0       	ldi	r18, 0x05	; 5
    1b66:	a6 e0       	ldi	r26, 0x06	; 6
    1b68:	b1 e0       	ldi	r27, 0x01	; 1
    1b6a:	01 c0       	rjmp	.+2      	; 0x1b6e <.do_clear_bss_start>

00001b6c <.do_clear_bss_loop>:
    1b6c:	1d 92       	st	X+, r1

00001b6e <.do_clear_bss_start>:
    1b6e:	ac 31       	cpi	r26, 0x1C	; 28
    1b70:	b2 07       	cpc	r27, r18
    1b72:	e1 f7       	brne	.-8      	; 0x1b6c <.do_clear_bss_loop>
    1b74:	0e 94 c0 0d 	call	0x1b80	; 0x1b80 <main>
    1b78:	0c 94 da 15 	jmp	0x2bb4	; 0x2bb4 <_exit>

00001b7c <__bad_interrupt>:
    1b7c:	0c 94 00 00 	jmp	0	; 0x0 <__vectors>

00001b80 <main>:

unsigned int out = 0;
float t = 0;

int main(void) {
	twi_init();
    1b80:	0e 94 ba 14 	call	0x2974	; 0x2974 <twi_init>
	SSD1306_Init();
    1b84:	0e 94 02 0f 	call	0x1e04	; 0x1e04 <SSD1306_Init>
	LCD_Fill(1);
    1b88:	81 e0       	ldi	r24, 0x01	; 1
    1b8a:	0e 94 f4 0e 	call	0x1de8	; 0x1de8 <LCD_Fill>
	#else
		//round up by default
		__ticks_dc = (uint32_t)(ceil(fabs(__tmp)));
	#endif

	__builtin_avr_delay_cycles(__ticks_dc);
    1b8e:	2f ef       	ldi	r18, 0xFF	; 255
    1b90:	83 ed       	ldi	r24, 0xD3	; 211
    1b92:	90 e3       	ldi	r25, 0x30	; 48
    1b94:	21 50       	subi	r18, 0x01	; 1
    1b96:	80 40       	sbci	r24, 0x00	; 0
    1b98:	90 40       	sbci	r25, 0x00	; 0
    1b9a:	e1 f7       	brne	.-8      	; 0x1b94 <main+0x14>
    1b9c:	00 c0       	rjmp	.+0      	; 0x1b9e <main+0x1e>
    1b9e:	00 00       	nop
	_delay_ms(1000);
	LCD_Rect(1, 1, 125, 61, 1);
    1ba0:	01 e0       	ldi	r16, 0x01	; 1
    1ba2:	2d e3       	ldi	r18, 0x3D	; 61
    1ba4:	30 e0       	ldi	r19, 0x00	; 0
    1ba6:	4d e7       	ldi	r20, 0x7D	; 125
    1ba8:	50 e0       	ldi	r21, 0x00	; 0
    1baa:	61 e0       	ldi	r22, 0x01	; 1
    1bac:	70 e0       	ldi	r23, 0x00	; 0
    1bae:	81 e0       	ldi	r24, 0x01	; 1
    1bb0:	90 e0       	ldi	r25, 0x00	; 0
    1bb2:	0e 94 a2 11 	call	0x2344	; 0x2344 <LCD_Rect>
	//LCD_Rect_Fill(1, 1, 125, 29, 0);
	
	LCD_Rect_Fill(1, 1, 125, 61, 0);
    1bb6:	00 e0       	ldi	r16, 0x00	; 0
    1bb8:	2d e3       	ldi	r18, 0x3D	; 61
    1bba:	30 e0       	ldi	r19, 0x00	; 0
    1bbc:	4d e7       	ldi	r20, 0x7D	; 125
    1bbe:	50 e0       	ldi	r21, 0x00	; 0
    1bc0:	61 e0       	ldi	r22, 0x01	; 1
    1bc2:	70 e0       	ldi	r23, 0x00	; 0
    1bc4:	81 e0       	ldi	r24, 0x01	; 1
    1bc6:	90 e0       	ldi	r25, 0x00	; 0
    1bc8:	0e 94 f4 11 	call	0x23e8	; 0x23e8 <LCD_Rect_Fill>
	
	//LCD_Font(5, 25, "OLED Test", _8_Retro, 1, 1);
	//LCD_Font(5, 45, "DISPLAY", _16_Default, 1, 1);
	//LCD_Font(10, 60, "0123 Font", _9_Mono, 1, 1);
	
	LCD_Font(4, 60, "01:23", _24_Segment_16_Full, 1, 1);
    1bcc:	ee 24       	eor	r14, r14
    1bce:	e3 94       	inc	r14
    1bd0:	01 e0       	ldi	r16, 0x01	; 1
    1bd2:	28 e6       	ldi	r18, 0x68	; 104
    1bd4:	30 e0       	ldi	r19, 0x00	; 0
    1bd6:	40 e0       	ldi	r20, 0x00	; 0
    1bd8:	51 e0       	ldi	r21, 0x01	; 1
    1bda:	6c e3       	ldi	r22, 0x3C	; 60
    1bdc:	70 e0       	ldi	r23, 0x00	; 0
    1bde:	84 e0       	ldi	r24, 0x04	; 4
    1be0:	90 e0       	ldi	r25, 0x00	; 0
    1be2:	0e 94 f4 12 	call	0x25e8	; 0x25e8 <LCD_Font>
    1be6:	2f ef       	ldi	r18, 0xFF	; 255
    1be8:	83 ed       	ldi	r24, 0xD3	; 211
    1bea:	90 e3       	ldi	r25, 0x30	; 48
    1bec:	21 50       	subi	r18, 0x01	; 1
    1bee:	80 40       	sbci	r24, 0x00	; 0
    1bf0:	90 40       	sbci	r25, 0x00	; 0
    1bf2:	e1 f7       	brne	.-8      	; 0x1bec <main+0x6c>
    1bf4:	00 c0       	rjmp	.+0      	; 0x1bf6 <main+0x76>
    1bf6:	00 00       	nop
	_delay_ms(1000);
	
	LCD_UpdateScreen();
    1bf8:	0e 94 5e 0e 	call	0x1cbc	; 0x1cbc <LCD_UpdateScreen>
    1bfc:	2f ef       	ldi	r18, 0xFF	; 255
    1bfe:	89 e6       	ldi	r24, 0x69	; 105
    1c00:	98 e1       	ldi	r25, 0x18	; 24
    1c02:	21 50       	subi	r18, 0x01	; 1
    1c04:	80 40       	sbci	r24, 0x00	; 0
    1c06:	90 40       	sbci	r25, 0x00	; 0
    1c08:	e1 f7       	brne	.-8      	; 0x1c02 <main+0x82>
    1c0a:	00 c0       	rjmp	.+0      	; 0x1c0c <main+0x8c>
    1c0c:	00 00       	nop

	while (1)
	{
		_delay_ms(500);

		LCD_Battery(1, 110, out);
    1c0e:	40 91 0a 01 	lds	r20, 0x010A	; 0x80010a <out>
    1c12:	6e e6       	ldi	r22, 0x6E	; 110
    1c14:	70 e0       	ldi	r23, 0x00	; 0
    1c16:	81 e0       	ldi	r24, 0x01	; 1
    1c18:	90 e0       	ldi	r25, 0x00	; 0
    1c1a:	0e 94 83 13 	call	0x2706	; 0x2706 <LCD_Battery>

		out++; t = t + 0.1;
    1c1e:	c0 91 0a 01 	lds	r28, 0x010A	; 0x80010a <out>
    1c22:	d0 91 0b 01 	lds	r29, 0x010B	; 0x80010b <out+0x1>
    1c26:	21 96       	adiw	r28, 0x01	; 1
    1c28:	d0 93 0b 01 	sts	0x010B, r29	; 0x80010b <out+0x1>
    1c2c:	c0 93 0a 01 	sts	0x010A, r28	; 0x80010a <out>
    1c30:	60 91 06 01 	lds	r22, 0x0106	; 0x800106 <__data_end>
    1c34:	70 91 07 01 	lds	r23, 0x0107	; 0x800107 <__data_end+0x1>
    1c38:	80 91 08 01 	lds	r24, 0x0108	; 0x800108 <__data_end+0x2>
    1c3c:	90 91 09 01 	lds	r25, 0x0109	; 0x800109 <__data_end+0x3>
    1c40:	2d ec       	ldi	r18, 0xCD	; 205
    1c42:	3c ec       	ldi	r19, 0xCC	; 204
    1c44:	4c ec       	ldi	r20, 0xCC	; 204
    1c46:	5d e3       	ldi	r21, 0x3D	; 61
    1c48:	0e 94 e4 14 	call	0x29c8	; 0x29c8 <__addsf3>
    1c4c:	60 93 06 01 	sts	0x0106, r22	; 0x800106 <__data_end>
    1c50:	70 93 07 01 	sts	0x0107, r23	; 0x800107 <__data_end+0x1>
    1c54:	80 93 08 01 	sts	0x0108, r24	; 0x800108 <__data_end+0x2>
    1c58:	90 93 09 01 	sts	0x0109, r25	; 0x800109 <__data_end+0x3>
		if (t > 9.9) { t = 0.1; }
    1c5c:	26 e6       	ldi	r18, 0x66	; 102
    1c5e:	36 e6       	ldi	r19, 0x66	; 102
    1c60:	4e e1       	ldi	r20, 0x1E	; 30
    1c62:	51 e4       	ldi	r21, 0x41	; 65
    1c64:	0e 94 a1 15 	call	0x2b42	; 0x2b42 <__gesf2>
    1c68:	18 16       	cp	r1, r24
    1c6a:	64 f4       	brge	.+24     	; 0x1c84 <main+0x104>
    1c6c:	8d ec       	ldi	r24, 0xCD	; 205
    1c6e:	9c ec       	ldi	r25, 0xCC	; 204
    1c70:	ac ec       	ldi	r26, 0xCC	; 204
    1c72:	bd e3       	ldi	r27, 0x3D	; 61
    1c74:	80 93 06 01 	sts	0x0106, r24	; 0x800106 <__data_end>
    1c78:	90 93 07 01 	sts	0x0107, r25	; 0x800107 <__data_end+0x1>
    1c7c:	a0 93 08 01 	sts	0x0108, r26	; 0x800108 <__data_end+0x2>
    1c80:	b0 93 09 01 	sts	0x0109, r27	; 0x800109 <__data_end+0x3>
		if (out > 10) { out = 0; }
    1c84:	2b 97       	sbiw	r28, 0x0b	; 11
    1c86:	08 f4       	brcc	.+2      	; 0x1c8a <main+0x10a>
    1c88:	b9 cf       	rjmp	.-142    	; 0x1bfc <main+0x7c>
    1c8a:	10 92 0b 01 	sts	0x010B, r1	; 0x80010b <out+0x1>
    1c8e:	10 92 0a 01 	sts	0x010A, r1	; 0x80010a <out>
    1c92:	b4 cf       	rjmp	.-152    	; 0x1bfc <main+0x7c>

00001c94 <SSD1306_Command>:

void LCD_Rect_Round_Fill(unsigned int x, unsigned int y, unsigned int length, unsigned int width, unsigned int r, SSD1306_COLOR_t color) {
	LCD_Rect_Fill(x + r, y, length - 2 * r, width, color);
	LCD_Circle_Fill_Helper(x + length - r - 1, y + r, r, 1, width - 2 * r - 1, color);
	LCD_Circle_Fill_Helper(x + r, y + r, r, 2, width - 2 * r - 1, color);
}
    1c94:	cf 93       	push	r28
    1c96:	df 93       	push	r29
    1c98:	d8 2f       	mov	r29, r24
    1c9a:	c6 2f       	mov	r28, r22
    1c9c:	0e 94 c2 14 	call	0x2984	; 0x2984 <twi_start>
    1ca0:	8c e3       	ldi	r24, 0x3C	; 60
    1ca2:	0e 94 d8 14 	call	0x29b0	; 0x29b0 <twi_addr_send>
    1ca6:	8d 2f       	mov	r24, r29
    1ca8:	0e 94 ce 14 	call	0x299c	; 0x299c <twi_byte_send>
    1cac:	8c 2f       	mov	r24, r28
    1cae:	0e 94 ce 14 	call	0x299c	; 0x299c <twi_byte_send>
    1cb2:	0e 94 ca 14 	call	0x2994	; 0x2994 <twi_stop>
    1cb6:	df 91       	pop	r29
    1cb8:	cf 91       	pop	r28
    1cba:	08 95       	ret

00001cbc <LCD_UpdateScreen>:
    1cbc:	7f 92       	push	r7
    1cbe:	8f 92       	push	r8
    1cc0:	9f 92       	push	r9
    1cc2:	af 92       	push	r10
    1cc4:	bf 92       	push	r11
    1cc6:	cf 92       	push	r12
    1cc8:	df 92       	push	r13
    1cca:	ef 92       	push	r14
    1ccc:	ff 92       	push	r15
    1cce:	0f 93       	push	r16
    1cd0:	1f 93       	push	r17
    1cd2:	cf 93       	push	r28
    1cd4:	df 93       	push	r29
    1cd6:	cd b7       	in	r28, 0x3d	; 61
    1cd8:	de b7       	in	r29, 0x3e	; 62
    1cda:	ad b6       	in	r10, 0x3d	; 61
    1cdc:	be b6       	in	r11, 0x3e	; 62
    1cde:	81 2c       	mov	r8, r1
    1ce0:	6c c0       	rjmp	.+216    	; 0x1dba <LCD_UpdateScreen+0xfe>
    1ce2:	0e 94 c2 14 	call	0x2984	; 0x2984 <twi_start>
    1ce6:	8c e3       	ldi	r24, 0x3C	; 60
    1ce8:	0e 94 d8 14 	call	0x29b0	; 0x29b0 <twi_addr_send>
    1cec:	80 e0       	ldi	r24, 0x00	; 0
    1cee:	0e 94 ce 14 	call	0x299c	; 0x299c <twi_byte_send>
    1cf2:	80 eb       	ldi	r24, 0xB0	; 176
    1cf4:	88 0d       	add	r24, r8
    1cf6:	0e 94 ce 14 	call	0x299c	; 0x299c <twi_byte_send>
    1cfa:	0e 94 ca 14 	call	0x2994	; 0x2994 <twi_stop>
    1cfe:	0e 94 c2 14 	call	0x2984	; 0x2984 <twi_start>
    1d02:	8c e3       	ldi	r24, 0x3C	; 60
    1d04:	0e 94 d8 14 	call	0x29b0	; 0x29b0 <twi_addr_send>
    1d08:	80 e0       	ldi	r24, 0x00	; 0
    1d0a:	0e 94 ce 14 	call	0x299c	; 0x299c <twi_byte_send>
    1d0e:	80 e0       	ldi	r24, 0x00	; 0
    1d10:	0e 94 ce 14 	call	0x299c	; 0x299c <twi_byte_send>
    1d14:	0e 94 ca 14 	call	0x2994	; 0x2994 <twi_stop>
    1d18:	0e 94 c2 14 	call	0x2984	; 0x2984 <twi_start>
    1d1c:	8c e3       	ldi	r24, 0x3C	; 60
    1d1e:	0e 94 d8 14 	call	0x29b0	; 0x29b0 <twi_addr_send>
    1d22:	80 e0       	ldi	r24, 0x00	; 0
    1d24:	0e 94 ce 14 	call	0x299c	; 0x299c <twi_byte_send>
    1d28:	80 e1       	ldi	r24, 0x10	; 16
    1d2a:	0e 94 ce 14 	call	0x299c	; 0x299c <twi_byte_send>
    1d2e:	0e 94 ca 14 	call	0x2994	; 0x2994 <twi_stop>
    1d32:	88 2d       	mov	r24, r8
    1d34:	90 e0       	ldi	r25, 0x00	; 0
    1d36:	8c 01       	movw	r16, r24
    1d38:	16 95       	lsr	r17
    1d3a:	10 2f       	mov	r17, r16
    1d3c:	00 27       	eor	r16, r16
    1d3e:	17 95       	ror	r17
    1d40:	07 95       	ror	r16
    1d42:	08 0f       	add	r16, r24
    1d44:	19 1f       	adc	r17, r25
    1d46:	0e 5e       	subi	r16, 0xEE	; 238
    1d48:	1e 4f       	sbci	r17, 0xFE	; 254
    1d4a:	cd b6       	in	r12, 0x3d	; 61
    1d4c:	de b6       	in	r13, 0x3e	; 62
    1d4e:	8d b7       	in	r24, 0x3d	; 61
    1d50:	9e b7       	in	r25, 0x3e	; 62
    1d52:	82 58       	subi	r24, 0x82	; 130
    1d54:	91 09       	sbc	r25, r1
    1d56:	0f b6       	in	r0, 0x3f	; 63
    1d58:	f8 94       	cli
    1d5a:	9e bf       	out	0x3e, r25	; 62
    1d5c:	0f be       	out	0x3f, r0	; 63
    1d5e:	8d bf       	out	0x3d, r24	; 61
    1d60:	ed b7       	in	r30, 0x3d	; 61
    1d62:	fe b7       	in	r31, 0x3e	; 62
    1d64:	31 96       	adiw	r30, 0x01	; 1
    1d66:	7f 01       	movw	r14, r30
    1d68:	80 e4       	ldi	r24, 0x40	; 64
    1d6a:	ed b7       	in	r30, 0x3d	; 61
    1d6c:	fe b7       	in	r31, 0x3e	; 62
    1d6e:	81 83       	std	Z+1, r24	; 0x01
    1d70:	99 24       	eor	r9, r9
    1d72:	93 94       	inc	r9
    1d74:	17 c0       	rjmp	.+46     	; 0x1da4 <LCD_UpdateScreen+0xe8>
    1d76:	80 0f       	add	r24, r16
    1d78:	91 1f       	adc	r25, r17
    1d7a:	fc 01       	movw	r30, r24
    1d7c:	31 97       	sbiw	r30, 0x01	; 1
    1d7e:	70 80       	ld	r7, Z
    1d80:	f7 01       	movw	r30, r14
    1d82:	e9 0d       	add	r30, r9
    1d84:	f1 1d       	adc	r31, r1
    1d86:	70 82       	st	Z, r7
    1d88:	0e 94 c2 14 	call	0x2984	; 0x2984 <twi_start>
    1d8c:	8c e3       	ldi	r24, 0x3C	; 60
    1d8e:	0e 94 d8 14 	call	0x29b0	; 0x29b0 <twi_addr_send>
    1d92:	80 e4       	ldi	r24, 0x40	; 64
    1d94:	0e 94 ce 14 	call	0x299c	; 0x299c <twi_byte_send>
    1d98:	87 2d       	mov	r24, r7
    1d9a:	0e 94 ce 14 	call	0x299c	; 0x299c <twi_byte_send>
    1d9e:	0e 94 ca 14 	call	0x2994	; 0x2994 <twi_stop>
    1da2:	93 94       	inc	r9
    1da4:	89 2d       	mov	r24, r9
    1da6:	90 e0       	ldi	r25, 0x00	; 0
    1da8:	82 38       	cpi	r24, 0x82	; 130
    1daa:	91 05       	cpc	r25, r1
    1dac:	20 f3       	brcs	.-56     	; 0x1d76 <LCD_UpdateScreen+0xba>
    1dae:	0f b6       	in	r0, 0x3f	; 63
    1db0:	f8 94       	cli
    1db2:	de be       	out	0x3e, r13	; 62
    1db4:	0f be       	out	0x3f, r0	; 63
    1db6:	cd be       	out	0x3d, r12	; 61
    1db8:	83 94       	inc	r8
    1dba:	f7 e0       	ldi	r31, 0x07	; 7
    1dbc:	f8 15       	cp	r31, r8
    1dbe:	08 f0       	brcs	.+2      	; 0x1dc2 <LCD_UpdateScreen+0x106>
    1dc0:	90 cf       	rjmp	.-224    	; 0x1ce2 <LCD_UpdateScreen+0x26>
    1dc2:	0f b6       	in	r0, 0x3f	; 63
    1dc4:	f8 94       	cli
    1dc6:	be be       	out	0x3e, r11	; 62
    1dc8:	0f be       	out	0x3f, r0	; 63
    1dca:	ad be       	out	0x3d, r10	; 61
    1dcc:	df 91       	pop	r29
    1dce:	cf 91       	pop	r28
    1dd0:	1f 91       	pop	r17
    1dd2:	0f 91       	pop	r16
    1dd4:	ff 90       	pop	r15
    1dd6:	ef 90       	pop	r14
    1dd8:	df 90       	pop	r13
    1dda:	cf 90       	pop	r12
    1ddc:	bf 90       	pop	r11
    1dde:	af 90       	pop	r10
    1de0:	9f 90       	pop	r9
    1de2:	8f 90       	pop	r8
    1de4:	7f 90       	pop	r7
    1de6:	08 95       	ret

00001de8 <LCD_Fill>:
    1de8:	81 11       	cpse	r24, r1
    1dea:	03 c0       	rjmp	.+6      	; 0x1df2 <LCD_Fill+0xa>
    1dec:	60 e0       	ldi	r22, 0x00	; 0
    1dee:	70 e0       	ldi	r23, 0x00	; 0
    1df0:	02 c0       	rjmp	.+4      	; 0x1df6 <LCD_Fill+0xe>
    1df2:	6f ef       	ldi	r22, 0xFF	; 255
    1df4:	70 e0       	ldi	r23, 0x00	; 0
    1df6:	48 e0       	ldi	r20, 0x08	; 8
    1df8:	54 e0       	ldi	r21, 0x04	; 4
    1dfa:	82 e1       	ldi	r24, 0x12	; 18
    1dfc:	91 e0       	ldi	r25, 0x01	; 1
    1dfe:	0e 94 d3 15 	call	0x2ba6	; 0x2ba6 <memset>
    1e02:	08 95       	ret

00001e04 <SSD1306_Init>:
    1e04:	2f ef       	ldi	r18, 0xFF	; 255
    1e06:	81 ee       	ldi	r24, 0xE1	; 225
    1e08:	94 e0       	ldi	r25, 0x04	; 4
    1e0a:	21 50       	subi	r18, 0x01	; 1
    1e0c:	80 40       	sbci	r24, 0x00	; 0
    1e0e:	90 40       	sbci	r25, 0x00	; 0
    1e10:	e1 f7       	brne	.-8      	; 0x1e0a <SSD1306_Init+0x6>
    1e12:	00 c0       	rjmp	.+0      	; 0x1e14 <SSD1306_Init+0x10>
    1e14:	00 00       	nop
    1e16:	0e 94 c2 14 	call	0x2984	; 0x2984 <twi_start>
    1e1a:	8c e3       	ldi	r24, 0x3C	; 60
    1e1c:	0e 94 d8 14 	call	0x29b0	; 0x29b0 <twi_addr_send>
    1e20:	80 e0       	ldi	r24, 0x00	; 0
    1e22:	0e 94 ce 14 	call	0x299c	; 0x299c <twi_byte_send>
    1e26:	8e ea       	ldi	r24, 0xAE	; 174
    1e28:	0e 94 ce 14 	call	0x299c	; 0x299c <twi_byte_send>
    1e2c:	0e 94 ca 14 	call	0x2994	; 0x2994 <twi_stop>
    1e30:	0e 94 c2 14 	call	0x2984	; 0x2984 <twi_start>
    1e34:	8c e3       	ldi	r24, 0x3C	; 60
    1e36:	0e 94 d8 14 	call	0x29b0	; 0x29b0 <twi_addr_send>
    1e3a:	80 e0       	ldi	r24, 0x00	; 0
    1e3c:	0e 94 ce 14 	call	0x299c	; 0x299c <twi_byte_send>
    1e40:	85 ed       	ldi	r24, 0xD5	; 213
    1e42:	0e 94 ce 14 	call	0x299c	; 0x299c <twi_byte_send>
    1e46:	0e 94 ca 14 	call	0x2994	; 0x2994 <twi_stop>
    1e4a:	0e 94 c2 14 	call	0x2984	; 0x2984 <twi_start>
    1e4e:	8c e3       	ldi	r24, 0x3C	; 60
    1e50:	0e 94 d8 14 	call	0x29b0	; 0x29b0 <twi_addr_send>
    1e54:	80 e0       	ldi	r24, 0x00	; 0
    1e56:	0e 94 ce 14 	call	0x299c	; 0x299c <twi_byte_send>
    1e5a:	80 e8       	ldi	r24, 0x80	; 128
    1e5c:	0e 94 ce 14 	call	0x299c	; 0x299c <twi_byte_send>
    1e60:	0e 94 ca 14 	call	0x2994	; 0x2994 <twi_stop>
    1e64:	0e 94 c2 14 	call	0x2984	; 0x2984 <twi_start>
    1e68:	8c e3       	ldi	r24, 0x3C	; 60
    1e6a:	0e 94 d8 14 	call	0x29b0	; 0x29b0 <twi_addr_send>
    1e6e:	80 e0       	ldi	r24, 0x00	; 0
    1e70:	0e 94 ce 14 	call	0x299c	; 0x299c <twi_byte_send>
    1e74:	88 ea       	ldi	r24, 0xA8	; 168
    1e76:	0e 94 ce 14 	call	0x299c	; 0x299c <twi_byte_send>
    1e7a:	0e 94 ca 14 	call	0x2994	; 0x2994 <twi_stop>
    1e7e:	0e 94 c2 14 	call	0x2984	; 0x2984 <twi_start>
    1e82:	8c e3       	ldi	r24, 0x3C	; 60
    1e84:	0e 94 d8 14 	call	0x29b0	; 0x29b0 <twi_addr_send>
    1e88:	80 e0       	ldi	r24, 0x00	; 0
    1e8a:	0e 94 ce 14 	call	0x299c	; 0x299c <twi_byte_send>
    1e8e:	8f e3       	ldi	r24, 0x3F	; 63
    1e90:	0e 94 ce 14 	call	0x299c	; 0x299c <twi_byte_send>
    1e94:	0e 94 ca 14 	call	0x2994	; 0x2994 <twi_stop>
    1e98:	0e 94 c2 14 	call	0x2984	; 0x2984 <twi_start>
    1e9c:	8c e3       	ldi	r24, 0x3C	; 60
    1e9e:	0e 94 d8 14 	call	0x29b0	; 0x29b0 <twi_addr_send>
    1ea2:	80 e0       	ldi	r24, 0x00	; 0
    1ea4:	0e 94 ce 14 	call	0x299c	; 0x299c <twi_byte_send>
    1ea8:	83 ed       	ldi	r24, 0xD3	; 211
    1eaa:	0e 94 ce 14 	call	0x299c	; 0x299c <twi_byte_send>
    1eae:	0e 94 ca 14 	call	0x2994	; 0x2994 <twi_stop>
    1eb2:	0e 94 c2 14 	call	0x2984	; 0x2984 <twi_start>
    1eb6:	8c e3       	ldi	r24, 0x3C	; 60
    1eb8:	0e 94 d8 14 	call	0x29b0	; 0x29b0 <twi_addr_send>
    1ebc:	80 e0       	ldi	r24, 0x00	; 0
    1ebe:	0e 94 ce 14 	call	0x299c	; 0x299c <twi_byte_send>
    1ec2:	80 e0       	ldi	r24, 0x00	; 0
    1ec4:	0e 94 ce 14 	call	0x299c	; 0x299c <twi_byte_send>
    1ec8:	0e 94 ca 14 	call	0x2994	; 0x2994 <twi_stop>
    1ecc:	0e 94 c2 14 	call	0x2984	; 0x2984 <twi_start>
    1ed0:	8c e3       	ldi	r24, 0x3C	; 60
    1ed2:	0e 94 d8 14 	call	0x29b0	; 0x29b0 <twi_addr_send>
    1ed6:	80 e0       	ldi	r24, 0x00	; 0
    1ed8:	0e 94 ce 14 	call	0x299c	; 0x299c <twi_byte_send>
    1edc:	80 e4       	ldi	r24, 0x40	; 64
    1ede:	0e 94 ce 14 	call	0x299c	; 0x299c <twi_byte_send>
    1ee2:	0e 94 ca 14 	call	0x2994	; 0x2994 <twi_stop>
    1ee6:	0e 94 c2 14 	call	0x2984	; 0x2984 <twi_start>
    1eea:	8c e3       	ldi	r24, 0x3C	; 60
    1eec:	0e 94 d8 14 	call	0x29b0	; 0x29b0 <twi_addr_send>
    1ef0:	80 e0       	ldi	r24, 0x00	; 0
    1ef2:	0e 94 ce 14 	call	0x299c	; 0x299c <twi_byte_send>
    1ef6:	8d e8       	ldi	r24, 0x8D	; 141
    1ef8:	0e 94 ce 14 	call	0x299c	; 0x299c <twi_byte_send>
    1efc:	0e 94 ca 14 	call	0x2994	; 0x2994 <twi_stop>
    1f00:	0e 94 c2 14 	call	0x2984	; 0x2984 <twi_start>
    1f04:	8c e3       	ldi	r24, 0x3C	; 60
    1f06:	0e 94 d8 14 	call	0x29b0	; 0x29b0 <twi_addr_send>
    1f0a:	80 e0       	ldi	r24, 0x00	; 0
    1f0c:	0e 94 ce 14 	call	0x299c	; 0x299c <twi_byte_send>
    1f10:	84 e1       	ldi	r24, 0x14	; 20
    1f12:	0e 94 ce 14 	call	0x299c	; 0x299c <twi_byte_send>
    1f16:	0e 94 ca 14 	call	0x2994	; 0x2994 <twi_stop>
    1f1a:	0e 94 c2 14 	call	0x2984	; 0x2984 <twi_start>
    1f1e:	8c e3       	ldi	r24, 0x3C	; 60
    1f20:	0e 94 d8 14 	call	0x29b0	; 0x29b0 <twi_addr_send>
    1f24:	80 e0       	ldi	r24, 0x00	; 0
    1f26:	0e 94 ce 14 	call	0x299c	; 0x299c <twi_byte_send>
    1f2a:	80 e2       	ldi	r24, 0x20	; 32
    1f2c:	0e 94 ce 14 	call	0x299c	; 0x299c <twi_byte_send>
    1f30:	0e 94 ca 14 	call	0x2994	; 0x2994 <twi_stop>
    1f34:	0e 94 c2 14 	call	0x2984	; 0x2984 <twi_start>
    1f38:	8c e3       	ldi	r24, 0x3C	; 60
    1f3a:	0e 94 d8 14 	call	0x29b0	; 0x29b0 <twi_addr_send>
    1f3e:	80 e0       	ldi	r24, 0x00	; 0
    1f40:	0e 94 ce 14 	call	0x299c	; 0x299c <twi_byte_send>
    1f44:	80 e0       	ldi	r24, 0x00	; 0
    1f46:	0e 94 ce 14 	call	0x299c	; 0x299c <twi_byte_send>
    1f4a:	0e 94 ca 14 	call	0x2994	; 0x2994 <twi_stop>
    1f4e:	0e 94 c2 14 	call	0x2984	; 0x2984 <twi_start>
    1f52:	8c e3       	ldi	r24, 0x3C	; 60
    1f54:	0e 94 d8 14 	call	0x29b0	; 0x29b0 <twi_addr_send>
    1f58:	80 e0       	ldi	r24, 0x00	; 0
    1f5a:	0e 94 ce 14 	call	0x299c	; 0x299c <twi_byte_send>
    1f5e:	81 ea       	ldi	r24, 0xA1	; 161
    1f60:	0e 94 ce 14 	call	0x299c	; 0x299c <twi_byte_send>
    1f64:	0e 94 ca 14 	call	0x2994	; 0x2994 <twi_stop>
    1f68:	0e 94 c2 14 	call	0x2984	; 0x2984 <twi_start>
    1f6c:	8c e3       	ldi	r24, 0x3C	; 60
    1f6e:	0e 94 d8 14 	call	0x29b0	; 0x29b0 <twi_addr_send>
    1f72:	80 e0       	ldi	r24, 0x00	; 0
    1f74:	0e 94 ce 14 	call	0x299c	; 0x299c <twi_byte_send>
    1f78:	88 ec       	ldi	r24, 0xC8	; 200
    1f7a:	0e 94 ce 14 	call	0x299c	; 0x299c <twi_byte_send>
    1f7e:	0e 94 ca 14 	call	0x2994	; 0x2994 <twi_stop>
    1f82:	0e 94 c2 14 	call	0x2984	; 0x2984 <twi_start>
    1f86:	8c e3       	ldi	r24, 0x3C	; 60
    1f88:	0e 94 d8 14 	call	0x29b0	; 0x29b0 <twi_addr_send>
    1f8c:	80 e0       	ldi	r24, 0x00	; 0
    1f8e:	0e 94 ce 14 	call	0x299c	; 0x299c <twi_byte_send>
    1f92:	8a ed       	ldi	r24, 0xDA	; 218
    1f94:	0e 94 ce 14 	call	0x299c	; 0x299c <twi_byte_send>
    1f98:	0e 94 ca 14 	call	0x2994	; 0x2994 <twi_stop>
    1f9c:	0e 94 c2 14 	call	0x2984	; 0x2984 <twi_start>
    1fa0:	8c e3       	ldi	r24, 0x3C	; 60
    1fa2:	0e 94 d8 14 	call	0x29b0	; 0x29b0 <twi_addr_send>
    1fa6:	80 e0       	ldi	r24, 0x00	; 0
    1fa8:	0e 94 ce 14 	call	0x299c	; 0x299c <twi_byte_send>
    1fac:	82 e1       	ldi	r24, 0x12	; 18
    1fae:	0e 94 ce 14 	call	0x299c	; 0x299c <twi_byte_send>
    1fb2:	0e 94 ca 14 	call	0x2994	; 0x2994 <twi_stop>
    1fb6:	0e 94 c2 14 	call	0x2984	; 0x2984 <twi_start>
    1fba:	8c e3       	ldi	r24, 0x3C	; 60
    1fbc:	0e 94 d8 14 	call	0x29b0	; 0x29b0 <twi_addr_send>
    1fc0:	80 e0       	ldi	r24, 0x00	; 0
    1fc2:	0e 94 ce 14 	call	0x299c	; 0x299c <twi_byte_send>
    1fc6:	81 e8       	ldi	r24, 0x81	; 129
    1fc8:	0e 94 ce 14 	call	0x299c	; 0x299c <twi_byte_send>
    1fcc:	0e 94 ca 14 	call	0x2994	; 0x2994 <twi_stop>
    1fd0:	0e 94 c2 14 	call	0x2984	; 0x2984 <twi_start>
    1fd4:	8c e3       	ldi	r24, 0x3C	; 60
    1fd6:	0e 94 d8 14 	call	0x29b0	; 0x29b0 <twi_addr_send>
    1fda:	80 e0       	ldi	r24, 0x00	; 0
    1fdc:	0e 94 ce 14 	call	0x299c	; 0x299c <twi_byte_send>
    1fe0:	8f ec       	ldi	r24, 0xCF	; 207
    1fe2:	0e 94 ce 14 	call	0x299c	; 0x299c <twi_byte_send>
    1fe6:	0e 94 ca 14 	call	0x2994	; 0x2994 <twi_stop>
    1fea:	0e 94 c2 14 	call	0x2984	; 0x2984 <twi_start>
    1fee:	8c e3       	ldi	r24, 0x3C	; 60
    1ff0:	0e 94 d8 14 	call	0x29b0	; 0x29b0 <twi_addr_send>
    1ff4:	80 e0       	ldi	r24, 0x00	; 0
    1ff6:	0e 94 ce 14 	call	0x299c	; 0x299c <twi_byte_send>
    1ffa:	89 ed       	ldi	r24, 0xD9	; 217
    1ffc:	0e 94 ce 14 	call	0x299c	; 0x299c <twi_byte_send>
    2000:	0e 94 ca 14 	call	0x2994	; 0x2994 <twi_stop>
    2004:	0e 94 c2 14 	call	0x2984	; 0x2984 <twi_start>
    2008:	8c e3       	ldi	r24, 0x3C	; 60
    200a:	0e 94 d8 14 	call	0x29b0	; 0x29b0 <twi_addr_send>
    200e:	80 e0       	ldi	r24, 0x00	; 0
    2010:	0e 94 ce 14 	call	0x299c	; 0x299c <twi_byte_send>
    2014:	81 ef       	ldi	r24, 0xF1	; 241
    2016:	0e 94 ce 14 	call	0x299c	; 0x299c <twi_byte_send>
    201a:	0e 94 ca 14 	call	0x2994	; 0x2994 <twi_stop>
    201e:	0e 94 c2 14 	call	0x2984	; 0x2984 <twi_start>
    2022:	8c e3       	ldi	r24, 0x3C	; 60
    2024:	0e 94 d8 14 	call	0x29b0	; 0x29b0 <twi_addr_send>
    2028:	80 e0       	ldi	r24, 0x00	; 0
    202a:	0e 94 ce 14 	call	0x299c	; 0x299c <twi_byte_send>
    202e:	8b ed       	ldi	r24, 0xDB	; 219
    2030:	0e 94 ce 14 	call	0x299c	; 0x299c <twi_byte_send>
    2034:	0e 94 ca 14 	call	0x2994	; 0x2994 <twi_stop>
    2038:	0e 94 c2 14 	call	0x2984	; 0x2984 <twi_start>
    203c:	8c e3       	ldi	r24, 0x3C	; 60
    203e:	0e 94 d8 14 	call	0x29b0	; 0x29b0 <twi_addr_send>
    2042:	80 e0       	ldi	r24, 0x00	; 0
    2044:	0e 94 ce 14 	call	0x299c	; 0x299c <twi_byte_send>
    2048:	80 e4       	ldi	r24, 0x40	; 64
    204a:	0e 94 ce 14 	call	0x299c	; 0x299c <twi_byte_send>
    204e:	0e 94 ca 14 	call	0x2994	; 0x2994 <twi_stop>
    2052:	0e 94 c2 14 	call	0x2984	; 0x2984 <twi_start>
    2056:	8c e3       	ldi	r24, 0x3C	; 60
    2058:	0e 94 d8 14 	call	0x29b0	; 0x29b0 <twi_addr_send>
    205c:	80 e0       	ldi	r24, 0x00	; 0
    205e:	0e 94 ce 14 	call	0x299c	; 0x299c <twi_byte_send>
    2062:	84 ea       	ldi	r24, 0xA4	; 164
    2064:	0e 94 ce 14 	call	0x299c	; 0x299c <twi_byte_send>
    2068:	0e 94 ca 14 	call	0x2994	; 0x2994 <twi_stop>
    206c:	0e 94 c2 14 	call	0x2984	; 0x2984 <twi_start>
    2070:	8c e3       	ldi	r24, 0x3C	; 60
    2072:	0e 94 d8 14 	call	0x29b0	; 0x29b0 <twi_addr_send>
    2076:	80 e0       	ldi	r24, 0x00	; 0
    2078:	0e 94 ce 14 	call	0x299c	; 0x299c <twi_byte_send>
    207c:	8f ea       	ldi	r24, 0xAF	; 175
    207e:	0e 94 ce 14 	call	0x299c	; 0x299c <twi_byte_send>
    2082:	0e 94 ca 14 	call	0x2994	; 0x2994 <twi_stop>
    2086:	80 e0       	ldi	r24, 0x00	; 0
    2088:	0e 94 f4 0e 	call	0x1de8	; 0x1de8 <LCD_Fill>
    208c:	0e 94 5e 0e 	call	0x1cbc	; 0x1cbc <LCD_UpdateScreen>
    2090:	ec e0       	ldi	r30, 0x0C	; 12
    2092:	f1 e0       	ldi	r31, 0x01	; 1
    2094:	11 82       	std	Z+1, r1	; 0x01
    2096:	10 82       	st	Z, r1
    2098:	13 82       	std	Z+3, r1	; 0x03
    209a:	12 82       	std	Z+2, r1	; 0x02
    209c:	81 e0       	ldi	r24, 0x01	; 1
    209e:	85 83       	std	Z+5, r24	; 0x05
    20a0:	08 95       	ret

000020a2 <LCD_Pixel>:
    20a2:	81 38       	cpi	r24, 0x81	; 129
    20a4:	91 05       	cpc	r25, r1
    20a6:	08 f0       	brcs	.+2      	; 0x20aa <LCD_Pixel+0x8>
    20a8:	50 c0       	rjmp	.+160    	; 0x214a <LCD_Pixel+0xa8>
    20aa:	60 34       	cpi	r22, 0x40	; 64
    20ac:	71 05       	cpc	r23, r1
    20ae:	08 f0       	brcs	.+2      	; 0x20b2 <LCD_Pixel+0x10>
    20b0:	4c c0       	rjmp	.+152    	; 0x214a <LCD_Pixel+0xa8>
    20b2:	20 91 10 01 	lds	r18, 0x0110	; 0x800110 <SSD1306+0x4>
    20b6:	22 23       	and	r18, r18
    20b8:	21 f0       	breq	.+8      	; 0x20c2 <LCD_Pixel+0x20>
    20ba:	21 e0       	ldi	r18, 0x01	; 1
    20bc:	41 11       	cpse	r20, r1
    20be:	20 e0       	ldi	r18, 0x00	; 0
    20c0:	42 2f       	mov	r20, r18
    20c2:	41 30       	cpi	r20, 0x01	; 1
    20c4:	09 f5       	brne	.+66     	; 0x2108 <LCD_Pixel+0x66>
    20c6:	9b 01       	movw	r18, r22
    20c8:	36 95       	lsr	r19
    20ca:	27 95       	ror	r18
    20cc:	36 95       	lsr	r19
    20ce:	27 95       	ror	r18
    20d0:	36 95       	lsr	r19
    20d2:	27 95       	ror	r18
    20d4:	f9 01       	movw	r30, r18
    20d6:	f6 95       	lsr	r31
    20d8:	fe 2f       	mov	r31, r30
    20da:	ee 27       	eor	r30, r30
    20dc:	f7 95       	ror	r31
    20de:	e7 95       	ror	r30
    20e0:	e2 0f       	add	r30, r18
    20e2:	f3 1f       	adc	r31, r19
    20e4:	8e 0f       	add	r24, r30
    20e6:	9f 1f       	adc	r25, r31
    20e8:	67 70       	andi	r22, 0x07	; 7
    20ea:	77 27       	eor	r23, r23
    20ec:	21 e0       	ldi	r18, 0x01	; 1
    20ee:	30 e0       	ldi	r19, 0x00	; 0
    20f0:	02 c0       	rjmp	.+4      	; 0x20f6 <LCD_Pixel+0x54>
    20f2:	22 0f       	add	r18, r18
    20f4:	33 1f       	adc	r19, r19
    20f6:	6a 95       	dec	r22
    20f8:	e2 f7       	brpl	.-8      	; 0x20f2 <LCD_Pixel+0x50>
    20fa:	fc 01       	movw	r30, r24
    20fc:	ee 5e       	subi	r30, 0xEE	; 238
    20fe:	fe 4f       	sbci	r31, 0xFE	; 254
    2100:	80 81       	ld	r24, Z
    2102:	28 2b       	or	r18, r24
    2104:	20 83       	st	Z, r18
    2106:	08 95       	ret
    2108:	fb 01       	movw	r30, r22
    210a:	f6 95       	lsr	r31
    210c:	e7 95       	ror	r30
    210e:	f6 95       	lsr	r31
    2110:	e7 95       	ror	r30
    2112:	f6 95       	lsr	r31
    2114:	e7 95       	ror	r30
    2116:	9f 01       	movw	r18, r30
    2118:	36 95       	lsr	r19
    211a:	32 2f       	mov	r19, r18
    211c:	22 27       	eor	r18, r18
    211e:	37 95       	ror	r19
    2120:	27 95       	ror	r18
    2122:	e2 0f       	add	r30, r18
    2124:	f3 1f       	adc	r31, r19
    2126:	8e 0f       	add	r24, r30
    2128:	9f 1f       	adc	r25, r31
    212a:	67 70       	andi	r22, 0x07	; 7
    212c:	77 27       	eor	r23, r23
    212e:	21 e0       	ldi	r18, 0x01	; 1
    2130:	30 e0       	ldi	r19, 0x00	; 0
    2132:	02 c0       	rjmp	.+4      	; 0x2138 <LCD_Pixel+0x96>
    2134:	22 0f       	add	r18, r18
    2136:	33 1f       	adc	r19, r19
    2138:	6a 95       	dec	r22
    213a:	e2 f7       	brpl	.-8      	; 0x2134 <LCD_Pixel+0x92>
    213c:	fc 01       	movw	r30, r24
    213e:	ee 5e       	subi	r30, 0xEE	; 238
    2140:	fe 4f       	sbci	r31, 0xFE	; 254
    2142:	20 95       	com	r18
    2144:	80 81       	ld	r24, Z
    2146:	28 23       	and	r18, r24
    2148:	20 83       	st	Z, r18
    214a:	08 95       	ret

0000214c <LCD_Line>:
    214c:	2f 92       	push	r2
    214e:	3f 92       	push	r3
    2150:	4f 92       	push	r4
    2152:	5f 92       	push	r5
    2154:	6f 92       	push	r6
    2156:	7f 92       	push	r7
    2158:	8f 92       	push	r8
    215a:	9f 92       	push	r9
    215c:	af 92       	push	r10
    215e:	bf 92       	push	r11
    2160:	cf 92       	push	r12
    2162:	df 92       	push	r13
    2164:	ef 92       	push	r14
    2166:	ff 92       	push	r15
    2168:	0f 93       	push	r16
    216a:	1f 93       	push	r17
    216c:	cf 93       	push	r28
    216e:	df 93       	push	r29
    2170:	00 d0       	rcall	.+0      	; 0x2172 <LCD_Line+0x26>
    2172:	1f 92       	push	r1
    2174:	cd b7       	in	r28, 0x3d	; 61
    2176:	de b7       	in	r29, 0x3e	; 62
    2178:	7c 01       	movw	r14, r24
    217a:	7b 83       	std	Y+3, r23	; 0x03
    217c:	6a 83       	std	Y+2, r22	; 0x02
    217e:	6a 01       	movw	r12, r20
    2180:	39 01       	movw	r6, r18
    2182:	09 83       	std	Y+1, r16	; 0x01
    2184:	81 e8       	ldi	r24, 0x81	; 129
    2186:	e8 16       	cp	r14, r24
    2188:	f1 04       	cpc	r15, r1
    218a:	20 f0       	brcs	.+8      	; 0x2194 <LCD_Line+0x48>
    218c:	68 94       	set
    218e:	ee 24       	eor	r14, r14
    2190:	e7 f8       	bld	r14, 7
    2192:	f1 2c       	mov	r15, r1
    2194:	91 e8       	ldi	r25, 0x81	; 129
    2196:	c9 16       	cp	r12, r25
    2198:	d1 04       	cpc	r13, r1
    219a:	20 f0       	brcs	.+8      	; 0x21a4 <LCD_Line+0x58>
    219c:	68 94       	set
    219e:	cc 24       	eor	r12, r12
    21a0:	c7 f8       	bld	r12, 7
    21a2:	d1 2c       	mov	r13, r1
    21a4:	8a 81       	ldd	r24, Y+2	; 0x02
    21a6:	9b 81       	ldd	r25, Y+3	; 0x03
    21a8:	80 34       	cpi	r24, 0x40	; 64
    21aa:	91 05       	cpc	r25, r1
    21ac:	20 f0       	brcs	.+8      	; 0x21b6 <LCD_Line+0x6a>
    21ae:	8f e3       	ldi	r24, 0x3F	; 63
    21b0:	90 e0       	ldi	r25, 0x00	; 0
    21b2:	9b 83       	std	Y+3, r25	; 0x03
    21b4:	8a 83       	std	Y+2, r24	; 0x02
    21b6:	90 e4       	ldi	r25, 0x40	; 64
    21b8:	69 16       	cp	r6, r25
    21ba:	71 04       	cpc	r7, r1
    21bc:	28 f0       	brcs	.+10     	; 0x21c8 <LCD_Line+0x7c>
    21be:	0f 2e       	mov	r0, r31
    21c0:	ff e3       	ldi	r31, 0x3F	; 63
    21c2:	6f 2e       	mov	r6, r31
    21c4:	71 2c       	mov	r7, r1
    21c6:	f0 2d       	mov	r31, r0
    21c8:	ec 14       	cp	r14, r12
    21ca:	fd 04       	cpc	r15, r13
    21cc:	20 f4       	brcc	.+8      	; 0x21d6 <LCD_Line+0x8a>
    21ce:	86 01       	movw	r16, r12
    21d0:	0e 19       	sub	r16, r14
    21d2:	1f 09       	sbc	r17, r15
    21d4:	03 c0       	rjmp	.+6      	; 0x21dc <LCD_Line+0x90>
    21d6:	87 01       	movw	r16, r14
    21d8:	0c 19       	sub	r16, r12
    21da:	1d 09       	sbc	r17, r13
    21dc:	8a 81       	ldd	r24, Y+2	; 0x02
    21de:	9b 81       	ldd	r25, Y+3	; 0x03
    21e0:	86 15       	cp	r24, r6
    21e2:	97 05       	cpc	r25, r7
    21e4:	20 f4       	brcc	.+8      	; 0x21ee <LCD_Line+0xa2>
    21e6:	53 01       	movw	r10, r6
    21e8:	a8 1a       	sub	r10, r24
    21ea:	b9 0a       	sbc	r11, r25
    21ec:	04 c0       	rjmp	.+8      	; 0x21f6 <LCD_Line+0xaa>
    21ee:	aa 80       	ldd	r10, Y+2	; 0x02
    21f0:	bb 80       	ldd	r11, Y+3	; 0x03
    21f2:	a6 18       	sub	r10, r6
    21f4:	b7 08       	sbc	r11, r7
    21f6:	ec 14       	cp	r14, r12
    21f8:	fd 04       	cpc	r15, r13
    21fa:	20 f4       	brcc	.+8      	; 0x2204 <LCD_Line+0xb8>
    21fc:	22 24       	eor	r2, r2
    21fe:	23 94       	inc	r2
    2200:	31 2c       	mov	r3, r1
    2202:	03 c0       	rjmp	.+6      	; 0x220a <LCD_Line+0xbe>
    2204:	22 24       	eor	r2, r2
    2206:	2a 94       	dec	r2
    2208:	32 2c       	mov	r3, r2
    220a:	8a 81       	ldd	r24, Y+2	; 0x02
    220c:	9b 81       	ldd	r25, Y+3	; 0x03
    220e:	86 15       	cp	r24, r6
    2210:	97 05       	cpc	r25, r7
    2212:	20 f4       	brcc	.+8      	; 0x221c <LCD_Line+0xd0>
    2214:	44 24       	eor	r4, r4
    2216:	43 94       	inc	r4
    2218:	51 2c       	mov	r5, r1
    221a:	03 c0       	rjmp	.+6      	; 0x2222 <LCD_Line+0xd6>
    221c:	44 24       	eor	r4, r4
    221e:	4a 94       	dec	r4
    2220:	54 2c       	mov	r5, r4
    2222:	a0 16       	cp	r10, r16
    2224:	b1 06       	cpc	r11, r17
    2226:	38 f0       	brcs	.+14     	; 0x2236 <LCD_Line+0xea>
    2228:	88 24       	eor	r8, r8
    222a:	99 24       	eor	r9, r9
    222c:	8a 18       	sub	r8, r10
    222e:	9b 08       	sbc	r9, r11
    2230:	96 94       	lsr	r9
    2232:	87 94       	ror	r8
    2234:	03 c0       	rjmp	.+6      	; 0x223c <LCD_Line+0xf0>
    2236:	48 01       	movw	r8, r16
    2238:	96 94       	lsr	r9
    223a:	87 94       	ror	r8
    223c:	01 15       	cp	r16, r1
    223e:	11 05       	cpc	r17, r1
    2240:	09 f5       	brne	.+66     	; 0x2284 <LCD_Line+0x138>
    2242:	8a 81       	ldd	r24, Y+2	; 0x02
    2244:	9b 81       	ldd	r25, Y+3	; 0x03
    2246:	68 16       	cp	r6, r24
    2248:	79 06       	cpc	r7, r25
    224a:	30 f4       	brcc	.+12     	; 0x2258 <LCD_Line+0x10c>
    224c:	9a 81       	ldd	r25, Y+2	; 0x02
    224e:	8b 81       	ldd	r24, Y+3	; 0x03
    2250:	7b 82       	std	Y+3, r7	; 0x03
    2252:	6a 82       	std	Y+2, r6	; 0x02
    2254:	69 2e       	mov	r6, r25
    2256:	78 2e       	mov	r7, r24
    2258:	ce 14       	cp	r12, r14
    225a:	df 04       	cpc	r13, r15
    225c:	68 f4       	brcc	.+26     	; 0x2278 <LCD_Line+0x12c>
    225e:	76 01       	movw	r14, r12
    2260:	0b c0       	rjmp	.+22     	; 0x2278 <LCD_Line+0x12c>
    2262:	49 81       	ldd	r20, Y+1	; 0x01
    2264:	6a 81       	ldd	r22, Y+2	; 0x02
    2266:	7b 81       	ldd	r23, Y+3	; 0x03
    2268:	c7 01       	movw	r24, r14
    226a:	0e 94 51 10 	call	0x20a2	; 0x20a2 <LCD_Pixel>
    226e:	8a 81       	ldd	r24, Y+2	; 0x02
    2270:	9b 81       	ldd	r25, Y+3	; 0x03
    2272:	01 96       	adiw	r24, 0x01	; 1
    2274:	9b 83       	std	Y+3, r25	; 0x03
    2276:	8a 83       	std	Y+2, r24	; 0x02
    2278:	8a 81       	ldd	r24, Y+2	; 0x02
    227a:	9b 81       	ldd	r25, Y+3	; 0x03
    227c:	68 16       	cp	r6, r24
    227e:	79 06       	cpc	r7, r25
    2280:	80 f7       	brcc	.-32     	; 0x2262 <LCD_Line+0x116>
    2282:	4a c0       	rjmp	.+148    	; 0x2318 <LCD_Line+0x1cc>
    2284:	a1 14       	cp	r10, r1
    2286:	b1 04       	cpc	r11, r1
    2288:	f1 f4       	brne	.+60     	; 0x22c6 <LCD_Line+0x17a>
    228a:	8a 81       	ldd	r24, Y+2	; 0x02
    228c:	9b 81       	ldd	r25, Y+3	; 0x03
    228e:	68 16       	cp	r6, r24
    2290:	79 06       	cpc	r7, r25
    2292:	10 f4       	brcc	.+4      	; 0x2298 <LCD_Line+0x14c>
    2294:	7b 82       	std	Y+3, r7	; 0x03
    2296:	6a 82       	std	Y+2, r6	; 0x02
    2298:	ce 14       	cp	r12, r14
    229a:	df 04       	cpc	r13, r15
    229c:	78 f4       	brcc	.+30     	; 0x22bc <LCD_Line+0x170>
    229e:	9e 2d       	mov	r25, r14
    22a0:	8f 2d       	mov	r24, r15
    22a2:	76 01       	movw	r14, r12
    22a4:	c9 2e       	mov	r12, r25
    22a6:	d8 2e       	mov	r13, r24
    22a8:	09 c0       	rjmp	.+18     	; 0x22bc <LCD_Line+0x170>
    22aa:	49 81       	ldd	r20, Y+1	; 0x01
    22ac:	6a 81       	ldd	r22, Y+2	; 0x02
    22ae:	7b 81       	ldd	r23, Y+3	; 0x03
    22b0:	c7 01       	movw	r24, r14
    22b2:	0e 94 51 10 	call	0x20a2	; 0x20a2 <LCD_Pixel>
    22b6:	9f ef       	ldi	r25, 0xFF	; 255
    22b8:	e9 1a       	sub	r14, r25
    22ba:	f9 0a       	sbc	r15, r25
    22bc:	ce 14       	cp	r12, r14
    22be:	df 04       	cpc	r13, r15
    22c0:	a0 f7       	brcc	.-24     	; 0x22aa <LCD_Line+0x15e>
    22c2:	2a c0       	rjmp	.+84     	; 0x2318 <LCD_Line+0x1cc>
    22c4:	4c 01       	movw	r8, r24
    22c6:	49 81       	ldd	r20, Y+1	; 0x01
    22c8:	6a 81       	ldd	r22, Y+2	; 0x02
    22ca:	7b 81       	ldd	r23, Y+3	; 0x03
    22cc:	c7 01       	movw	r24, r14
    22ce:	0e 94 51 10 	call	0x20a2	; 0x20a2 <LCD_Pixel>
    22d2:	ec 14       	cp	r14, r12
    22d4:	fd 04       	cpc	r15, r13
    22d6:	29 f4       	brne	.+10     	; 0x22e2 <LCD_Line+0x196>
    22d8:	8a 81       	ldd	r24, Y+2	; 0x02
    22da:	9b 81       	ldd	r25, Y+3	; 0x03
    22dc:	86 15       	cp	r24, r6
    22de:	97 05       	cpc	r25, r7
    22e0:	d9 f0       	breq	.+54     	; 0x2318 <LCD_Line+0x1cc>
    22e2:	88 27       	eor	r24, r24
    22e4:	99 27       	eor	r25, r25
    22e6:	80 1b       	sub	r24, r16
    22e8:	91 0b       	sbc	r25, r17
    22ea:	88 15       	cp	r24, r8
    22ec:	99 05       	cpc	r25, r9
    22ee:	30 f4       	brcc	.+12     	; 0x22fc <LCD_Line+0x1b0>
    22f0:	c4 01       	movw	r24, r8
    22f2:	8a 19       	sub	r24, r10
    22f4:	9b 09       	sbc	r25, r11
    22f6:	e2 0c       	add	r14, r2
    22f8:	f3 1c       	adc	r15, r3
    22fa:	01 c0       	rjmp	.+2      	; 0x22fe <LCD_Line+0x1b2>
    22fc:	c4 01       	movw	r24, r8
    22fe:	8a 14       	cp	r8, r10
    2300:	9b 04       	cpc	r9, r11
    2302:	00 f7       	brcc	.-64     	; 0x22c4 <LCD_Line+0x178>
    2304:	4c 01       	movw	r8, r24
    2306:	80 0e       	add	r8, r16
    2308:	91 1e       	adc	r9, r17
    230a:	8a 81       	ldd	r24, Y+2	; 0x02
    230c:	9b 81       	ldd	r25, Y+3	; 0x03
    230e:	84 0d       	add	r24, r4
    2310:	95 1d       	adc	r25, r5
    2312:	9b 83       	std	Y+3, r25	; 0x03
    2314:	8a 83       	std	Y+2, r24	; 0x02
    2316:	d7 cf       	rjmp	.-82     	; 0x22c6 <LCD_Line+0x17a>
    2318:	0f 90       	pop	r0
    231a:	0f 90       	pop	r0
    231c:	0f 90       	pop	r0
    231e:	df 91       	pop	r29
    2320:	cf 91       	pop	r28
    2322:	1f 91       	pop	r17
    2324:	0f 91       	pop	r16
    2326:	ff 90       	pop	r15
    2328:	ef 90       	pop	r14
    232a:	df 90       	pop	r13
    232c:	cf 90       	pop	r12
    232e:	bf 90       	pop	r11
    2330:	af 90       	pop	r10
    2332:	9f 90       	pop	r9
    2334:	8f 90       	pop	r8
    2336:	7f 90       	pop	r7
    2338:	6f 90       	pop	r6
    233a:	5f 90       	pop	r5
    233c:	4f 90       	pop	r4
    233e:	3f 90       	pop	r3
    2340:	2f 90       	pop	r2
    2342:	08 95       	ret

00002344 <LCD_Rect>:
    2344:	af 92       	push	r10
    2346:	bf 92       	push	r11
    2348:	cf 92       	push	r12
    234a:	df 92       	push	r13
    234c:	ef 92       	push	r14
    234e:	ff 92       	push	r15
    2350:	0f 93       	push	r16
    2352:	1f 93       	push	r17
    2354:	cf 93       	push	r28
    2356:	df 93       	push	r29
    2358:	ec 01       	movw	r28, r24
    235a:	5b 01       	movw	r10, r22
    235c:	69 01       	movw	r12, r18
    235e:	10 2f       	mov	r17, r16
    2360:	81 38       	cpi	r24, 0x81	; 129
    2362:	91 05       	cpc	r25, r1
    2364:	b0 f5       	brcc	.+108    	; 0x23d2 <LCD_Rect+0x8e>
    2366:	60 34       	cpi	r22, 0x40	; 64
    2368:	71 05       	cpc	r23, r1
    236a:	98 f5       	brcc	.+102    	; 0x23d2 <LCD_Rect+0x8e>
    236c:	ce 01       	movw	r24, r28
    236e:	84 0f       	add	r24, r20
    2370:	95 1f       	adc	r25, r21
    2372:	81 38       	cpi	r24, 0x81	; 129
    2374:	91 05       	cpc	r25, r1
    2376:	20 f0       	brcs	.+8      	; 0x2380 <LCD_Rect+0x3c>
    2378:	41 e8       	ldi	r20, 0x81	; 129
    237a:	50 e0       	ldi	r21, 0x00	; 0
    237c:	4c 1b       	sub	r20, r28
    237e:	5d 0b       	sbc	r21, r29
    2380:	c5 01       	movw	r24, r10
    2382:	8c 0d       	add	r24, r12
    2384:	9d 1d       	adc	r25, r13
    2386:	80 34       	cpi	r24, 0x40	; 64
    2388:	91 05       	cpc	r25, r1
    238a:	28 f0       	brcs	.+10     	; 0x2396 <LCD_Rect+0x52>
    238c:	80 e4       	ldi	r24, 0x40	; 64
    238e:	90 e0       	ldi	r25, 0x00	; 0
    2390:	6c 01       	movw	r12, r24
    2392:	ca 18       	sub	r12, r10
    2394:	db 08       	sbc	r13, r11
    2396:	7a 01       	movw	r14, r20
    2398:	ec 0e       	add	r14, r28
    239a:	fd 1e       	adc	r15, r29
    239c:	01 2f       	mov	r16, r17
    239e:	95 01       	movw	r18, r10
    23a0:	a7 01       	movw	r20, r14
    23a2:	b5 01       	movw	r22, r10
    23a4:	ce 01       	movw	r24, r28
    23a6:	0e 94 a6 10 	call	0x214c	; 0x214c <LCD_Line>
    23aa:	ca 0c       	add	r12, r10
    23ac:	db 1c       	adc	r13, r11
    23ae:	96 01       	movw	r18, r12
    23b0:	a7 01       	movw	r20, r14
    23b2:	b6 01       	movw	r22, r12
    23b4:	ce 01       	movw	r24, r28
    23b6:	0e 94 a6 10 	call	0x214c	; 0x214c <LCD_Line>
    23ba:	96 01       	movw	r18, r12
    23bc:	ae 01       	movw	r20, r28
    23be:	b5 01       	movw	r22, r10
    23c0:	ce 01       	movw	r24, r28
    23c2:	0e 94 a6 10 	call	0x214c	; 0x214c <LCD_Line>
    23c6:	96 01       	movw	r18, r12
    23c8:	a7 01       	movw	r20, r14
    23ca:	b5 01       	movw	r22, r10
    23cc:	c7 01       	movw	r24, r14
    23ce:	0e 94 a6 10 	call	0x214c	; 0x214c <LCD_Line>
    23d2:	df 91       	pop	r29
    23d4:	cf 91       	pop	r28
    23d6:	1f 91       	pop	r17
    23d8:	0f 91       	pop	r16
    23da:	ff 90       	pop	r15
    23dc:	ef 90       	pop	r14
    23de:	df 90       	pop	r13
    23e0:	cf 90       	pop	r12
    23e2:	bf 90       	pop	r11
    23e4:	af 90       	pop	r10
    23e6:	08 95       	ret

000023e8 <LCD_Rect_Fill>:
    23e8:	9f 92       	push	r9
    23ea:	af 92       	push	r10
    23ec:	bf 92       	push	r11
    23ee:	cf 92       	push	r12
    23f0:	df 92       	push	r13
    23f2:	ef 92       	push	r14
    23f4:	ff 92       	push	r15
    23f6:	0f 93       	push	r16
    23f8:	1f 93       	push	r17
    23fa:	cf 93       	push	r28
    23fc:	df 93       	push	r29
    23fe:	ec 01       	movw	r28, r24
    2400:	6b 01       	movw	r12, r22
    2402:	5a 01       	movw	r10, r20
    2404:	79 01       	movw	r14, r18
    2406:	90 2e       	mov	r9, r16
    2408:	81 38       	cpi	r24, 0x81	; 129
    240a:	91 05       	cpc	r25, r1
    240c:	58 f5       	brcc	.+86     	; 0x2464 <LCD_Rect_Fill+0x7c>
    240e:	60 34       	cpi	r22, 0x40	; 64
    2410:	71 05       	cpc	r23, r1
    2412:	40 f5       	brcc	.+80     	; 0x2464 <LCD_Rect_Fill+0x7c>
    2414:	ce 01       	movw	r24, r28
    2416:	84 0f       	add	r24, r20
    2418:	95 1f       	adc	r25, r21
    241a:	81 38       	cpi	r24, 0x81	; 129
    241c:	91 05       	cpc	r25, r1
    241e:	28 f0       	brcs	.+10     	; 0x242a <LCD_Rect_Fill+0x42>
    2420:	81 e8       	ldi	r24, 0x81	; 129
    2422:	90 e0       	ldi	r25, 0x00	; 0
    2424:	5c 01       	movw	r10, r24
    2426:	ac 1a       	sub	r10, r28
    2428:	bd 0a       	sbc	r11, r29
    242a:	c6 01       	movw	r24, r12
    242c:	8e 0d       	add	r24, r14
    242e:	9f 1d       	adc	r25, r15
    2430:	80 34       	cpi	r24, 0x40	; 64
    2432:	91 05       	cpc	r25, r1
    2434:	28 f0       	brcs	.+10     	; 0x2440 <LCD_Rect_Fill+0x58>
    2436:	80 e4       	ldi	r24, 0x40	; 64
    2438:	90 e0       	ldi	r25, 0x00	; 0
    243a:	7c 01       	movw	r14, r24
    243c:	ec 18       	sub	r14, r12
    243e:	fd 08       	sbc	r15, r13
    2440:	10 e0       	ldi	r17, 0x00	; 0
    2442:	0b c0       	rjmp	.+22     	; 0x245a <LCD_Rect_Fill+0x72>
    2444:	6c 0d       	add	r22, r12
    2446:	7d 1d       	adc	r23, r13
    2448:	09 2d       	mov	r16, r9
    244a:	9b 01       	movw	r18, r22
    244c:	a5 01       	movw	r20, r10
    244e:	4c 0f       	add	r20, r28
    2450:	5d 1f       	adc	r21, r29
    2452:	ce 01       	movw	r24, r28
    2454:	0e 94 a6 10 	call	0x214c	; 0x214c <LCD_Line>
    2458:	1f 5f       	subi	r17, 0xFF	; 255
    245a:	61 2f       	mov	r22, r17
    245c:	70 e0       	ldi	r23, 0x00	; 0
    245e:	e6 16       	cp	r14, r22
    2460:	f7 06       	cpc	r15, r23
    2462:	80 f7       	brcc	.-32     	; 0x2444 <LCD_Rect_Fill+0x5c>
    2464:	df 91       	pop	r29
    2466:	cf 91       	pop	r28
    2468:	1f 91       	pop	r17
    246a:	0f 91       	pop	r16
    246c:	ff 90       	pop	r15
    246e:	ef 90       	pop	r14
    2470:	df 90       	pop	r13
    2472:	cf 90       	pop	r12
    2474:	bf 90       	pop	r11
    2476:	af 90       	pop	r10
    2478:	9f 90       	pop	r9
    247a:	08 95       	ret

0000247c <LCD_Char>:

void LCD_Char(int x, int y, const GFXglyph *glyph, const GFXfont *font, unsigned char size, SSD1306_COLOR_t color) {
    247c:	3f 92       	push	r3
    247e:	4f 92       	push	r4
    2480:	5f 92       	push	r5
    2482:	6f 92       	push	r6
    2484:	7f 92       	push	r7
    2486:	8f 92       	push	r8
    2488:	9f 92       	push	r9
    248a:	af 92       	push	r10
    248c:	bf 92       	push	r11
    248e:	cf 92       	push	r12
    2490:	df 92       	push	r13
    2492:	ef 92       	push	r14
    2494:	ff 92       	push	r15
    2496:	0f 93       	push	r16
    2498:	1f 93       	push	r17
    249a:	cf 93       	push	r28
    249c:	df 93       	push	r29
    249e:	3c 01       	movw	r6, r24
    24a0:	4b 01       	movw	r8, r22
    24a2:	6a 01       	movw	r12, r20
    24a4:	40 2e       	mov	r4, r16
    24a6:	3e 2c       	mov	r3, r14
	unsigned char  *bitmap = font -> bitmap;
    24a8:	f9 01       	movw	r30, r18
    24aa:	a0 80       	ld	r10, Z
    24ac:	b1 80       	ldd	r11, Z+1	; 0x01
	unsigned int bo = glyph -> bitmapOffset;
    24ae:	fa 01       	movw	r30, r20
    24b0:	e0 80       	ld	r14, Z
    24b2:	f1 80       	ldd	r15, Z+1	; 0x01
	unsigned char bits = 0, bit = 0;
	unsigned int set_pixels = 0;
	unsigned char  cur_x, cur_y;
	for (cur_y = 0; cur_y < glyph -> height; cur_y++) {
    24b4:	51 2c       	mov	r5, r1

void LCD_Char(int x, int y, const GFXglyph *glyph, const GFXfont *font, unsigned char size, SSD1306_COLOR_t color) {
	unsigned char  *bitmap = font -> bitmap;
	unsigned int bo = glyph -> bitmapOffset;
	unsigned char bits = 0, bit = 0;
	unsigned int set_pixels = 0;
    24b6:	a0 e0       	ldi	r26, 0x00	; 0
    24b8:	b0 e0       	ldi	r27, 0x00	; 0
}

void LCD_Char(int x, int y, const GFXglyph *glyph, const GFXfont *font, unsigned char size, SSD1306_COLOR_t color) {
	unsigned char  *bitmap = font -> bitmap;
	unsigned int bo = glyph -> bitmapOffset;
	unsigned char bits = 0, bit = 0;
    24ba:	c0 e0       	ldi	r28, 0x00	; 0
    24bc:	10 e0       	ldi	r17, 0x00	; 0
	unsigned int set_pixels = 0;
	unsigned char  cur_x, cur_y;
	for (cur_y = 0; cur_y < glyph -> height; cur_y++) {
    24be:	7e c0       	rjmp	.+252    	; 0x25bc <LCD_Char+0x140>
		for (cur_x = 0; cur_x < glyph -> width; cur_x++) {
			if (bit == 0) {
    24c0:	c1 11       	cpse	r28, r1
    24c2:	08 c0       	rjmp	.+16     	; 0x24d4 <LCD_Char+0x58>
				bits = pgm_read_byte(&bitmap[bo++]);
    24c4:	c7 01       	movw	r24, r14
    24c6:	01 96       	adiw	r24, 0x01	; 1
    24c8:	f5 01       	movw	r30, r10
    24ca:	ee 0d       	add	r30, r14
    24cc:	ff 1d       	adc	r31, r15
    24ce:	14 91       	lpm	r17, Z
    24d0:	7c 01       	movw	r14, r24
				bit  = 0x80;
    24d2:	c0 e8       	ldi	r28, 0x80	; 128
			}
			if (bits & bit) set_pixels++;
    24d4:	81 2f       	mov	r24, r17
    24d6:	8c 23       	and	r24, r28
    24d8:	11 f0       	breq	.+4      	; 0x24de <LCD_Char+0x62>
    24da:	11 96       	adiw	r26, 0x01	; 1
    24dc:	33 c0       	rjmp	.+102    	; 0x2544 <LCD_Char+0xc8>
			else if (set_pixels > 0) {
    24de:	10 97       	sbiw	r26, 0x00	; 0
    24e0:	89 f1       	breq	.+98     	; 0x2544 <LCD_Char+0xc8>
				LCD_Rect_Fill(x + (glyph -> xOffset + cur_x - set_pixels) * size, y + (glyph -> yOffset + cur_y) * size, size * set_pixels, size, color);
    24e2:	24 2d       	mov	r18, r4
    24e4:	30 e0       	ldi	r19, 0x00	; 0
    24e6:	f6 01       	movw	r30, r12
    24e8:	46 81       	ldd	r20, Z+6	; 0x06
    24ea:	85 2d       	mov	r24, r5
    24ec:	90 e0       	ldi	r25, 0x00	; 0
    24ee:	84 0f       	add	r24, r20
    24f0:	91 1d       	adc	r25, r1
    24f2:	47 fd       	sbrc	r20, 7
    24f4:	9a 95       	dec	r25
    24f6:	28 9f       	mul	r18, r24
    24f8:	b0 01       	movw	r22, r0
    24fa:	29 9f       	mul	r18, r25
    24fc:	70 0d       	add	r23, r0
    24fe:	38 9f       	mul	r19, r24
    2500:	70 0d       	add	r23, r0
    2502:	11 24       	eor	r1, r1
    2504:	68 0d       	add	r22, r8
    2506:	79 1d       	adc	r23, r9
    2508:	85 81       	ldd	r24, Z+5	; 0x05
    250a:	4d 2f       	mov	r20, r29
    250c:	50 e0       	ldi	r21, 0x00	; 0
    250e:	48 0f       	add	r20, r24
    2510:	51 1d       	adc	r21, r1
    2512:	87 fd       	sbrc	r24, 7
    2514:	5a 95       	dec	r21
    2516:	4a 1b       	sub	r20, r26
    2518:	5b 0b       	sbc	r21, r27
    251a:	24 9f       	mul	r18, r20
    251c:	c0 01       	movw	r24, r0
    251e:	25 9f       	mul	r18, r21
    2520:	90 0d       	add	r25, r0
    2522:	34 9f       	mul	r19, r20
    2524:	90 0d       	add	r25, r0
    2526:	11 24       	eor	r1, r1
    2528:	a2 9f       	mul	r26, r18
    252a:	a0 01       	movw	r20, r0
    252c:	a3 9f       	mul	r26, r19
    252e:	50 0d       	add	r21, r0
    2530:	b2 9f       	mul	r27, r18
    2532:	50 0d       	add	r21, r0
    2534:	11 24       	eor	r1, r1
    2536:	03 2d       	mov	r16, r3
    2538:	86 0d       	add	r24, r6
    253a:	97 1d       	adc	r25, r7
    253c:	0e 94 f4 11 	call	0x23e8	; 0x23e8 <LCD_Rect_Fill>
				set_pixels = 0;
    2540:	a0 e0       	ldi	r26, 0x00	; 0
    2542:	b0 e0       	ldi	r27, 0x00	; 0
			}
			bit >>= 1;
    2544:	c6 95       	lsr	r28
	unsigned int bo = glyph -> bitmapOffset;
	unsigned char bits = 0, bit = 0;
	unsigned int set_pixels = 0;
	unsigned char  cur_x, cur_y;
	for (cur_y = 0; cur_y < glyph -> height; cur_y++) {
		for (cur_x = 0; cur_x < glyph -> width; cur_x++) {
    2546:	df 5f       	subi	r29, 0xFF	; 255
    2548:	01 c0       	rjmp	.+2      	; 0x254c <LCD_Char+0xd0>
    254a:	d0 e0       	ldi	r29, 0x00	; 0
    254c:	f6 01       	movw	r30, r12
    254e:	82 81       	ldd	r24, Z+2	; 0x02
    2550:	d8 17       	cp	r29, r24
    2552:	08 f4       	brcc	.+2      	; 0x2556 <LCD_Char+0xda>
    2554:	b5 cf       	rjmp	.-150    	; 0x24c0 <LCD_Char+0x44>
				LCD_Rect_Fill(x + (glyph -> xOffset + cur_x - set_pixels) * size, y + (glyph -> yOffset + cur_y) * size, size * set_pixels, size, color);
				set_pixels = 0;
			}
			bit >>= 1;
		}
		if (set_pixels > 0) {
    2556:	10 97       	sbiw	r26, 0x00	; 0
    2558:	81 f1       	breq	.+96     	; 0x25ba <LCD_Char+0x13e>
			LCD_Rect_Fill(x + (glyph -> xOffset + cur_x-set_pixels) * size, y + (glyph -> yOffset + cur_y) * size, size * set_pixels, size, color);
    255a:	24 2d       	mov	r18, r4
    255c:	30 e0       	ldi	r19, 0x00	; 0
    255e:	46 81       	ldd	r20, Z+6	; 0x06
    2560:	85 2d       	mov	r24, r5
    2562:	90 e0       	ldi	r25, 0x00	; 0
    2564:	84 0f       	add	r24, r20
    2566:	91 1d       	adc	r25, r1
    2568:	47 fd       	sbrc	r20, 7
    256a:	9a 95       	dec	r25
    256c:	28 9f       	mul	r18, r24
    256e:	b0 01       	movw	r22, r0
    2570:	29 9f       	mul	r18, r25
    2572:	70 0d       	add	r23, r0
    2574:	38 9f       	mul	r19, r24
    2576:	70 0d       	add	r23, r0
    2578:	11 24       	eor	r1, r1
    257a:	68 0d       	add	r22, r8
    257c:	79 1d       	adc	r23, r9
    257e:	85 81       	ldd	r24, Z+5	; 0x05
    2580:	4d 2f       	mov	r20, r29
    2582:	50 e0       	ldi	r21, 0x00	; 0
    2584:	48 0f       	add	r20, r24
    2586:	51 1d       	adc	r21, r1
    2588:	87 fd       	sbrc	r24, 7
    258a:	5a 95       	dec	r21
    258c:	4a 1b       	sub	r20, r26
    258e:	5b 0b       	sbc	r21, r27
    2590:	24 9f       	mul	r18, r20
    2592:	c0 01       	movw	r24, r0
    2594:	25 9f       	mul	r18, r21
    2596:	90 0d       	add	r25, r0
    2598:	34 9f       	mul	r19, r20
    259a:	90 0d       	add	r25, r0
    259c:	11 24       	eor	r1, r1
    259e:	a2 9f       	mul	r26, r18
    25a0:	a0 01       	movw	r20, r0
    25a2:	a3 9f       	mul	r26, r19
    25a4:	50 0d       	add	r21, r0
    25a6:	b2 9f       	mul	r27, r18
    25a8:	50 0d       	add	r21, r0
    25aa:	11 24       	eor	r1, r1
    25ac:	03 2d       	mov	r16, r3
    25ae:	86 0d       	add	r24, r6
    25b0:	97 1d       	adc	r25, r7
    25b2:	0e 94 f4 11 	call	0x23e8	; 0x23e8 <LCD_Rect_Fill>
			set_pixels = 0;
    25b6:	a0 e0       	ldi	r26, 0x00	; 0
    25b8:	b0 e0       	ldi	r27, 0x00	; 0
	unsigned char  *bitmap = font -> bitmap;
	unsigned int bo = glyph -> bitmapOffset;
	unsigned char bits = 0, bit = 0;
	unsigned int set_pixels = 0;
	unsigned char  cur_x, cur_y;
	for (cur_y = 0; cur_y < glyph -> height; cur_y++) {
    25ba:	53 94       	inc	r5
    25bc:	f6 01       	movw	r30, r12
    25be:	83 81       	ldd	r24, Z+3	; 0x03
    25c0:	58 16       	cp	r5, r24
    25c2:	18 f2       	brcs	.-122    	; 0x254a <LCD_Char+0xce>
		if (set_pixels > 0) {
			LCD_Rect_Fill(x + (glyph -> xOffset + cur_x-set_pixels) * size, y + (glyph -> yOffset + cur_y) * size, size * set_pixels, size, color);
			set_pixels = 0;
		}
	}
}
    25c4:	df 91       	pop	r29
    25c6:	cf 91       	pop	r28
    25c8:	1f 91       	pop	r17
    25ca:	0f 91       	pop	r16
    25cc:	ff 90       	pop	r15
    25ce:	ef 90       	pop	r14
    25d0:	df 90       	pop	r13
    25d2:	cf 90       	pop	r12
    25d4:	bf 90       	pop	r11
    25d6:	af 90       	pop	r10
    25d8:	9f 90       	pop	r9
    25da:	8f 90       	pop	r8
    25dc:	7f 90       	pop	r7
    25de:	6f 90       	pop	r6
    25e0:	5f 90       	pop	r5
    25e2:	4f 90       	pop	r4
    25e4:	3f 90       	pop	r3
    25e6:	08 95       	ret

000025e8 <LCD_Font>:

void LCD_Font(unsigned int x, unsigned int y, const char *text, const GFXfont *p_font, unsigned char size, SSD1306_COLOR_t color) {
    25e8:	4f 92       	push	r4
    25ea:	5f 92       	push	r5
    25ec:	6f 92       	push	r6
    25ee:	7f 92       	push	r7
    25f0:	8f 92       	push	r8
    25f2:	9f 92       	push	r9
    25f4:	af 92       	push	r10
    25f6:	bf 92       	push	r11
    25f8:	cf 92       	push	r12
    25fa:	df 92       	push	r13
    25fc:	ef 92       	push	r14
    25fe:	ff 92       	push	r15
    2600:	0f 93       	push	r16
    2602:	1f 93       	push	r17
    2604:	cf 93       	push	r28
    2606:	df 93       	push	r29
    2608:	cd b7       	in	r28, 0x3d	; 61
    260a:	de b7       	in	r29, 0x3e	; 62
    260c:	2e 97       	sbiw	r28, 0x0e	; 14
    260e:	0f b6       	in	r0, 0x3f	; 63
    2610:	f8 94       	cli
    2612:	de bf       	out	0x3e, r29	; 62
    2614:	0f be       	out	0x3f, r0	; 63
    2616:	cd bf       	out	0x3d, r28	; 61
    2618:	c8 2e       	mov	r12, r24
    261a:	d9 2e       	mov	r13, r25
    261c:	5a 01       	movw	r10, r20
    261e:	10 2f       	mov	r17, r16
    2620:	4e 2c       	mov	r4, r14
	int cursor_x = x;
    2622:	58 2e       	mov	r5, r24
    2624:	f9 2e       	mov	r15, r25
	int cursor_y = y;
    2626:	66 2e       	mov	r6, r22
    2628:	77 2e       	mov	r7, r23
	GFXfont font;
	memcpy_P(&font, p_font, sizeof(GFXfont));
    262a:	47 e0       	ldi	r20, 0x07	; 7
    262c:	50 e0       	ldi	r21, 0x00	; 0
    262e:	b9 01       	movw	r22, r18
    2630:	ce 01       	movw	r24, r28
    2632:	01 96       	adiw	r24, 0x01	; 1
    2634:	0e 94 ca 15 	call	0x2b94	; 0x2b94 <memcpy_P>
		}
	}
}

void LCD_Font(unsigned int x, unsigned int y, const char *text, const GFXfont *p_font, unsigned char size, SSD1306_COLOR_t color) {
	int cursor_x = x;
    2638:	8c 2c       	mov	r8, r12
    263a:	9d 2c       	mov	r9, r13
	int cursor_y = y;
	GFXfont font;
	memcpy_P(&font, p_font, sizeof(GFXfont));
	for (unsigned int text_pos = 0; text_pos < strlen(text); text_pos++) {
    263c:	c1 2c       	mov	r12, r1
    263e:	d1 2c       	mov	r13, r1
    2640:	40 c0       	rjmp	.+128    	; 0x26c2 <LCD_Font+0xda>
		char c = text[text_pos];
    2642:	f5 01       	movw	r30, r10
    2644:	ec 0d       	add	r30, r12
    2646:	fd 1d       	adc	r31, r13
    2648:	80 81       	ld	r24, Z
		if (c == '\n') {
    264a:	8a 30       	cpi	r24, 0x0A	; 10
    264c:	41 f4       	brne	.+16     	; 0x265e <LCD_Font+0x76>
			cursor_x = x;
			cursor_y += font.yAdvance * size;
    264e:	8f 81       	ldd	r24, Y+7	; 0x07
    2650:	81 9f       	mul	r24, r17
    2652:	60 0c       	add	r6, r0
    2654:	71 1c       	adc	r7, r1
    2656:	11 24       	eor	r1, r1
	GFXfont font;
	memcpy_P(&font, p_font, sizeof(GFXfont));
	for (unsigned int text_pos = 0; text_pos < strlen(text); text_pos++) {
		char c = text[text_pos];
		if (c == '\n') {
			cursor_x = x;
    2658:	85 2c       	mov	r8, r5
    265a:	9f 2c       	mov	r9, r15
    265c:	2f c0       	rjmp	.+94     	; 0x26bc <LCD_Font+0xd4>
			cursor_y += font.yAdvance * size;
		}
		else if (c >= font.first && c <= font.last && c != '\r'){
    265e:	2d 81       	ldd	r18, Y+5	; 0x05
    2660:	82 17       	cp	r24, r18
    2662:	60 f1       	brcs	.+88     	; 0x26bc <LCD_Font+0xd4>
    2664:	9e 81       	ldd	r25, Y+6	; 0x06
    2666:	98 17       	cp	r25, r24
    2668:	48 f1       	brcs	.+82     	; 0x26bc <LCD_Font+0xd4>
    266a:	8d 30       	cpi	r24, 0x0D	; 13
    266c:	39 f1       	breq	.+78     	; 0x26bc <LCD_Font+0xd4>
			GFXglyph glyph;
			memcpy_P(&glyph, &font.glyph[c - font.first], sizeof(GFXglyph));
    266e:	4b 81       	ldd	r20, Y+3	; 0x03
    2670:	5c 81       	ldd	r21, Y+4	; 0x04
    2672:	90 e0       	ldi	r25, 0x00	; 0
    2674:	82 1b       	sub	r24, r18
    2676:	91 09       	sbc	r25, r1
    2678:	bc 01       	movw	r22, r24
    267a:	66 0f       	add	r22, r22
    267c:	77 1f       	adc	r23, r23
    267e:	66 0f       	add	r22, r22
    2680:	77 1f       	adc	r23, r23
    2682:	66 0f       	add	r22, r22
    2684:	77 1f       	adc	r23, r23
    2686:	68 1b       	sub	r22, r24
    2688:	79 0b       	sbc	r23, r25
    268a:	64 0f       	add	r22, r20
    268c:	75 1f       	adc	r23, r21
    268e:	47 e0       	ldi	r20, 0x07	; 7
    2690:	50 e0       	ldi	r21, 0x00	; 0
    2692:	ce 01       	movw	r24, r28
    2694:	08 96       	adiw	r24, 0x08	; 8
    2696:	0e 94 ca 15 	call	0x2b94	; 0x2b94 <memcpy_P>
			LCD_Char(cursor_x, cursor_y, &glyph, &font, size, color);
    269a:	e4 2c       	mov	r14, r4
    269c:	01 2f       	mov	r16, r17
    269e:	9e 01       	movw	r18, r28
    26a0:	2f 5f       	subi	r18, 0xFF	; 255
    26a2:	3f 4f       	sbci	r19, 0xFF	; 255
    26a4:	ae 01       	movw	r20, r28
    26a6:	48 5f       	subi	r20, 0xF8	; 248
    26a8:	5f 4f       	sbci	r21, 0xFF	; 255
    26aa:	b3 01       	movw	r22, r6
    26ac:	c4 01       	movw	r24, r8
    26ae:	0e 94 3e 12 	call	0x247c	; 0x247c <LCD_Char>
			cursor_x += glyph.xAdvance * size;
    26b2:	8c 85       	ldd	r24, Y+12	; 0x0c
    26b4:	81 9f       	mul	r24, r17
    26b6:	80 0c       	add	r8, r0
    26b8:	91 1c       	adc	r9, r1
    26ba:	11 24       	eor	r1, r1
void LCD_Font(unsigned int x, unsigned int y, const char *text, const GFXfont *p_font, unsigned char size, SSD1306_COLOR_t color) {
	int cursor_x = x;
	int cursor_y = y;
	GFXfont font;
	memcpy_P(&font, p_font, sizeof(GFXfont));
	for (unsigned int text_pos = 0; text_pos < strlen(text); text_pos++) {
    26bc:	8f ef       	ldi	r24, 0xFF	; 255
    26be:	c8 1a       	sub	r12, r24
    26c0:	d8 0a       	sbc	r13, r24
    26c2:	f5 01       	movw	r30, r10
    26c4:	01 90       	ld	r0, Z+
    26c6:	00 20       	and	r0, r0
    26c8:	e9 f7       	brne	.-6      	; 0x26c4 <LCD_Font+0xdc>
    26ca:	31 97       	sbiw	r30, 0x01	; 1
    26cc:	ea 19       	sub	r30, r10
    26ce:	fb 09       	sbc	r31, r11
    26d0:	ce 16       	cp	r12, r30
    26d2:	df 06       	cpc	r13, r31
    26d4:	08 f4       	brcc	.+2      	; 0x26d8 <LCD_Font+0xf0>
    26d6:	b5 cf       	rjmp	.-150    	; 0x2642 <LCD_Font+0x5a>
			memcpy_P(&glyph, &font.glyph[c - font.first], sizeof(GFXglyph));
			LCD_Char(cursor_x, cursor_y, &glyph, &font, size, color);
			cursor_x += glyph.xAdvance * size;
		}
	}
}
    26d8:	2e 96       	adiw	r28, 0x0e	; 14
    26da:	0f b6       	in	r0, 0x3f	; 63
    26dc:	f8 94       	cli
    26de:	de bf       	out	0x3e, r29	; 62
    26e0:	0f be       	out	0x3f, r0	; 63
    26e2:	cd bf       	out	0x3d, r28	; 61
    26e4:	df 91       	pop	r29
    26e6:	cf 91       	pop	r28
    26e8:	1f 91       	pop	r17
    26ea:	0f 91       	pop	r16
    26ec:	ff 90       	pop	r15
    26ee:	ef 90       	pop	r14
    26f0:	df 90       	pop	r13
    26f2:	cf 90       	pop	r12
    26f4:	bf 90       	pop	r11
    26f6:	af 90       	pop	r10
    26f8:	9f 90       	pop	r9
    26fa:	8f 90       	pop	r8
    26fc:	7f 90       	pop	r7
    26fe:	6f 90       	pop	r6
    2700:	5f 90       	pop	r5
    2702:	4f 90       	pop	r4
    2704:	08 95       	ret

00002706 <LCD_Battery>:
	SSD1306_Command(COMAND, 2*x & 0xf);
	SSD1306_Command(COMAND, 0x10 | (2*x >> 4));
}

void LCD_Battery(unsigned int y, unsigned int x, unsigned char z)
{
    2706:	cf 92       	push	r12
    2708:	df 92       	push	r13
    270a:	ef 92       	push	r14
    270c:	ff 92       	push	r15
    270e:	0f 93       	push	r16
    2710:	1f 93       	push	r17
    2712:	cf 93       	push	r28
    2714:	df 93       	push	r29
    2716:	d8 2e       	mov	r13, r24
    2718:	7b 01       	movw	r14, r22
    271a:	c4 2e       	mov	r12, r20
	unsigned char i = 0;

	LCD_Goto2X(x-1, y);
    271c:	eb 01       	movw	r28, r22
    271e:	21 97       	sbiw	r28, 0x01	; 1

unsigned char LCD_X, LCD_Y;

inline static void LCD_Goto2X(unsigned int x, unsigned int y)
{
	LCD_X = x;
    2720:	c0 93 1a 05 	sts	0x051A, r28	; 0x80051a <LCD_X>
	LCD_Y = y;
    2724:	d0 92 1b 05 	sts	0x051B, r13	; 0x80051b <LCD_Y>
	SSD1306_Command(COMAND, 0xB0 + y);
    2728:	00 eb       	ldi	r16, 0xB0	; 176
    272a:	0d 0d       	add	r16, r13
} SSD1306_t;

static SSD1306_t SSD1306;

inline static void SSD1306_Command(unsigned char reg, unsigned char data) {
	twi_start();
    272c:	0e 94 c2 14 	call	0x2984	; 0x2984 <twi_start>
	twi_addr_send(SSD1306_TWI_ADDRESS);
    2730:	8c e3       	ldi	r24, 0x3C	; 60
    2732:	0e 94 d8 14 	call	0x29b0	; 0x29b0 <twi_addr_send>
	twi_byte_send(reg);
    2736:	80 e0       	ldi	r24, 0x00	; 0
    2738:	0e 94 ce 14 	call	0x299c	; 0x299c <twi_byte_send>
	twi_byte_send(data);
    273c:	80 2f       	mov	r24, r16
    273e:	0e 94 ce 14 	call	0x299c	; 0x299c <twi_byte_send>
	twi_stop();
    2742:	0e 94 ca 14 	call	0x2994	; 0x2994 <twi_stop>
inline static void LCD_Goto2X(unsigned int x, unsigned int y)
{
	LCD_X = x;
	LCD_Y = y;
	SSD1306_Command(COMAND, 0xB0 + y);
	SSD1306_Command(COMAND, 2*x & 0xf);
    2746:	1c 2f       	mov	r17, r28
    2748:	11 0f       	add	r17, r17
    274a:	1e 70       	andi	r17, 0x0E	; 14
} SSD1306_t;

static SSD1306_t SSD1306;

inline static void SSD1306_Command(unsigned char reg, unsigned char data) {
	twi_start();
    274c:	0e 94 c2 14 	call	0x2984	; 0x2984 <twi_start>
	twi_addr_send(SSD1306_TWI_ADDRESS);
    2750:	8c e3       	ldi	r24, 0x3C	; 60
    2752:	0e 94 d8 14 	call	0x29b0	; 0x29b0 <twi_addr_send>
	twi_byte_send(reg);
    2756:	80 e0       	ldi	r24, 0x00	; 0
    2758:	0e 94 ce 14 	call	0x299c	; 0x299c <twi_byte_send>
	twi_byte_send(data);
    275c:	81 2f       	mov	r24, r17
    275e:	0e 94 ce 14 	call	0x299c	; 0x299c <twi_byte_send>
	twi_stop();
    2762:	0e 94 ca 14 	call	0x2994	; 0x2994 <twi_stop>
{
	LCD_X = x;
	LCD_Y = y;
	SSD1306_Command(COMAND, 0xB0 + y);
	SSD1306_Command(COMAND, 2*x & 0xf);
	SSD1306_Command(COMAND, 0x10 | (2*x >> 4));
    2766:	cc 0f       	add	r28, r28
    2768:	dd 1f       	adc	r29, r29
    276a:	d2 95       	swap	r29
    276c:	c2 95       	swap	r28
    276e:	cf 70       	andi	r28, 0x0F	; 15
    2770:	cd 27       	eor	r28, r29
    2772:	df 70       	andi	r29, 0x0F	; 15
    2774:	cd 27       	eor	r28, r29
    2776:	c0 61       	ori	r28, 0x10	; 16
} SSD1306_t;

static SSD1306_t SSD1306;

inline static void SSD1306_Command(unsigned char reg, unsigned char data) {
	twi_start();
    2778:	0e 94 c2 14 	call	0x2984	; 0x2984 <twi_start>
	twi_addr_send(SSD1306_TWI_ADDRESS);
    277c:	8c e3       	ldi	r24, 0x3C	; 60
    277e:	0e 94 d8 14 	call	0x29b0	; 0x29b0 <twi_addr_send>
	twi_byte_send(reg);
    2782:	80 e0       	ldi	r24, 0x00	; 0
    2784:	0e 94 ce 14 	call	0x299c	; 0x299c <twi_byte_send>
	twi_byte_send(data);
    2788:	8c 2f       	mov	r24, r28
    278a:	0e 94 ce 14 	call	0x299c	; 0x299c <twi_byte_send>
	twi_stop();
    278e:	0e 94 ca 14 	call	0x2994	; 0x2994 <twi_stop>
} SSD1306_t;

static SSD1306_t SSD1306;

inline static void SSD1306_Command(unsigned char reg, unsigned char data) {
	twi_start();
    2792:	0e 94 c2 14 	call	0x2984	; 0x2984 <twi_start>
	twi_addr_send(SSD1306_TWI_ADDRESS);
    2796:	8c e3       	ldi	r24, 0x3C	; 60
    2798:	0e 94 d8 14 	call	0x29b0	; 0x29b0 <twi_addr_send>
	twi_byte_send(reg);
    279c:	80 e4       	ldi	r24, 0x40	; 64
    279e:	0e 94 ce 14 	call	0x299c	; 0x299c <twi_byte_send>
	twi_byte_send(data);
    27a2:	8f ef       	ldi	r24, 0xFF	; 255
    27a4:	0e 94 ce 14 	call	0x299c	; 0x299c <twi_byte_send>
	twi_stop();
    27a8:	0e 94 ca 14 	call	0x2994	; 0x2994 <twi_stop>
} SSD1306_t;

static SSD1306_t SSD1306;

inline static void SSD1306_Command(unsigned char reg, unsigned char data) {
	twi_start();
    27ac:	0e 94 c2 14 	call	0x2984	; 0x2984 <twi_start>
	twi_addr_send(SSD1306_TWI_ADDRESS);
    27b0:	8c e3       	ldi	r24, 0x3C	; 60
    27b2:	0e 94 d8 14 	call	0x29b0	; 0x29b0 <twi_addr_send>
	twi_byte_send(reg);
    27b6:	80 e4       	ldi	r24, 0x40	; 64
    27b8:	0e 94 ce 14 	call	0x299c	; 0x299c <twi_byte_send>
	twi_byte_send(data);
    27bc:	8f ef       	ldi	r24, 0xFF	; 255
    27be:	0e 94 ce 14 	call	0x299c	; 0x299c <twi_byte_send>
	twi_stop();
    27c2:	0e 94 ca 14 	call	0x2994	; 0x2994 <twi_stop>
{
	unsigned char i = 0;

	LCD_Goto2X(x-1, y);
	SSD1306_Command(DATA, 0xFF); SSD1306_Command(DATA, 0xFF);
	LCD_Goto2X(x + 2, y);
    27c6:	e7 01       	movw	r28, r14
    27c8:	22 96       	adiw	r28, 0x02	; 2

unsigned char LCD_X, LCD_Y;

inline static void LCD_Goto2X(unsigned int x, unsigned int y)
{
	LCD_X = x;
    27ca:	c0 93 1a 05 	sts	0x051A, r28	; 0x80051a <LCD_X>
	LCD_Y = y;
    27ce:	d0 92 1b 05 	sts	0x051B, r13	; 0x80051b <LCD_Y>
} SSD1306_t;

static SSD1306_t SSD1306;

inline static void SSD1306_Command(unsigned char reg, unsigned char data) {
	twi_start();
    27d2:	0e 94 c2 14 	call	0x2984	; 0x2984 <twi_start>
	twi_addr_send(SSD1306_TWI_ADDRESS);
    27d6:	8c e3       	ldi	r24, 0x3C	; 60
    27d8:	0e 94 d8 14 	call	0x29b0	; 0x29b0 <twi_addr_send>
	twi_byte_send(reg);
    27dc:	80 e0       	ldi	r24, 0x00	; 0
    27de:	0e 94 ce 14 	call	0x299c	; 0x299c <twi_byte_send>
	twi_byte_send(data);
    27e2:	80 2f       	mov	r24, r16
    27e4:	0e 94 ce 14 	call	0x299c	; 0x299c <twi_byte_send>
	twi_stop();
    27e8:	0e 94 ca 14 	call	0x2994	; 0x2994 <twi_stop>
inline static void LCD_Goto2X(unsigned int x, unsigned int y)
{
	LCD_X = x;
	LCD_Y = y;
	SSD1306_Command(COMAND, 0xB0 + y);
	SSD1306_Command(COMAND, 2*x & 0xf);
    27ec:	1c 2f       	mov	r17, r28
    27ee:	11 0f       	add	r17, r17
    27f0:	1e 70       	andi	r17, 0x0E	; 14
} SSD1306_t;

static SSD1306_t SSD1306;

inline static void SSD1306_Command(unsigned char reg, unsigned char data) {
	twi_start();
    27f2:	0e 94 c2 14 	call	0x2984	; 0x2984 <twi_start>
	twi_addr_send(SSD1306_TWI_ADDRESS);
    27f6:	8c e3       	ldi	r24, 0x3C	; 60
    27f8:	0e 94 d8 14 	call	0x29b0	; 0x29b0 <twi_addr_send>
	twi_byte_send(reg);
    27fc:	80 e0       	ldi	r24, 0x00	; 0
    27fe:	0e 94 ce 14 	call	0x299c	; 0x299c <twi_byte_send>
	twi_byte_send(data);
    2802:	81 2f       	mov	r24, r17
    2804:	0e 94 ce 14 	call	0x299c	; 0x299c <twi_byte_send>
	twi_stop();
    2808:	0e 94 ca 14 	call	0x2994	; 0x2994 <twi_stop>
{
	LCD_X = x;
	LCD_Y = y;
	SSD1306_Command(COMAND, 0xB0 + y);
	SSD1306_Command(COMAND, 2*x & 0xf);
	SSD1306_Command(COMAND, 0x10 | (2*x >> 4));
    280c:	cc 0f       	add	r28, r28
    280e:	dd 1f       	adc	r29, r29
    2810:	d2 95       	swap	r29
    2812:	c2 95       	swap	r28
    2814:	cf 70       	andi	r28, 0x0F	; 15
    2816:	cd 27       	eor	r28, r29
    2818:	df 70       	andi	r29, 0x0F	; 15
    281a:	cd 27       	eor	r28, r29
    281c:	c0 61       	ori	r28, 0x10	; 16
} SSD1306_t;

static SSD1306_t SSD1306;

inline static void SSD1306_Command(unsigned char reg, unsigned char data) {
	twi_start();
    281e:	0e 94 c2 14 	call	0x2984	; 0x2984 <twi_start>
	twi_addr_send(SSD1306_TWI_ADDRESS);
    2822:	8c e3       	ldi	r24, 0x3C	; 60
    2824:	0e 94 d8 14 	call	0x29b0	; 0x29b0 <twi_addr_send>
	twi_byte_send(reg);
    2828:	80 e0       	ldi	r24, 0x00	; 0
    282a:	0e 94 ce 14 	call	0x299c	; 0x299c <twi_byte_send>
	twi_byte_send(data);
    282e:	8c 2f       	mov	r24, r28
    2830:	0e 94 ce 14 	call	0x299c	; 0x299c <twi_byte_send>
	twi_stop();
    2834:	0e 94 ca 14 	call	0x2994	; 0x2994 <twi_stop>
	unsigned char i = 0;

	LCD_Goto2X(x-1, y);
	SSD1306_Command(DATA, 0xFF); SSD1306_Command(DATA, 0xFF);
	LCD_Goto2X(x + 2, y);
	for (i = 0; i < 14; i++) {
    2838:	10 e0       	ldi	r17, 0x00	; 0
    283a:	86 c0       	rjmp	.+268    	; 0x2948 <LCD_Battery+0x242>
		if(i < 11) {
    283c:	1b 30       	cpi	r17, 0x0B	; 11
    283e:	50 f5       	brcc	.+84     	; 0x2894 <LCD_Battery+0x18e>
			if(z >= i) SSD1306_Command(DATA, 0xBD);
    2840:	c1 16       	cp	r12, r17
    2842:	70 f0       	brcs	.+28     	; 0x2860 <LCD_Battery+0x15a>
} SSD1306_t;

static SSD1306_t SSD1306;

inline static void SSD1306_Command(unsigned char reg, unsigned char data) {
	twi_start();
    2844:	0e 94 c2 14 	call	0x2984	; 0x2984 <twi_start>
	twi_addr_send(SSD1306_TWI_ADDRESS);
    2848:	8c e3       	ldi	r24, 0x3C	; 60
    284a:	0e 94 d8 14 	call	0x29b0	; 0x29b0 <twi_addr_send>
	twi_byte_send(reg);
    284e:	80 e4       	ldi	r24, 0x40	; 64
    2850:	0e 94 ce 14 	call	0x299c	; 0x299c <twi_byte_send>
	twi_byte_send(data);
    2854:	8d eb       	ldi	r24, 0xBD	; 189
    2856:	0e 94 ce 14 	call	0x299c	; 0x299c <twi_byte_send>
	twi_stop();
    285a:	0e 94 ca 14 	call	0x2994	; 0x2994 <twi_stop>
    285e:	1a c0       	rjmp	.+52     	; 0x2894 <LCD_Battery+0x18e>
} SSD1306_t;

static SSD1306_t SSD1306;

inline static void SSD1306_Command(unsigned char reg, unsigned char data) {
	twi_start();
    2860:	0e 94 c2 14 	call	0x2984	; 0x2984 <twi_start>
	twi_addr_send(SSD1306_TWI_ADDRESS);
    2864:	8c e3       	ldi	r24, 0x3C	; 60
    2866:	0e 94 d8 14 	call	0x29b0	; 0x29b0 <twi_addr_send>
	twi_byte_send(reg);
    286a:	80 e4       	ldi	r24, 0x40	; 64
    286c:	0e 94 ce 14 	call	0x299c	; 0x299c <twi_byte_send>
	twi_byte_send(data);
    2870:	81 e8       	ldi	r24, 0x81	; 129
    2872:	0e 94 ce 14 	call	0x299c	; 0x299c <twi_byte_send>
	twi_stop();
    2876:	0e 94 ca 14 	call	0x2994	; 0x2994 <twi_stop>
} SSD1306_t;

static SSD1306_t SSD1306;

inline static void SSD1306_Command(unsigned char reg, unsigned char data) {
	twi_start();
    287a:	0e 94 c2 14 	call	0x2984	; 0x2984 <twi_start>
	twi_addr_send(SSD1306_TWI_ADDRESS);
    287e:	8c e3       	ldi	r24, 0x3C	; 60
    2880:	0e 94 d8 14 	call	0x29b0	; 0x29b0 <twi_addr_send>
	twi_byte_send(reg);
    2884:	80 e4       	ldi	r24, 0x40	; 64
    2886:	0e 94 ce 14 	call	0x299c	; 0x299c <twi_byte_send>
	twi_byte_send(data);
    288a:	81 e8       	ldi	r24, 0x81	; 129
    288c:	0e 94 ce 14 	call	0x299c	; 0x299c <twi_byte_send>
	twi_stop();
    2890:	0e 94 ca 14 	call	0x2994	; 0x2994 <twi_stop>
	for (i = 0; i < 14; i++) {
		if(i < 11) {
			if(z >= i) SSD1306_Command(DATA, 0xBD);
			else { SSD1306_Command(DATA, 0x81); SSD1306_Command(DATA, 0x81); }
		}
		if (i == 11) { SSD1306_Command(DATA, 0xFF); SSD1306_Command(DATA, 0xFF); }
    2894:	1b 30       	cpi	r17, 0x0B	; 11
    2896:	41 f4       	brne	.+16     	; 0x28a8 <LCD_Battery+0x1a2>
    2898:	6f ef       	ldi	r22, 0xFF	; 255
    289a:	80 e4       	ldi	r24, 0x40	; 64
    289c:	0e 94 4a 0e 	call	0x1c94	; 0x1c94 <SSD1306_Command>
    28a0:	6f ef       	ldi	r22, 0xFF	; 255
    28a2:	80 e4       	ldi	r24, 0x40	; 64
    28a4:	0e 94 4a 0e 	call	0x1c94	; 0x1c94 <SSD1306_Command>
		if (i == 12) { SSD1306_Command(DATA, 0x3C); SSD1306_Command(DATA, 0x3C); }
    28a8:	1c 30       	cpi	r17, 0x0C	; 12
    28aa:	41 f4       	brne	.+16     	; 0x28bc <LCD_Battery+0x1b6>
    28ac:	6c e3       	ldi	r22, 0x3C	; 60
    28ae:	80 e4       	ldi	r24, 0x40	; 64
    28b0:	0e 94 4a 0e 	call	0x1c94	; 0x1c94 <SSD1306_Command>
    28b4:	6c e3       	ldi	r22, 0x3C	; 60
    28b6:	80 e4       	ldi	r24, 0x40	; 64
    28b8:	0e 94 4a 0e 	call	0x1c94	; 0x1c94 <SSD1306_Command>
		if (i == 13) { SSD1306_Command(DATA, 0x3C); SSD1306_Command(DATA, 0x3C); }
    28bc:	1d 30       	cpi	r17, 0x0D	; 13
    28be:	41 f4       	brne	.+16     	; 0x28d0 <LCD_Battery+0x1ca>
    28c0:	6c e3       	ldi	r22, 0x3C	; 60
    28c2:	80 e4       	ldi	r24, 0x40	; 64
    28c4:	0e 94 4a 0e 	call	0x1c94	; 0x1c94 <SSD1306_Command>
    28c8:	6c e3       	ldi	r22, 0x3C	; 60
    28ca:	80 e4       	ldi	r24, 0x40	; 64
    28cc:	0e 94 4a 0e 	call	0x1c94	; 0x1c94 <SSD1306_Command>
		LCD_Goto2X(x + i, y);
    28d0:	e7 01       	movw	r28, r14
    28d2:	c1 0f       	add	r28, r17
    28d4:	d1 1d       	adc	r29, r1

unsigned char LCD_X, LCD_Y;

inline static void LCD_Goto2X(unsigned int x, unsigned int y)
{
	LCD_X = x;
    28d6:	c0 93 1a 05 	sts	0x051A, r28	; 0x80051a <LCD_X>
	LCD_Y = y;
    28da:	d0 92 1b 05 	sts	0x051B, r13	; 0x80051b <LCD_Y>
} SSD1306_t;

static SSD1306_t SSD1306;

inline static void SSD1306_Command(unsigned char reg, unsigned char data) {
	twi_start();
    28de:	0e 94 c2 14 	call	0x2984	; 0x2984 <twi_start>
	twi_addr_send(SSD1306_TWI_ADDRESS);
    28e2:	8c e3       	ldi	r24, 0x3C	; 60
    28e4:	0e 94 d8 14 	call	0x29b0	; 0x29b0 <twi_addr_send>
	twi_byte_send(reg);
    28e8:	80 e0       	ldi	r24, 0x00	; 0
    28ea:	0e 94 ce 14 	call	0x299c	; 0x299c <twi_byte_send>
	twi_byte_send(data);
    28ee:	80 eb       	ldi	r24, 0xB0	; 176
    28f0:	8d 0d       	add	r24, r13
    28f2:	0e 94 ce 14 	call	0x299c	; 0x299c <twi_byte_send>
	twi_stop();
    28f6:	0e 94 ca 14 	call	0x2994	; 0x2994 <twi_stop>
inline static void LCD_Goto2X(unsigned int x, unsigned int y)
{
	LCD_X = x;
	LCD_Y = y;
	SSD1306_Command(COMAND, 0xB0 + y);
	SSD1306_Command(COMAND, 2*x & 0xf);
    28fa:	0c 2f       	mov	r16, r28
    28fc:	00 0f       	add	r16, r16
    28fe:	0e 70       	andi	r16, 0x0E	; 14
} SSD1306_t;

static SSD1306_t SSD1306;

inline static void SSD1306_Command(unsigned char reg, unsigned char data) {
	twi_start();
    2900:	0e 94 c2 14 	call	0x2984	; 0x2984 <twi_start>
	twi_addr_send(SSD1306_TWI_ADDRESS);
    2904:	8c e3       	ldi	r24, 0x3C	; 60
    2906:	0e 94 d8 14 	call	0x29b0	; 0x29b0 <twi_addr_send>
	twi_byte_send(reg);
    290a:	80 e0       	ldi	r24, 0x00	; 0
    290c:	0e 94 ce 14 	call	0x299c	; 0x299c <twi_byte_send>
	twi_byte_send(data);
    2910:	80 2f       	mov	r24, r16
    2912:	0e 94 ce 14 	call	0x299c	; 0x299c <twi_byte_send>
	twi_stop();
    2916:	0e 94 ca 14 	call	0x2994	; 0x2994 <twi_stop>
{
	LCD_X = x;
	LCD_Y = y;
	SSD1306_Command(COMAND, 0xB0 + y);
	SSD1306_Command(COMAND, 2*x & 0xf);
	SSD1306_Command(COMAND, 0x10 | (2*x >> 4));
    291a:	cc 0f       	add	r28, r28
    291c:	dd 1f       	adc	r29, r29
    291e:	d2 95       	swap	r29
    2920:	c2 95       	swap	r28
    2922:	cf 70       	andi	r28, 0x0F	; 15
    2924:	cd 27       	eor	r28, r29
    2926:	df 70       	andi	r29, 0x0F	; 15
    2928:	cd 27       	eor	r28, r29
    292a:	c0 61       	ori	r28, 0x10	; 16
} SSD1306_t;

static SSD1306_t SSD1306;

inline static void SSD1306_Command(unsigned char reg, unsigned char data) {
	twi_start();
    292c:	0e 94 c2 14 	call	0x2984	; 0x2984 <twi_start>
	twi_addr_send(SSD1306_TWI_ADDRESS);
    2930:	8c e3       	ldi	r24, 0x3C	; 60
    2932:	0e 94 d8 14 	call	0x29b0	; 0x29b0 <twi_addr_send>
	twi_byte_send(reg);
    2936:	80 e0       	ldi	r24, 0x00	; 0
    2938:	0e 94 ce 14 	call	0x299c	; 0x299c <twi_byte_send>
	twi_byte_send(data);
    293c:	8c 2f       	mov	r24, r28
    293e:	0e 94 ce 14 	call	0x299c	; 0x299c <twi_byte_send>
	twi_stop();
    2942:	0e 94 ca 14 	call	0x2994	; 0x2994 <twi_stop>
	unsigned char i = 0;

	LCD_Goto2X(x-1, y);
	SSD1306_Command(DATA, 0xFF); SSD1306_Command(DATA, 0xFF);
	LCD_Goto2X(x + 2, y);
	for (i = 0; i < 14; i++) {
    2946:	1f 5f       	subi	r17, 0xFF	; 255
    2948:	1e 30       	cpi	r17, 0x0E	; 14
    294a:	08 f4       	brcc	.+2      	; 0x294e <LCD_Battery+0x248>
    294c:	77 cf       	rjmp	.-274    	; 0x283c <LCD_Battery+0x136>
		if (i == 11) { SSD1306_Command(DATA, 0xFF); SSD1306_Command(DATA, 0xFF); }
		if (i == 12) { SSD1306_Command(DATA, 0x3C); SSD1306_Command(DATA, 0x3C); }
		if (i == 13) { SSD1306_Command(DATA, 0x3C); SSD1306_Command(DATA, 0x3C); }
		LCD_Goto2X(x + i, y);
	}
}
    294e:	df 91       	pop	r29
    2950:	cf 91       	pop	r28
    2952:	1f 91       	pop	r17
    2954:	0f 91       	pop	r16
    2956:	ff 90       	pop	r15
    2958:	ef 90       	pop	r14
    295a:	df 90       	pop	r13
    295c:	cf 90       	pop	r12
    295e:	08 95       	ret

00002960 <__vector_24>:

unsigned char twi_byte_read_last(void) {
	TWCR = (1 << TWINT) | (1 << TWEN);
	while (!(TWCR & (1 << TWINT)));
	return TWDR;
}
    2960:	1f 92       	push	r1
    2962:	0f 92       	push	r0
    2964:	0f b6       	in	r0, 0x3f	; 63
    2966:	0f 92       	push	r0
    2968:	11 24       	eor	r1, r1
    296a:	0f 90       	pop	r0
    296c:	0f be       	out	0x3f, r0	; 63
    296e:	0f 90       	pop	r0
    2970:	1f 90       	pop	r1
    2972:	18 95       	reti

00002974 <twi_init>:
    2974:	78 94       	sei
    2976:	8c e0       	ldi	r24, 0x0C	; 12
    2978:	80 93 b8 00 	sts	0x00B8, r24	; 0x8000b8 <__TEXT_REGION_LENGTH__+0x7f80b8>
    297c:	85 e0       	ldi	r24, 0x05	; 5
    297e:	80 93 bc 00 	sts	0x00BC, r24	; 0x8000bc <__TEXT_REGION_LENGTH__+0x7f80bc>
    2982:	08 95       	ret

00002984 <twi_start>:
    2984:	84 ea       	ldi	r24, 0xA4	; 164
    2986:	80 93 bc 00 	sts	0x00BC, r24	; 0x8000bc <__TEXT_REGION_LENGTH__+0x7f80bc>
    298a:	80 91 bc 00 	lds	r24, 0x00BC	; 0x8000bc <__TEXT_REGION_LENGTH__+0x7f80bc>
    298e:	88 23       	and	r24, r24
    2990:	e4 f7       	brge	.-8      	; 0x298a <twi_start+0x6>
    2992:	08 95       	ret

00002994 <twi_stop>:
    2994:	85 e9       	ldi	r24, 0x95	; 149
    2996:	80 93 bc 00 	sts	0x00BC, r24	; 0x8000bc <__TEXT_REGION_LENGTH__+0x7f80bc>
    299a:	08 95       	ret

0000299c <twi_byte_send>:

void twi_byte_send(unsigned char data) {
	TWDR = data;
    299c:	80 93 bb 00 	sts	0x00BB, r24	; 0x8000bb <__TEXT_REGION_LENGTH__+0x7f80bb>
	TWCR = (1 << TWINT) | (1 << TWEN);
    29a0:	84 e8       	ldi	r24, 0x84	; 132
    29a2:	80 93 bc 00 	sts	0x00BC, r24	; 0x8000bc <__TEXT_REGION_LENGTH__+0x7f80bc>
	while (!(TWCR & (1 << TWINT))) { };
    29a6:	80 91 bc 00 	lds	r24, 0x00BC	; 0x8000bc <__TEXT_REGION_LENGTH__+0x7f80bc>
    29aa:	88 23       	and	r24, r24
    29ac:	e4 f7       	brge	.-8      	; 0x29a6 <twi_byte_send+0xa>
}
    29ae:	08 95       	ret

000029b0 <twi_addr_send>:

void twi_addr_send(unsigned char addr) {
	TWDR = (addr << 1) | 0;
    29b0:	88 0f       	add	r24, r24
    29b2:	80 93 bb 00 	sts	0x00BB, r24	; 0x8000bb <__TEXT_REGION_LENGTH__+0x7f80bb>
	TWCR = (1 << TWINT) | (1 << TWEN);
    29b6:	84 e8       	ldi	r24, 0x84	; 132
    29b8:	80 93 bc 00 	sts	0x00BC, r24	; 0x8000bc <__TEXT_REGION_LENGTH__+0x7f80bc>
	while (!(TWCR & (1 << TWINT))) { };
    29bc:	80 91 bc 00 	lds	r24, 0x00BC	; 0x8000bc <__TEXT_REGION_LENGTH__+0x7f80bc>
    29c0:	88 23       	and	r24, r24
    29c2:	e4 f7       	brge	.-8      	; 0x29bc <twi_addr_send+0xc>
}
    29c4:	08 95       	ret

000029c6 <__subsf3>:
    29c6:	50 58       	subi	r21, 0x80	; 128

000029c8 <__addsf3>:
    29c8:	bb 27       	eor	r27, r27
    29ca:	aa 27       	eor	r26, r26
    29cc:	0e 94 fb 14 	call	0x29f6	; 0x29f6 <__addsf3x>
    29d0:	0c 94 67 15 	jmp	0x2ace	; 0x2ace <__fp_round>
    29d4:	0e 94 59 15 	call	0x2ab2	; 0x2ab2 <__fp_pscA>
    29d8:	38 f0       	brcs	.+14     	; 0x29e8 <__addsf3+0x20>
    29da:	0e 94 60 15 	call	0x2ac0	; 0x2ac0 <__fp_pscB>
    29de:	20 f0       	brcs	.+8      	; 0x29e8 <__addsf3+0x20>
    29e0:	39 f4       	brne	.+14     	; 0x29f0 <__addsf3+0x28>
    29e2:	9f 3f       	cpi	r25, 0xFF	; 255
    29e4:	19 f4       	brne	.+6      	; 0x29ec <__addsf3+0x24>
    29e6:	26 f4       	brtc	.+8      	; 0x29f0 <__addsf3+0x28>
    29e8:	0c 94 56 15 	jmp	0x2aac	; 0x2aac <__fp_nan>
    29ec:	0e f4       	brtc	.+2      	; 0x29f0 <__addsf3+0x28>
    29ee:	e0 95       	com	r30
    29f0:	e7 fb       	bst	r30, 7
    29f2:	0c 94 50 15 	jmp	0x2aa0	; 0x2aa0 <__fp_inf>

000029f6 <__addsf3x>:
    29f6:	e9 2f       	mov	r30, r25
    29f8:	0e 94 78 15 	call	0x2af0	; 0x2af0 <__fp_split3>
    29fc:	58 f3       	brcs	.-42     	; 0x29d4 <__addsf3+0xc>
    29fe:	ba 17       	cp	r27, r26
    2a00:	62 07       	cpc	r22, r18
    2a02:	73 07       	cpc	r23, r19
    2a04:	84 07       	cpc	r24, r20
    2a06:	95 07       	cpc	r25, r21
    2a08:	20 f0       	brcs	.+8      	; 0x2a12 <__addsf3x+0x1c>
    2a0a:	79 f4       	brne	.+30     	; 0x2a2a <__addsf3x+0x34>
    2a0c:	a6 f5       	brtc	.+104    	; 0x2a76 <__addsf3x+0x80>
    2a0e:	0c 94 9a 15 	jmp	0x2b34	; 0x2b34 <__fp_zero>
    2a12:	0e f4       	brtc	.+2      	; 0x2a16 <__addsf3x+0x20>
    2a14:	e0 95       	com	r30
    2a16:	0b 2e       	mov	r0, r27
    2a18:	ba 2f       	mov	r27, r26
    2a1a:	a0 2d       	mov	r26, r0
    2a1c:	0b 01       	movw	r0, r22
    2a1e:	b9 01       	movw	r22, r18
    2a20:	90 01       	movw	r18, r0
    2a22:	0c 01       	movw	r0, r24
    2a24:	ca 01       	movw	r24, r20
    2a26:	a0 01       	movw	r20, r0
    2a28:	11 24       	eor	r1, r1
    2a2a:	ff 27       	eor	r31, r31
    2a2c:	59 1b       	sub	r21, r25
    2a2e:	99 f0       	breq	.+38     	; 0x2a56 <__addsf3x+0x60>
    2a30:	59 3f       	cpi	r21, 0xF9	; 249
    2a32:	50 f4       	brcc	.+20     	; 0x2a48 <__addsf3x+0x52>
    2a34:	50 3e       	cpi	r21, 0xE0	; 224
    2a36:	68 f1       	brcs	.+90     	; 0x2a92 <__addsf3x+0x9c>
    2a38:	1a 16       	cp	r1, r26
    2a3a:	f0 40       	sbci	r31, 0x00	; 0
    2a3c:	a2 2f       	mov	r26, r18
    2a3e:	23 2f       	mov	r18, r19
    2a40:	34 2f       	mov	r19, r20
    2a42:	44 27       	eor	r20, r20
    2a44:	58 5f       	subi	r21, 0xF8	; 248
    2a46:	f3 cf       	rjmp	.-26     	; 0x2a2e <__addsf3x+0x38>
    2a48:	46 95       	lsr	r20
    2a4a:	37 95       	ror	r19
    2a4c:	27 95       	ror	r18
    2a4e:	a7 95       	ror	r26
    2a50:	f0 40       	sbci	r31, 0x00	; 0
    2a52:	53 95       	inc	r21
    2a54:	c9 f7       	brne	.-14     	; 0x2a48 <__addsf3x+0x52>
    2a56:	7e f4       	brtc	.+30     	; 0x2a76 <__addsf3x+0x80>
    2a58:	1f 16       	cp	r1, r31
    2a5a:	ba 0b       	sbc	r27, r26
    2a5c:	62 0b       	sbc	r22, r18
    2a5e:	73 0b       	sbc	r23, r19
    2a60:	84 0b       	sbc	r24, r20
    2a62:	ba f0       	brmi	.+46     	; 0x2a92 <__addsf3x+0x9c>
    2a64:	91 50       	subi	r25, 0x01	; 1
    2a66:	a1 f0       	breq	.+40     	; 0x2a90 <__addsf3x+0x9a>
    2a68:	ff 0f       	add	r31, r31
    2a6a:	bb 1f       	adc	r27, r27
    2a6c:	66 1f       	adc	r22, r22
    2a6e:	77 1f       	adc	r23, r23
    2a70:	88 1f       	adc	r24, r24
    2a72:	c2 f7       	brpl	.-16     	; 0x2a64 <__addsf3x+0x6e>
    2a74:	0e c0       	rjmp	.+28     	; 0x2a92 <__addsf3x+0x9c>
    2a76:	ba 0f       	add	r27, r26
    2a78:	62 1f       	adc	r22, r18
    2a7a:	73 1f       	adc	r23, r19
    2a7c:	84 1f       	adc	r24, r20
    2a7e:	48 f4       	brcc	.+18     	; 0x2a92 <__addsf3x+0x9c>
    2a80:	87 95       	ror	r24
    2a82:	77 95       	ror	r23
    2a84:	67 95       	ror	r22
    2a86:	b7 95       	ror	r27
    2a88:	f7 95       	ror	r31
    2a8a:	9e 3f       	cpi	r25, 0xFE	; 254
    2a8c:	08 f0       	brcs	.+2      	; 0x2a90 <__addsf3x+0x9a>
    2a8e:	b0 cf       	rjmp	.-160    	; 0x29f0 <__addsf3+0x28>
    2a90:	93 95       	inc	r25
    2a92:	88 0f       	add	r24, r24
    2a94:	08 f0       	brcs	.+2      	; 0x2a98 <__addsf3x+0xa2>
    2a96:	99 27       	eor	r25, r25
    2a98:	ee 0f       	add	r30, r30
    2a9a:	97 95       	ror	r25
    2a9c:	87 95       	ror	r24
    2a9e:	08 95       	ret

00002aa0 <__fp_inf>:
    2aa0:	97 f9       	bld	r25, 7
    2aa2:	9f 67       	ori	r25, 0x7F	; 127
    2aa4:	80 e8       	ldi	r24, 0x80	; 128
    2aa6:	70 e0       	ldi	r23, 0x00	; 0
    2aa8:	60 e0       	ldi	r22, 0x00	; 0
    2aaa:	08 95       	ret

00002aac <__fp_nan>:
    2aac:	9f ef       	ldi	r25, 0xFF	; 255
    2aae:	80 ec       	ldi	r24, 0xC0	; 192
    2ab0:	08 95       	ret

00002ab2 <__fp_pscA>:
    2ab2:	00 24       	eor	r0, r0
    2ab4:	0a 94       	dec	r0
    2ab6:	16 16       	cp	r1, r22
    2ab8:	17 06       	cpc	r1, r23
    2aba:	18 06       	cpc	r1, r24
    2abc:	09 06       	cpc	r0, r25
    2abe:	08 95       	ret

00002ac0 <__fp_pscB>:
    2ac0:	00 24       	eor	r0, r0
    2ac2:	0a 94       	dec	r0
    2ac4:	12 16       	cp	r1, r18
    2ac6:	13 06       	cpc	r1, r19
    2ac8:	14 06       	cpc	r1, r20
    2aca:	05 06       	cpc	r0, r21
    2acc:	08 95       	ret

00002ace <__fp_round>:
    2ace:	09 2e       	mov	r0, r25
    2ad0:	03 94       	inc	r0
    2ad2:	00 0c       	add	r0, r0
    2ad4:	11 f4       	brne	.+4      	; 0x2ada <__fp_round+0xc>
    2ad6:	88 23       	and	r24, r24
    2ad8:	52 f0       	brmi	.+20     	; 0x2aee <__fp_round+0x20>
    2ada:	bb 0f       	add	r27, r27
    2adc:	40 f4       	brcc	.+16     	; 0x2aee <__fp_round+0x20>
    2ade:	bf 2b       	or	r27, r31
    2ae0:	11 f4       	brne	.+4      	; 0x2ae6 <__fp_round+0x18>
    2ae2:	60 ff       	sbrs	r22, 0
    2ae4:	04 c0       	rjmp	.+8      	; 0x2aee <__fp_round+0x20>
    2ae6:	6f 5f       	subi	r22, 0xFF	; 255
    2ae8:	7f 4f       	sbci	r23, 0xFF	; 255
    2aea:	8f 4f       	sbci	r24, 0xFF	; 255
    2aec:	9f 4f       	sbci	r25, 0xFF	; 255
    2aee:	08 95       	ret

00002af0 <__fp_split3>:
    2af0:	57 fd       	sbrc	r21, 7
    2af2:	90 58       	subi	r25, 0x80	; 128
    2af4:	44 0f       	add	r20, r20
    2af6:	55 1f       	adc	r21, r21
    2af8:	59 f0       	breq	.+22     	; 0x2b10 <__fp_splitA+0x10>
    2afa:	5f 3f       	cpi	r21, 0xFF	; 255
    2afc:	71 f0       	breq	.+28     	; 0x2b1a <__fp_splitA+0x1a>
    2afe:	47 95       	ror	r20

00002b00 <__fp_splitA>:
    2b00:	88 0f       	add	r24, r24
    2b02:	97 fb       	bst	r25, 7
    2b04:	99 1f       	adc	r25, r25
    2b06:	61 f0       	breq	.+24     	; 0x2b20 <__fp_splitA+0x20>
    2b08:	9f 3f       	cpi	r25, 0xFF	; 255
    2b0a:	79 f0       	breq	.+30     	; 0x2b2a <__fp_splitA+0x2a>
    2b0c:	87 95       	ror	r24
    2b0e:	08 95       	ret
    2b10:	12 16       	cp	r1, r18
    2b12:	13 06       	cpc	r1, r19
    2b14:	14 06       	cpc	r1, r20
    2b16:	55 1f       	adc	r21, r21
    2b18:	f2 cf       	rjmp	.-28     	; 0x2afe <__fp_split3+0xe>
    2b1a:	46 95       	lsr	r20
    2b1c:	f1 df       	rcall	.-30     	; 0x2b00 <__fp_splitA>
    2b1e:	08 c0       	rjmp	.+16     	; 0x2b30 <__fp_splitA+0x30>
    2b20:	16 16       	cp	r1, r22
    2b22:	17 06       	cpc	r1, r23
    2b24:	18 06       	cpc	r1, r24
    2b26:	99 1f       	adc	r25, r25
    2b28:	f1 cf       	rjmp	.-30     	; 0x2b0c <__fp_splitA+0xc>
    2b2a:	86 95       	lsr	r24
    2b2c:	71 05       	cpc	r23, r1
    2b2e:	61 05       	cpc	r22, r1
    2b30:	08 94       	sec
    2b32:	08 95       	ret

00002b34 <__fp_zero>:
    2b34:	e8 94       	clt

00002b36 <__fp_szero>:
    2b36:	bb 27       	eor	r27, r27
    2b38:	66 27       	eor	r22, r22
    2b3a:	77 27       	eor	r23, r23
    2b3c:	cb 01       	movw	r24, r22
    2b3e:	97 f9       	bld	r25, 7
    2b40:	08 95       	ret

00002b42 <__gesf2>:
    2b42:	0e 94 a6 15 	call	0x2b4c	; 0x2b4c <__fp_cmp>
    2b46:	08 f4       	brcc	.+2      	; 0x2b4a <__gesf2+0x8>
    2b48:	8f ef       	ldi	r24, 0xFF	; 255
    2b4a:	08 95       	ret

00002b4c <__fp_cmp>:
    2b4c:	99 0f       	add	r25, r25
    2b4e:	00 08       	sbc	r0, r0
    2b50:	55 0f       	add	r21, r21
    2b52:	aa 0b       	sbc	r26, r26
    2b54:	e0 e8       	ldi	r30, 0x80	; 128
    2b56:	fe ef       	ldi	r31, 0xFE	; 254
    2b58:	16 16       	cp	r1, r22
    2b5a:	17 06       	cpc	r1, r23
    2b5c:	e8 07       	cpc	r30, r24
    2b5e:	f9 07       	cpc	r31, r25
    2b60:	c0 f0       	brcs	.+48     	; 0x2b92 <__fp_cmp+0x46>
    2b62:	12 16       	cp	r1, r18
    2b64:	13 06       	cpc	r1, r19
    2b66:	e4 07       	cpc	r30, r20
    2b68:	f5 07       	cpc	r31, r21
    2b6a:	98 f0       	brcs	.+38     	; 0x2b92 <__fp_cmp+0x46>
    2b6c:	62 1b       	sub	r22, r18
    2b6e:	73 0b       	sbc	r23, r19
    2b70:	84 0b       	sbc	r24, r20
    2b72:	95 0b       	sbc	r25, r21
    2b74:	39 f4       	brne	.+14     	; 0x2b84 <__fp_cmp+0x38>
    2b76:	0a 26       	eor	r0, r26
    2b78:	61 f0       	breq	.+24     	; 0x2b92 <__fp_cmp+0x46>
    2b7a:	23 2b       	or	r18, r19
    2b7c:	24 2b       	or	r18, r20
    2b7e:	25 2b       	or	r18, r21
    2b80:	21 f4       	brne	.+8      	; 0x2b8a <__fp_cmp+0x3e>
    2b82:	08 95       	ret
    2b84:	0a 26       	eor	r0, r26
    2b86:	09 f4       	brne	.+2      	; 0x2b8a <__fp_cmp+0x3e>
    2b88:	a1 40       	sbci	r26, 0x01	; 1
    2b8a:	a6 95       	lsr	r26
    2b8c:	8f ef       	ldi	r24, 0xFF	; 255
    2b8e:	81 1d       	adc	r24, r1
    2b90:	81 1d       	adc	r24, r1
    2b92:	08 95       	ret

00002b94 <memcpy_P>:
    2b94:	fb 01       	movw	r30, r22
    2b96:	dc 01       	movw	r26, r24
    2b98:	02 c0       	rjmp	.+4      	; 0x2b9e <memcpy_P+0xa>
    2b9a:	05 90       	lpm	r0, Z+
    2b9c:	0d 92       	st	X+, r0
    2b9e:	41 50       	subi	r20, 0x01	; 1
    2ba0:	50 40       	sbci	r21, 0x00	; 0
    2ba2:	d8 f7       	brcc	.-10     	; 0x2b9a <memcpy_P+0x6>
    2ba4:	08 95       	ret

00002ba6 <memset>:
    2ba6:	dc 01       	movw	r26, r24
    2ba8:	01 c0       	rjmp	.+2      	; 0x2bac <memset+0x6>
    2baa:	6d 93       	st	X+, r22
    2bac:	41 50       	subi	r20, 0x01	; 1
    2bae:	50 40       	sbci	r21, 0x00	; 0
    2bb0:	e0 f7       	brcc	.-8      	; 0x2baa <memset+0x4>
    2bb2:	08 95       	ret

00002bb4 <_exit>:
    2bb4:	f8 94       	cli

00002bb6 <__stop_program>:
    2bb6:	ff cf       	rjmp	.-2      	; 0x2bb6 <__stop_program>
