
SSD1331_AVR.elf:     file format elf32-avr

Sections:
Idx Name          Size      VMA       LMA       File off  Algn
  0 .data         00000016  00800100  0000208e  00002102  2**0
                  CONTENTS, ALLOC, LOAD, DATA
  1 .text         0000208e  00000000  00000000  00000074  2**1
                  CONTENTS, ALLOC, LOAD, READONLY, CODE
  2 .comment      00000030  00000000  00000000  00002118  2**0
                  CONTENTS, READONLY
  3 .note.gnu.avr.deviceinfo 00000040  00000000  00000000  00002148  2**2
                  CONTENTS, READONLY
  4 .debug_aranges 000000f8  00000000  00000000  00002188  2**0
                  CONTENTS, READONLY, DEBUGGING
  5 .debug_info   00005a87  00000000  00000000  00002280  2**0
                  CONTENTS, READONLY, DEBUGGING
  6 .debug_abbrev 00000a59  00000000  00000000  00007d07  2**0
                  CONTENTS, READONLY, DEBUGGING
  7 .debug_line   000020ce  00000000  00000000  00008760  2**0
                  CONTENTS, READONLY, DEBUGGING
  8 .debug_frame  0000066c  00000000  00000000  0000a830  2**2
                  CONTENTS, READONLY, DEBUGGING
  9 .debug_str    0000235a  00000000  00000000  0000ae9c  2**0
                  CONTENTS, READONLY, DEBUGGING
 10 .debug_loc    000039e7  00000000  00000000  0000d1f6  2**0
                  CONTENTS, READONLY, DEBUGGING
 11 .debug_ranges 00000180  00000000  00000000  00010bdd  2**0
                  CONTENTS, READONLY, DEBUGGING

Disassembly of section .text:

00000000 <__vectors>:
       0:	0c 94 35 0a 	jmp	0x146a	; 0x146a <__ctors_end>
       4:	0c 94 4a 0a 	jmp	0x1494	; 0x1494 <__bad_interrupt>
       8:	0c 94 4a 0a 	jmp	0x1494	; 0x1494 <__bad_interrupt>
       c:	0c 94 4a 0a 	jmp	0x1494	; 0x1494 <__bad_interrupt>
      10:	0c 94 4a 0a 	jmp	0x1494	; 0x1494 <__bad_interrupt>
      14:	0c 94 4a 0a 	jmp	0x1494	; 0x1494 <__bad_interrupt>
      18:	0c 94 4a 0a 	jmp	0x1494	; 0x1494 <__bad_interrupt>
      1c:	0c 94 4a 0a 	jmp	0x1494	; 0x1494 <__bad_interrupt>
      20:	0c 94 4a 0a 	jmp	0x1494	; 0x1494 <__bad_interrupt>
      24:	0c 94 4a 0a 	jmp	0x1494	; 0x1494 <__bad_interrupt>
      28:	0c 94 4a 0a 	jmp	0x1494	; 0x1494 <__bad_interrupt>
      2c:	0c 94 4a 0a 	jmp	0x1494	; 0x1494 <__bad_interrupt>
      30:	0c 94 4a 0a 	jmp	0x1494	; 0x1494 <__bad_interrupt>
      34:	0c 94 4a 0a 	jmp	0x1494	; 0x1494 <__bad_interrupt>
      38:	0c 94 4a 0a 	jmp	0x1494	; 0x1494 <__bad_interrupt>
      3c:	0c 94 4a 0a 	jmp	0x1494	; 0x1494 <__bad_interrupt>
      40:	0c 94 4a 0a 	jmp	0x1494	; 0x1494 <__bad_interrupt>
      44:	0c 94 4a 0a 	jmp	0x1494	; 0x1494 <__bad_interrupt>
      48:	0c 94 4a 0a 	jmp	0x1494	; 0x1494 <__bad_interrupt>
      4c:	0c 94 4a 0a 	jmp	0x1494	; 0x1494 <__bad_interrupt>
      50:	0c 94 4a 0a 	jmp	0x1494	; 0x1494 <__bad_interrupt>
      54:	0c 94 4a 0a 	jmp	0x1494	; 0x1494 <__bad_interrupt>
      58:	0c 94 4a 0a 	jmp	0x1494	; 0x1494 <__bad_interrupt>
      5c:	0c 94 4a 0a 	jmp	0x1494	; 0x1494 <__bad_interrupt>
      60:	0c 94 4a 0a 	jmp	0x1494	; 0x1494 <__bad_interrupt>
      64:	0c 94 4a 0a 	jmp	0x1494	; 0x1494 <__bad_interrupt>

00000068 <Font_12_Mono>:
      68:	08 03 6f 00 20 7e 18                                ..o. ~.

0000006f <Font_12_MonoGlyphs>:
      6f:	00 00 00 00 0e 00 01 00 00 03 0f 0e 06 f2 06 00     ................
      7f:	08 07 0e 03 f2 0d 00 0a 10 0e 02 f2 21 00 0a 11     ............!...
      8f:	0e 02 f2 37 00 0a 0f 0e 02 f2 4a 00 09 0c 0e 03     ...7......J.....
      9f:	f5 58 00 03 07 0e 05 f2 5b 00 03 12 0e 07 f2 62     .X......[......b
      af:	00 03 12 0e 04 f2 69 00 09 09 0e 03 f2 74 00 09     ......i......t..
      bf:	0b 0e 03 f5 81 00 05 07 0e 03 fd 86 00 0b 01 0e     ................
      cf:	02 fa 88 00 03 03 0e 05 fe 8a 00 09 12 0e 03 f1     ................
      df:	9f 00 09 0f 0e 03 f2 b0 00 07 0e 0e 04 f3 bd 00     ................
      ef:	09 0f 0e 02 f2 ce 00 0a 0f 0e 02 f2 e1 00 08 0f     ................
      ff:	0e 03 f2 f0 00 09 0f 0e 03 f2 01 01 09 0f 0e 03     ................
     10f:	f2 12 01 08 0f 0e 03 f2 21 01 09 0f 0e 03 f2 32     ........!......2
     11f:	01 09 0f 0e 03 f2 43 01 03 0a 0e 05 f7 47 01 05     ......C......G..
     12f:	0d 0e 03 f7 50 01 0b 0b 0e 02 f5 60 01 0c 04 0e     ....P......`....
     13f:	01 f8 66 01 0b 0b 0e 02 f5 76 01 09 0e 0e 03 f3     ..f......v......
     14f:	86 01 09 10 0e 03 f2 98 01 0e 0e 0e 00 f3 b1 01     ................
     15f:	0b 0e 0e 02 f3 c5 01 0a 0e 0e 02 f3 d7 01 0a 0e     ................
     16f:	0e 02 f3 e9 01 0b 0e 0e 02 f3 fd 01 0b 0e 0e 02     ................
     17f:	f3 11 02 0b 0e 0e 02 f3 25 02 0a 0e 0e 02 f3 37     ........%......7
     18f:	02 07 0e 0e 04 f3 44 02 0b 0e 0e 02 f3 58 02 0c     ......D......X..
     19f:	0e 0e 02 f3 6d 02 0b 0e 0e 02 f3 81 02 0d 0e 0e     ....m...........
     1af:	01 f3 98 02 0c 0e 0e 01 f3 ad 02 0c 0e 0e 01 f3     ................
     1bf:	c2 02 0a 0e 0e 02 f3 d4 02 0c 11 0e 01 f3 ee 02     ................
     1cf:	0c 0e 0e 02 f3 03 03 0a 0e 0e 02 f3 15 03 0b 0e     ................
     1df:	0e 02 f3 29 03 0c 0e 0e 01 f3 3e 03 0e 0e 0e 00     ...)......>.....
     1ef:	f3 57 03 0e 0e 0e 00 f3 70 03 0c 0e 0e 01 f3 85     .W......p.......
     1ff:	03 0c 0e 0e 01 f3 9a 03 09 0e 0e 03 f3 aa 03 03     ................
     20f:	12 0e 07 f2 b1 03 09 12 0e 03 f1 c6 03 03 12 0e     ................
     21f:	05 f2 cd 03 09 06 0e 03 f2 d4 03 0e 01 0e 00 03     ................
     22f:	d6 03 04 04 0e 04 f1 d8 03 0a 0a 0e 02 f7 e5 03     ................
     23f:	0d 0f 0e 00 f2 fe 03 0b 0a 0e 02 f7 0c 04 0b 0f     ................
     24f:	0e 02 f2 21 04 0a 0a 0e 02 f7 2e 04 09 0f 0e 04     ...!............
     25f:	f2 3f 04 0b 0e 0e 02 f7 53 04 0a 0f 0e 02 f2 66     .?......S......f
     26f:	04 09 0f 0e 03 f2 77 04 07 13 0e 03 f2 88 04 0c     ......w.........
     27f:	0f 0e 01 f2 9f 04 09 0f 0e 03 f2 b0 04 0d 0a 0e     ................
     28f:	01 f7 c1 04 0c 0a 0e 01 f7 d0 04 0b 0a 0e 02 f7     ................
     29f:	de 04 0c 0e 0e 01 f7 f3 04 0b 0e 0e 02 f7 07 05     ................
     2af:	0a 0a 0e 03 f7 14 05 0a 0a 0e 02 f7 21 05 0b 0e     ............!...
     2bf:	0e 01 f3 35 05 0b 0a 0e 02 f7 43 05 0d 0a 0e 01     ...5......C.....
     2cf:	f7 54 05 0d 0a 0e 01 f7 65 05 0c 0a 0e 01 f7 74     .T......e......t
     2df:	05 0c 0e 0e 01 f7 89 05 09 0a 0e 03 f7 95 05 05     ................
     2ef:	12 0e 05 f2 a1 05 01 12 0e 07 f2 a4 05 05 12 0e     ................
     2ff:	05 f2 b0 05 0a 03 0e 02 f9                          .........

00000308 <Font_12_MonoBitmaps>:
     308:	49 24 92 48 01 f8 e7 e7 67 42 42 42 42 09 02 41     I$.H....gBBBB..A
     318:	10 44 11 1f f1 10 4c 12 3f e1 20 48 12 04 81 20     .D....L.?. H... 
     328:	48 04 07 a2 19 02 40 10 03 00 3c 00 80 10 06 01     H.....@...<.....
     338:	e0 a7 c0 40 10 04 00 3c 19 84 21 08 66 0f 00 0c     ...@...<..!.f...
     348:	1c 78 01 e0 cc 21 08 43 30 78 3e 30 10 08 02 03     .x...!.C0x>0....
     358:	03 47 14 8a 43 11 8f 60 fd a4 90 05 25 24 92 48     .G..C..`....%$.H
     368:	92 24 11 24 89 24 92 92 90 00 04 02 11 07 f0 c0     .$.$.$..........
     378:	50 48 42 00 08 04 02 01 00 87 fc 20 10 08 04 02     PHB........ ....
     388:	00 3b 9c ce 62 00 ff e0 ff 80 00 80 c0 40 20 20     .;..b........@  
     398:	10 10 08 08 04 04 02 02 01 01 00 80 80 40 00 1c     .............@..
     3a8:	31 90 58 38 0c 06 03 01 80 c0 60 30 34 13 18 70     1.X8......`04..p
     3b8:	30 e1 44 81 02 04 08 10 20 40 81 1f c0 1e 10 90     0.D..... @......
     3c8:	68 10 08 0c 04 04 04 06 06 06 06 0e 07 fe 3e 10     h.............>.
     3d8:	40 08 02 00 80 40 e0 04 00 80 10 04 01 00 d8 63     @....@.........c
     3e8:	e0 06 0a 0a 12 22 22 42 42 82 82 ff 02 02 02 0f     .....""BB.......
     3f8:	7f 20 10 08 04 02 f1 8c 03 00 80 40 20 18 16 18     . .........@ ...
     408:	f0 0f 8c 08 08 04 04 02 79 46 c1 e0 60 28 14 19     ........yF..`(..
     418:	08 78 ff 81 81 02 02 02 02 04 04 04 04 08 08 08     .x..............
     428:	08 3e 31 b0 70 18 0c 05 8c 38 63 40 60 30 18 1b     .>1.p....8c@`0..
     438:	18 f8 3c 31 30 50 28 0c 0f 06 85 3c 80 40 40 20     ..<10P(....<.@@ 
     448:	20 63 e0 ff 80 07 fc 39 ce 00 00 06 33 98 c4 00      c.....9....3...
     458:	00 c0 60 18 0c 06 01 80 0c 00 60 03 00 30 01 00     ..`.......`..0..
     468:	ff f0 00 00 0f ff c0 06 00 30 01 80 18 01 80 c0     .........0......
     478:	30 18 0c 02 00 00 3e 60 a0 20 10 08 08 18 10 08     0.....>`. ......
     488:	00 00 00 01 c0 e0 1c 31 10 50 28 14 3a 25 22 91     .......1.P(.:%".
     498:	4c a3 f0 08 02 01 80 7c 3f 00 0c 00 48 01 20 04     L......|?...H. .
     4a8:	40 21 00 84 04 08 1f e0 40 82 01 08 04 20 13 e1     @!......@.... ..
     4b8:	f0 ff 08 11 01 20 24 04 81 1f c2 06 40 68 05 00     ..... $.....@h..
     4c8:	a0 14 05 ff 00 1e 48 74 05 01 80 20 08 02 00 80     ......Ht... ....
     4d8:	20 04 01 01 30 87 c0 fe 10 44 09 02 40 50 14 05      ...0....D..@P..
     4e8:	01 40 50 14 0d 02 41 3f 80 ff c8 09 01 20 04 00     .@P...A?..... ..
     4f8:	88 1f 02 20 40 08 01 00 a0 14 03 ff c0 ff e8 05     ... @...........
     508:	00 a0 04 00 88 1f 02 20 40 08 01 00 20 04 01 f0     ....... @... ...
     518:	00 1f 46 19 01 60 28 01 00 20 04 00 83 f0 0b 01     ..F..`(.. ......
     528:	20 23 0c 3e 00 e1 d0 24 09 02 40 90 27 f9 02 40      #.>...$..@.'..@
     538:	90 24 09 02 40 b8 70 fe 20 40 81 02 04 08 10 20     .$..@.p. @..... 
     548:	40 81 1f c0 0f e0 10 02 00 40 08 01 00 20 04 80     @........@... ..
     558:	90 12 02 40 c6 30 7c 00 f1 e4 0c 41 04 20 44 04     ...@.0|....A. D.
     568:	80 5c 06 60 43 04 10 40 84 08 40 cf 07 f8 04 00     .\.`C..@..@.....
     578:	80 10 02 00 40 08 01 00 20 04 04 80 90 12 03 ff     ....@... .......
     588:	c0 e0 3b 01 94 14 a0 a4 89 24 49 14 48 a2 45 12     ..;......$I.H.E.
     598:	10 90 04 80 24 01 78 3c e0 f6 02 50 25 02 48 24     ....$.x<...P%.H$
     5a8:	c2 44 24 22 43 24 12 40 a4 0a 40 6f 06 0f 03 0c     .D$"C$.@..@o....
     5b8:	60 64 02 80 18 01 80 18 01 80 18 01 40 26 06 30     `d..........@&.0
     5c8:	c0 f0 ff 10 64 05 01 40 50 34 19 fc 40 10 04 01     ....d..@P4..@...
     5d8:	00 40 3e 00 0f 03 0c 60 64 02 80 18 01 80 18 01     .@>....`d.......
     5e8:	80 18 01 40 26 06 30 c1 f0 0c 01 f1 30 e0 ff 04     ...@&.0.....0...
     5f8:	18 40 c4 04 40 44 0c 41 87 e0 43 04 10 40 84 04     .@..@D.A..C..@..
     608:	40 4f 03 1f 48 34 05 01 40 08 01 c0 0e 00 40 18     @O..H4..@.....@.
     618:	06 01 e1 a7 c0 ff f0 86 10 82 00 40 08 01 00 20     ...........@... 
     628:	04 00 80 10 02 00 40 7f 00 f0 f4 02 40 24 02 40     ......@.....@$.@
     638:	24 02 40 24 02 40 24 02 40 22 04 30 c0 f0 f8 7c     $.@$.@$.@".0...|
     648:	80 22 01 04 04 10 20 40 80 82 02 10 08 40 11 00     .".... @.....@..
     658:	48 01 a0 03 00 0c 00 f8 7c 80 22 00 88 c2 23 10     H.......|."...#.
     668:	8e 42 29 09 24 24 90 91 41 85 06 14 18 70 60 80     .B).$$..A....p`.
     678:	f0 f2 06 30 41 08 09 80 50 06 00 60 0d 00 88 10     ...0A...P..`....
     688:	c2 04 60 2f 0f f0 f2 02 10 41 04 08 80 50 05 00     ..`/.....A...P..
     698:	20 02 00 20 02 00 20 02 01 fc ff 40 a0 90 40 40      .. .. ....@..@@
     6a8:	40 20 20 20 10 50 30 18 0f fc f2 49 24 92 49 24     @   .P0....I$.I$
     6b8:	9c 80 60 10 08 02 01 00 40 20 08 04 01 00 80 20     ..`.....@ ..... 
     6c8:	10 04 02 00 80 40 e4 92 49 24 92 49 3c 08 0c 09     .....@..I$.I<...
     6d8:	0c 4c 14 04 ff fc 84 21 3e 00 60 08 02 3f 98 28     .L.....!>.`..?.(
     6e8:	0a 02 c3 9f 30 e0 01 00 08 00 40 02 00 13 e0 a0     ....0.....@.....
     6f8:	86 02 20 09 00 48 02 40 13 01 14 1b 9f 00 1f 4c     .. ..H.@.......L
     708:	19 01 40 28 01 00 20 02 00 60 43 f0 00 c0 08 01     ..@(.. ..`C.....
     718:	00 20 04 3c 98 52 06 80 50 0a 01 40 24 0c c2 87     . .<.R..P..@$...
     728:	98 3f 18 68 06 01 ff e0 08 03 00 60 c7 c0 0f 98     .?.h.......`....
     738:	08 04 02 07 f8 80 40 20 10 08 04 02 01 03 f8 1e     ......@ ........
     748:	6c 39 03 40 28 05 00 a0 12 06 61 43 c8 01 00 20     l9.@(.....aC... 
     758:	08 3e 00 c0 10 04 01 00 40 13 87 11 82 40 90 24     .>......@....@.$
     768:	09 02 40 90 2e 1c 08 04 02 00 00 03 c0 20 10 08     ..@.......... ..
     778:	04 02 01 00 80 43 fe 04 08 10 00 1f c0 81 02 04     .....C..........
     788:	08 10 20 40 81 02 0b e0 e0 02 00 20 02 00 20 02     .. @....... .. .
     798:	3c 21 02 60 2c 03 80 24 02 20 21 02 08 e1 f0 78     <!.`,..$. !....x
     7a8:	04 02 01 00 80 40 20 10 08 04 02 01 00 80 43 fe     .....@ .......C.
     7b8:	dc e3 19 90 84 84 24 21 21 09 08 48 42 42 17 18     ......$!!..HBB..
     7c8:	c0 67 83 84 20 22 02 20 22 02 20 22 02 20 2f 07     .g.. ". ". ". /.
     7d8:	1f 04 11 01 40 18 03 00 60 0a 02 20 83 e0 cf 85     ....@...`.. ....
     7e8:	06 60 24 01 40 14 01 40 16 02 50 44 f8 40 04 00     .`$.@..@..PD.@..
     7f8:	40 0f 00 1e 6c 3b 03 40 28 05 00 a0 12 06 61 43     @...l;.@(.....aC
     808:	c8 01 00 20 04 03 c0 e3 8b 13 80 80 20 08 02 00     ... ........ ...
     818:	80 20 3f 80 1f 58 34 05 80 1e 00 60 06 01 c0 af     . ?..X4....`....
     828:	c0 20 04 00 80 10 0f f0 40 08 01 00 20 04 00 80     . ......@... ...
     838:	10 03 04 3f 00 c1 c8 09 01 20 24 04 80 90 12 02     ...?..... $.....
     848:	61 c7 cc f8 f9 01 08 10 60 81 08 08 40 22 01 20     a.......`...@". 
     858:	05 00 30 00 f0 7a 01 10 08 8c 42 62 12 90 a5 05     ..0..z....Bb....
     868:	18 28 c0 86 00 78 f3 04 18 80 d0 06 00 70 09 81     .(...x.......p..
     878:	0c 20 6f 8f f0 f2 02 20 41 04 10 80 88 09 00 50     . o.... A......P
     888:	06 00 20 04 00 40 08 0f e0 ff 41 00 80 80 80 80     .. ..@....A.....
     898:	80 80 40 bf c0 19 08 42 10 84 64 18 42 10 84 20     ..@....B..d.B.. 
     8a8:	c0 ff ff c0 c1 08 42 10 84 10 4c 42 10 84 26 00     ......B...LB..&.
     8b8:	38 13 38 38                                         8.88

000008bc <Font_9_Mono>:
     8bc:	5c 0b c3 08 20 7e 12                                \... ~.

000008c3 <Font_9_MonoGlyphs>:
     8c3:	00 00 00 00 0b 00 01 00 00 02 0b 0b 04 f6 03 00     ................
     8d3:	06 05 0b 02 f6 07 00 07 0c 0b 02 f6 12 00 08 0c     ................
     8e3:	0b 01 f6 1e 00 07 0b 0b 02 f6 28 00 07 0a 0b 02     ..........(.....
     8f3:	f7 31 00 03 05 0b 04 f6 33 00 02 0d 0b 05 f6 37     .1......3......7
     903:	00 02 0d 0b 04 f6 3b 00 07 07 0b 02 f6 42 00 07     ......;......B..
     913:	07 0b 02 f8 49 00 03 05 0b 02 ff 4b 00 09 01 0b     ....I......K....
     923:	01 fb 4d 00 02 02 0b 04 ff 4e 00 07 0d 0b 02 f5     ..M......N......
     933:	5a 00 07 0b 0b 02 f6 64 00 05 0b 0b 03 f6 6b 00     Z......d......k.
     943:	07 0b 0b 02 f6 75 00 08 0b 0b 01 f6 80 00 06 0b     .....u..........
     953:	0b 03 f6 89 00 07 0b 0b 02 f6 93 00 07 0b 0b 02     ................
     963:	f6 9d 00 07 0b 0b 02 f6 a7 00 07 0b 0b 02 f6 b1     ................
     973:	00 07 0b 0b 02 f6 bb 00 02 08 0b 04 f9 bd 00 03     ................
     983:	0b 0b 03 f9 c2 00 08 08 0b 01 f8 ca 00 09 04 0b     ................
     993:	01 fa cf 00 09 08 0b 01 f8 d8 00 07 0a 0b 02 f7     ................
     9a3:	e1 00 08 0c 0b 02 f6 ed 00 0b 0a 0b 00 f7 fb 00     ................
     9b3:	09 0a 0b 01 f7 07 01 09 0a 0b 01 f7 13 01 09 0a     ................
     9c3:	0b 01 f7 1f 01 09 0a 0b 01 f7 2b 01 09 0a 0b 01     ..........+.....
     9d3:	f7 37 01 0a 0a 0b 01 f7 44 01 09 0a 0b 01 f7 50     .7......D......P
     9e3:	01 05 0a 0b 03 f7 57 01 08 0a 0b 02 f7 61 01 09     ......W......a..
     9f3:	0a 0b 01 f7 6d 01 08 0a 0b 02 f7 77 01 0b 0a 0b     ....m......w....
     a03:	00 f7 85 01 09 0a 0b 01 f7 91 01 09 0a 0b 01 f7     ................
     a13:	9d 01 08 0a 0b 01 f7 a7 01 09 0d 0b 01 f7 b6 01     ................
     a23:	09 0a 0b 01 f7 c2 01 07 0a 0b 02 f7 cb 01 09 0a     ................
     a33:	0b 01 f7 d7 01 09 0a 0b 01 f7 e3 01 0b 0a 0b 00     ................
     a43:	f7 f1 01 0b 0a 0b 00 f7 ff 01 09 0a 0b 01 f7 0b     ................
     a53:	02 09 0a 0b 01 f7 17 02 07 0a 0b 02 f7 20 02 02     ............. ..
     a63:	0d 0b 05 f6 24 02 07 0d 0b 02 f5 30 02 02 0d 0b     ....$......0....
     a73:	04 f6 34 02 07 05 0b 02 f6 39 02 0b 01 0b 00 02     ..4......9......
     a83:	3b 02 03 03 0b 03 f5 3d 02 09 08 0b 01 f9 46 02     ;......=......F.
     a93:	09 0b 0b 01 f6 53 02 07 08 0b 02 f9 5a 02 09 0b     .....S......Z...
     aa3:	0b 01 f6 67 02 08 08 0b 01 f9 6f 02 06 0b 0b 03     ...g......o.....
     ab3:	f6 78 02 09 0b 0b 01 f9 85 02 09 0b 0b 01 f6 92     .x..............
     ac3:	02 07 0a 0b 02 f7 9b 02 05 0d 0b 03 f7 a4 02 08     ................
     ad3:	0b 0b 02 f6 af 02 07 0b 0b 02 f6 b9 02 09 08 0b     ................
     ae3:	01 f9 c2 02 09 08 0b 01 f9 cb 02 09 08 0b 01 f9     ................
     af3:	d4 02 09 0b 0b 01 f9 e1 02 09 0b 0b 01 f9 ee 02     ................
     b03:	07 08 0b 03 f9 f5 02 07 08 0b 02 f9 fc 02 08 0a     ................
     b13:	0b 02 f7 06 03 08 08 0b 01 f9 0e 03 09 08 0b 01     ................
     b23:	f9 17 03 09 08 0b 01 f9 20 03 09 08 0b 01 f9 29     ........ ......)
     b33:	03 09 0b 0b 01 f9 36 03 07 08 0b 02 f9 3d 03 03     ......6......=..
     b43:	0d 0b 04 f6 42 03 01 0d 0b 05 f6 44 03 03 0d 0b     ....B......D....
     b53:	04 f6 49 03 07 03 0b 02 fa                          ..I......

00000b5c <Font_9_MonoBitmaps>:
     b5c:	aa a8 0c ed 24 92 48 24 48 91 2f e4 89 7f 28 51     ....$.H$H./...(Q
     b6c:	22 40 08 3e 62 40 30 0e 01 81 c3 be 08 08 71 12     "@.>b@0.......q.
     b7c:	23 80 23 b8 0e 22 44 70 38 81 02 06 1a 65 46 c8     #.#.."Dp8....eF.
     b8c:	ec e9 24 5a aa a9 40 a9 55 5a 80 10 22 4b e3 05     ..$Z..@.UZ.."K..
     b9c:	11 00 10 20 47 f1 02 04 00 6b 48 ff 00 f0 02 08     ... G....kH.....
     bac:	10 60 81 04 08 20 41 02 08 00 38 8a 0c 18 30 60     .`... A...8...0`
     bbc:	c1 82 88 e0 27 28 42 10 84 21 3e 38 8a 08 10 20     ....'(B..!>8... 
     bcc:	82 08 61 03 f8 7c 06 02 02 1c 06 01 01 01 42 3c     ..a..|........B<
     bdc:	18 a2 92 8a 28 bf 08 21 c0 7c 81 03 e4 40 40 81     ....(..!.|...@@.
     bec:	03 88 e0 1e 41 04 0b 98 b0 c1 c2 88 e0 fe 04 08     ....A...........
     bfc:	20 40 82 04 08 20 40 38 8a 0c 14 47 11 41 83 8c      @... @8...G.A..
     c0c:	e0 38 8a 1c 18 68 ce 81 04 13 c0 f0 0f 6c 00 d2     .8...h.......l..
     c1c:	d2 00 03 04 18 60 60 18 04 03 ff 80 00 1f f0 40     .....``........@
     c2c:	18 03 00 60 20 60 c0 80 3d 84 08 30 c2 00 00 00     ...` `..=..0....
     c3c:	30 3c 46 82 8e b2 a2 a2 9f 80 80 40 3c 3c 01 40     0<F........@<<.@
     c4c:	28 09 01 10 42 0f c1 04 40 9e 3c fe 21 90 48 67     (...B...@.<.!.Hg
     c5c:	e2 09 02 81 41 ff 80 3e b0 f0 30 08 04 02 00 80     ....A..>..0.....
     c6c:	60 8f 80 fe 21 90 68 14 0a 05 02 83 43 7f 00 ff     `...!.h.....C...
     c7c:	20 90 08 87 c2 21 00 81 40 ff c0 ff a0 50 08 87      ....!..@....P..
     c8c:	c2 21 00 80 40 78 00 1e 98 6c 0a 00 80 20 f8 0b     .!..@x...l... ..
     c9c:	02 60 87 c0 e3 a0 90 48 27 f2 09 04 82 41 71 c0     .`.....H'....Aq.
     cac:	f9 08 42 10 84 27 c0 1f 02 02 02 02 02 82 82 c6     ..B..'..........
     cbc:	78 e3 a1 11 09 05 83 21 08 84 41 70 c0 e0 40 40     x......!..Ap..@@
     ccc:	40 40 40 41 41 41 ff e0 ec 19 45 28 a4 a4 94 91     @@@AAA....E(....
     cdc:	12 02 40 5c 1c c3 b0 94 4a 24 92 49 14 8a 43 70     ..@\....J$.I..Cp
     cec:	80 1e 31 90 50 18 0c 06 02 82 63 0f 00 fe 43 41     ..1.P.....c...CA
     cfc:	41 42 7c 40 40 40 f0 1c 31 90 50 18 0c 06 02 82     AB|@@@..1.P.....
     d0c:	63 1f 04 07 92 30 fe 21 90 48 24 23 e1 10 84 41     c....0.!.H$#...A
     d1c:	70 c0 3a cd 0a 03 01 80 c1 c7 78 ff c4 62 21 00     p.:.......x..b!.
     d2c:	80 40 20 10 08 1f 00 e3 a0 90 48 24 12 09 04 82     .@ .......H$....
     d3c:	22 0e 00 f1 e8 10 82 10 42 10 22 04 80 50 0c 00     ".......B."..P..
     d4c:	80 f1 e8 09 11 25 44 a8 55 0c a1 8c 31 84 30 e3     .....%D.U...1.0.
     d5c:	a0 88 82 80 80 c0 90 44 41 71 c0 e3 a0 88 82 81     .......DAq......
     d6c:	40 40 20 10 08 1f 00 fd 0a 20 81 04 10 21 83 fc     @@ ...... ...!..
     d7c:	ea aa aa c0 80 81 03 02 04 04 08 08 10 10 20 20     ..............  
     d8c:	d5 55 55 c0 10 51 22 28 20 ff e0 88 80 7e 00 80     .UU..Q"( ....~..
     d9c:	47 ec 14 0a 0c fb c0 20 10 0b c6 12 05 02 81 40     G...... .......@
     dac:	b0 b7 80 3a 8e 0c 08 10 10 9e 03 00 80 47 a4 34     ...:.........G.4
     dbc:	0a 05 02 81 21 8f 60 3c 43 81 ff 80 80 61 3e 3d     ....!.`<C....a>=
     dcc:	04 3e 41 04 10 41 0f 80 3d a1 a0 50 28 14 09 0c     .>A..A..=..P(...
     ddc:	7a 01 01 87 80 c0 20 10 0b c6 32 09 04 82 41 20     z..... ...2...A 
     dec:	b8 e0 10 01 c0 81 02 04 08 11 fc 10 3e 10 84 21     ............>..!
     dfc:	08 42 3f 00 c0 40 40 4f 44 58 70 48 44 42 c7 70     .B?..@@ODXpHDB.p
     e0c:	20 40 81 02 04 08 10 23 f8 b7 64 62 31 18 8c 46      @.....#..db1..F
     e1c:	23 91 5e 31 90 48 24 12 09 05 c7 3e 31 a0 30 18     #.^1.H$....>1.0.
     e2c:	0c 05 8c 7c de 30 90 28 14 0a 05 84 bc 40 20 38     ...|.0.(.....@ 8
     e3c:	00 3d a1 a0 50 28 14 09 0c 7a 01 00 80 e0 ce a1     .=..P(...z......
     e4c:	82 04 08 10 7c 3a 8d 0b 80 f0 70 de 40 40 fc 40     ....|:....p.@@.@
     e5c:	40 40 40 40 41 3e c3 41 41 41 41 41 43 3d e3 a0     @@@@A>.AAAAAC=..
     e6c:	90 84 42 20 a0 50 10 e3 c0 92 4b 25 92 a9 98 44     ..B .P....K%...D
     e7c:	e3 31 05 01 01 41 11 05 c7 e3 a0 90 84 42 40 a0     .1...A.......B@.
     e8c:	60 10 10 08 3e 00 fd 08 20 82 08 10 bf 29 24 a2     `...>... ....)$.
     e9c:	49 26 ff f8 89 24 8a 49 2c 61 24 30                 I&...$.I,a$0

00000ea8 <Font_8_Retro>:
     ea8:	48 11 af 0e 20 7e 10                                H... ~.

00000eaf <Font_8_RetroGlyphs>:
     eaf:	00 00 00 00 08 00 00 00 00 01 0e 08 03 f1 02 00     ................
     ebf:	04 06 08 02 f1 05 00 06 0e 08 01 f1 10 00 05 0e     ................
     ecf:	08 01 f1 19 00 06 0c 08 01 f3 22 00 06 0e 08 01     ..........".....
     edf:	f1 2d 00 01 06 08 03 f1 2e 00 03 0e 08 01 f1 34     .-.............4
     eef:	00 03 0e 08 03 f1 3a 00 05 0e 08 01 f1 43 00 05     ......:......C..
     eff:	0a 08 01 f3 4a 00 02 06 08 03 f9 4c 00 06 02 08     ....J......L....
     f0f:	01 f7 4e 00 01 02 08 03 fd 4f 00 06 0c 08 01 f3     ..N......O......
     f1f:	58 00 06 0e 08 01 f1 63 00 03 0e 08 03 f1 69 00     X......c......i.
     f2f:	06 0e 08 01 f1 74 00 06 0e 08 01 f1 7f 00 06 0e     .....t..........
     f3f:	08 01 f1 8a 00 06 0e 08 01 f1 95 00 06 0e 08 01     ................
     f4f:	f1 a0 00 06 0e 08 01 f1 ab 00 06 0e 08 01 f1 b6     ................
     f5f:	00 06 0e 08 01 f1 c1 00 01 06 08 03 f5 c2 00 02     ................
     f6f:	09 08 03 f5 c5 00 04 0e 08 02 f1 cc 00 06 06 08     ................
     f7f:	01 f5 d1 00 04 0e 08 02 f1 d8 00 02 04 08 01 f1     ................
     f8f:	d9 00 06 0e 08 01 f1 e4 00 06 0e 08 01 f1 ef 00     ................
     f9f:	06 0e 08 01 f1 fa 00 06 0e 08 01 f1 05 01 06 0e     ................
     faf:	08 01 f1 10 01 06 0e 08 01 f1 1b 01 06 0e 08 01     ................
     fbf:	f1 26 01 06 0e 08 01 f1 31 01 06 0e 08 01 f1 3c     .&......1......<
     fcf:	01 03 0e 08 02 f1 42 01 06 0e 08 01 f1 4d 01 06     ......B......M..
     fdf:	0e 08 01 f1 58 01 06 0e 08 01 f1 63 01 06 0e 08     ....X......c....
     fef:	01 f1 6e 01 06 0e 08 01 f1 79 01 06 0e 08 01 f1     ..n......y......
     fff:	84 01 06 0e 08 01 f1 8f 01 06 0e 08 01 f1 9a 01     ................
    100f:	06 0e 08 01 f1 a5 01 06 0e 08 01 f1 b0 01 05 0e     ................
    101f:	08 01 f1 b9 01 06 0e 08 01 f1 c4 01 06 0e 08 01     ................
    102f:	f1 cf 01 06 0e 08 01 f1 da 01 06 0e 08 01 f1 e5     ................
    103f:	01 05 0e 08 01 f1 ee 01 06 0e 08 01 f1 f9 01 06     ................
    104f:	0e 08 01 f1 04 02 06 0c 08 01 f3 0d 02 06 0e 08     ................
    105f:	01 f1 18 02 05 06 08 01 f5 1c 02 06 02 08 01 fd     ................
    106f:	1e 02 03 06 08 02 f1 21 02 06 0a 08 01 f5 29 02     .......!......).
    107f:	06 0e 08 01 f1 34 02 06 0a 08 01 f5 3c 02 06 0e     .....4......<...
    108f:	08 01 f1 47 02 06 0a 08 01 f5 4f 02 06 0e 08 01     ...G......O.....
    109f:	f1 5a 02 06 0c 08 01 f5 63 02 06 0e 08 01 f1 6e     .Z......c......n
    10af:	02 03 0e 08 02 f1 74 02 05 10 08 01 f1 7e 02 06     ......t......~..
    10bf:	0e 08 01 f1 89 02 03 0e 08 02 f1 8f 02 06 0a 08     ................
    10cf:	01 f5 97 02 06 0a 08 01 f5 9f 02 06 0a 08 01 f5     ................
    10df:	a7 02 06 0c 08 01 f5 b0 02 06 0c 08 01 f5 b9 02     ................
    10ef:	06 0a 08 01 f5 c1 02 06 0a 08 01 f5 c9 02 06 0e     ................
    10ff:	08 01 f1 d4 02 06 0a 08 01 f5 dc 02 06 0a 08 01     ................
    110f:	f5 e4 02 06 0a 08 01 f5 ec 02 06 0a 08 01 f5 f4     ................
    111f:	02 06 0c 08 01 f5 fd 02 06 0a 08 01 f5 05 03 06     ................
    112f:	0e 08 01 f1 10 03 01 0e 08 03 f1 12 03 06 0e 08     ................
    113f:	01 f1 1d 03 05 06 08 01 f5                          .........

00001148 <Font_8_RetroBitmaps>:
    1148:	ff cc 99 99 99 49 24 92 ff f4 92 ff f4 92 49 20     .....I$.......I 
    1158:	21 1e fa 51 ce 29 7d e2 10 c7 1c b2 10 42 08 4d     !..Q.)}......B.M
    1168:	38 e3 61 89 24 92 46 18 96 58 a2 75 d0 fc 25 29     8.a.$.F..X.u..%)
    1178:	24 91 22 40 91 22 49 25 29 00 21 2b 57 38 84 73     $."@."I%).!+W8.s
    1188:	ab 52 10 21 08 4f fc 84 21 00 55 a0 ff f0 c0 04     .R.!.O..!.U.....
    1198:	10 82 10 42 08 41 08 20 79 e8 61 8e 3b 6d c7 18     ...B.A. y.a.;m..
    11a8:	61 79 e0 4b 64 92 49 2f c0 79 e8 61 04 13 8e 41     ay.Kd.I/.y.a...A
    11b8:	08 20 ff f0 ff f0 41 08 23 8e 04 18 61 79 e0 08     . ....A.#...ay..
    11c8:	21 86 28 a4 92 ff f0 82 08 20 ff f8 20 fb e0 41     !.(...... .. ..A
    11d8:	04 18 61 79 e0 3c f4 10 82 0f be 86 18 61 79 e0     ..ay.<.......ay.
    11e8:	ff f0 41 08 21 04 20 82 08 20 80 79 e8 61 86 17     ..A.!. .. .y.a..
    11f8:	9e 86 18 61 79 e0 79 e8 61 86 17 df 04 10 82 f3     ...ay.y.a.......
    1208:	c0 cc 50 55 80 11 22 44 88 44 22 11 ff f0 00 ff     ..PU.."D.D".....
    1218:	f0 88 44 22 11 22 44 88 5a 79 e8 61 96 5a eb 9a     ..D"."D.Zy.a.Z..
    1228:	68 20 7d f0 30 c4 92 86 18 61 ff f8 61 86 10 fb     h }.0....a..a...
    1238:	e8 61 86 1f be 86 18 61 fb e0 79 e8 61 82 08 20     .a.....a..y.a.. 
    1248:	82 08 61 79 e0 fb e8 61 86 18 61 86 18 61 fb e0     ..ay...a..a..a..
    1258:	ff f8 20 82 0f be 82 08 20 ff f0 ff f8 20 82 0f     .. ..... .... ..
    1268:	be 82 08 20 82 00 7d f8 20 82 08 27 9e 18 61 7d     ... ..}. ..'..a}
    1278:	f0 86 18 61 86 1f ff 86 18 61 86 10 fd 24 92 49     ...a.....a...$.I
    1288:	2f c0 04 10 41 04 10 41 04 18 61 79 e0 86 18 a2     /...A..A..ay....
    1298:	92 4e 38 92 48 a2 86 10 82 08 20 82 08 20 82 08     .N8.H..... .. ..
    12a8:	20 ff f0 86 1c f3 b6 db 6d 86 18 61 86 10 86 1c      .......m..a....
    12b8:	71 a6 9b 6d 96 58 e3 86 10 79 e8 61 86 18 61 86     q..m.X...y.a..a.
    12c8:	18 61 79 e0 fb e8 61 86 1f be 82 08 20 82 00 79     .ay...a..... ..y
    12d8:	e8 61 86 18 61 96 58 a2 75 d0 fb e8 61 86 1f be     .a..a.X.u...a...
    12e8:	92 48 a2 86 10 79 e8 61 82 07 9e 04 18 61 79 e0     .H...y.a.....ay.
    12f8:	ff c8 42 10 84 21 08 42 10 86 18 61 86 18 61 86     ..B..!.B...a..a.
    1308:	18 61 79 e0 86 18 61 86 18 61 86 14 92 30 c0 86     .ay...a..a...0..
    1318:	18 61 86 1b 6d b6 dc f3 86 10 86 18 61 49 23 0c     .a..m.......aI#.
    1328:	49 28 61 86 10 8c 63 15 28 84 21 08 42 10 ff f0     I(a...c.(.!.B...
    1338:	41 08 23 0c 41 08 20 ff f0 ff fc 30 c3 0c 30 c3     A.#.A. ....0..0.
    1348:	0c 30 ff f0 82 04 10 20 81 04 08 20 41 ff f0 c3     .0..... ... A...
    1358:	0c 30 c3 0c 30 c3 ff f0 21 14 a8 c4 ff f0 91 22     .0..0...!......"
    1368:	40 79 e0 41 7d f8 61 7d f0 82 08 20 fb e8 61 86     @y.A}.a}... ..a.
    1378:	18 61 fb e0 7d f8 20 82 08 20 7d f0 04 10 41 7d     .a..}. .. }...A}
    1388:	f8 61 86 18 61 7d f0 79 e8 61 ff f8 20 7d f0 38     .a..a}.y.a.. }.8
    1398:	e4 51 41 0f be 41 04 10 41 00 79 e8 61 86 17 df     .QA..A..A.y.a...
    13a8:	04 17 9e 82 08 20 fb e8 61 86 18 61 86 10 48 0d     ..... ..a..a..H.
    13b8:	92 49 2f c0 08 40 07 bc 21 08 42 18 c5 ce 82 08     .I/..@..!.B.....
    13c8:	20 86 18 a2 f3 c8 a2 86 10 d9 24 92 49 2f c0 cf      .........$.I/..
    13d8:	3b 6d b6 db 6d 86 10 fb e8 61 86 18 61 86 10 79     ;m..m....a..a..y
    13e8:	e8 61 86 18 61 79 e0 fb e8 61 86 1f be 82 08 20     .a..ay...a..... 
    13f8:	7d f8 61 86 17 df 04 10 41 be fc 30 82 08 20 82     }.a.....A..0.. .
    1408:	00 7d f8 20 79 e0 41 fb e0 20 82 08 fb e2 08 20     .}. y.A.. ..... 
    1418:	82 49 18 60 86 18 61 86 18 e3 75 d0 86 18 61 86     .I.`..a...u...a.
    1428:	14 92 30 c0 86 18 61 b6 db 6d cf 30 86 14 92 30     ..0...a..m.0...0
    1438:	c4 92 86 10 86 18 61 86 17 df 04 17 9e ff f0 82     ......a.........
    1448:	30 c4 10 ff f0 1c 73 0c 30 ce 38 30 c3 0c 1c 70     0.....s.0.80...p
    1458:	ff fc e3 83 0c 30 c1 c7 30 c3 0c e3 80 4a 6b 59     .....0..0....JkY
    1468:	48 00                                               H.

0000146a <__ctors_end>:
    146a:	11 24       	eor	r1, r1
    146c:	1f be       	out	0x3f, r1	; 63
    146e:	cf ef       	ldi	r28, 0xFF	; 255
    1470:	d8 e0       	ldi	r29, 0x08	; 8
    1472:	de bf       	out	0x3e, r29	; 62
    1474:	cd bf       	out	0x3d, r28	; 61

00001476 <__do_copy_data>:
    1476:	11 e0       	ldi	r17, 0x01	; 1
    1478:	a0 e0       	ldi	r26, 0x00	; 0
    147a:	b1 e0       	ldi	r27, 0x01	; 1
    147c:	ee e8       	ldi	r30, 0x8E	; 142
    147e:	f0 e2       	ldi	r31, 0x20	; 32
    1480:	02 c0       	rjmp	.+4      	; 0x1486 <__do_copy_data+0x10>
    1482:	05 90       	lpm	r0, Z+
    1484:	0d 92       	st	X+, r0
    1486:	a6 31       	cpi	r26, 0x16	; 22
    1488:	b1 07       	cpc	r27, r17
    148a:	d9 f7       	brne	.-10     	; 0x1482 <__do_copy_data+0xc>
    148c:	0e 94 4c 0a 	call	0x1498	; 0x1498 <main>
    1490:	0c 94 45 10 	jmp	0x208a	; 0x208a <_exit>

00001494 <__bad_interrupt>:
    1494:	0c 94 00 00 	jmp	0	; 0x0 <__vectors>

00001498 <main>:
#include "fonts/Font_64_Segment_16_Num.h"
#include "fonts/Font_64_Segment_7_Num.h"

int main(void)
{
	DDRB = 0xFF;
    1498:	8f ef       	ldi	r24, 0xFF	; 255
    149a:	84 b9       	out	0x04, r24	; 4
	PORTB = 0b11111111;
    149c:	85 b9       	out	0x05, r24	; 5
	
	SSD1331_Init();
    149e:	0e 94 f0 0e 	call	0x1de0	; 0x1de0 <SSD1331_Init>
	
	LCD_Circle(48, 32, 5, 0, 1, BLUE);
    14a2:	c1 2c       	mov	r12, r1
    14a4:	d1 2c       	mov	r13, r1
    14a6:	76 01       	movw	r14, r12
    14a8:	ca 94       	dec	r12
    14aa:	01 e0       	ldi	r16, 0x01	; 1
    14ac:	20 e0       	ldi	r18, 0x00	; 0
    14ae:	45 e0       	ldi	r20, 0x05	; 5
    14b0:	60 e2       	ldi	r22, 0x20	; 32
    14b2:	70 e0       	ldi	r23, 0x00	; 0
    14b4:	80 e3       	ldi	r24, 0x30	; 48
    14b6:	90 e0       	ldi	r25, 0x00	; 0
    14b8:	0e 94 eb 0b 	call	0x17d6	; 0x17d6 <LCD_Circle>
	LCD_Circle(48, 32, 10, 0, 1, YELLOW);
    14bc:	c1 2c       	mov	r12, r1
    14be:	dd 24       	eor	r13, r13
    14c0:	da 94       	dec	r13
    14c2:	ed 2c       	mov	r14, r13
    14c4:	f1 2c       	mov	r15, r1
    14c6:	20 e0       	ldi	r18, 0x00	; 0
    14c8:	4a e0       	ldi	r20, 0x0A	; 10
    14ca:	60 e2       	ldi	r22, 0x20	; 32
    14cc:	70 e0       	ldi	r23, 0x00	; 0
    14ce:	80 e3       	ldi	r24, 0x30	; 48
    14d0:	90 e0       	ldi	r25, 0x00	; 0
    14d2:	0e 94 eb 0b 	call	0x17d6	; 0x17d6 <LCD_Circle>
	LCD_Circle(48, 32, 15, 0, 1, BLUE);
    14d6:	c1 2c       	mov	r12, r1
    14d8:	d1 2c       	mov	r13, r1
    14da:	76 01       	movw	r14, r12
    14dc:	ca 94       	dec	r12
    14de:	20 e0       	ldi	r18, 0x00	; 0
    14e0:	4f e0       	ldi	r20, 0x0F	; 15
    14e2:	60 e2       	ldi	r22, 0x20	; 32
    14e4:	70 e0       	ldi	r23, 0x00	; 0
    14e6:	80 e3       	ldi	r24, 0x30	; 48
    14e8:	90 e0       	ldi	r25, 0x00	; 0
    14ea:	0e 94 eb 0b 	call	0x17d6	; 0x17d6 <LCD_Circle>
	LCD_Circle(48, 32, 20, 0, 1, YELLOW);
    14ee:	c1 2c       	mov	r12, r1
    14f0:	dd 24       	eor	r13, r13
    14f2:	da 94       	dec	r13
    14f4:	ed 2c       	mov	r14, r13
    14f6:	f1 2c       	mov	r15, r1
    14f8:	20 e0       	ldi	r18, 0x00	; 0
    14fa:	44 e1       	ldi	r20, 0x14	; 20
    14fc:	60 e2       	ldi	r22, 0x20	; 32
    14fe:	70 e0       	ldi	r23, 0x00	; 0
    1500:	80 e3       	ldi	r24, 0x30	; 48
    1502:	90 e0       	ldi	r25, 0x00	; 0
    1504:	0e 94 eb 0b 	call	0x17d6	; 0x17d6 <LCD_Circle>
	LCD_Circle(48, 32, 25, 0, 1, BLUE);
    1508:	c1 2c       	mov	r12, r1
    150a:	d1 2c       	mov	r13, r1
    150c:	76 01       	movw	r14, r12
    150e:	ca 94       	dec	r12
    1510:	20 e0       	ldi	r18, 0x00	; 0
    1512:	49 e1       	ldi	r20, 0x19	; 25
    1514:	60 e2       	ldi	r22, 0x20	; 32
    1516:	70 e0       	ldi	r23, 0x00	; 0
    1518:	80 e3       	ldi	r24, 0x30	; 48
    151a:	90 e0       	ldi	r25, 0x00	; 0
    151c:	0e 94 eb 0b 	call	0x17d6	; 0x17d6 <LCD_Circle>
	LCD_Circle(48, 32, 30, 0, 1, YELLOW);
    1520:	c1 2c       	mov	r12, r1
    1522:	dd 24       	eor	r13, r13
    1524:	da 94       	dec	r13
    1526:	ed 2c       	mov	r14, r13
    1528:	f1 2c       	mov	r15, r1
    152a:	20 e0       	ldi	r18, 0x00	; 0
    152c:	4e e1       	ldi	r20, 0x1E	; 30
    152e:	60 e2       	ldi	r22, 0x20	; 32
    1530:	70 e0       	ldi	r23, 0x00	; 0
    1532:	80 e3       	ldi	r24, 0x30	; 48
    1534:	90 e0       	ldi	r25, 0x00	; 0
    1536:	0e 94 eb 0b 	call	0x17d6	; 0x17d6 <LCD_Circle>
	#else
		//round up by default
		__ticks_dc = (uint32_t)(ceil(fabs(__tmp)));
	#endif

	__builtin_avr_delay_cycles(__ticks_dc);
    153a:	2f ef       	ldi	r18, 0xFF	; 255
    153c:	88 e0       	ldi	r24, 0x08	; 8
    153e:	9d e3       	ldi	r25, 0x3D	; 61
    1540:	21 50       	subi	r18, 0x01	; 1
    1542:	80 40       	sbci	r24, 0x00	; 0
    1544:	90 40       	sbci	r25, 0x00	; 0
    1546:	e1 f7       	brne	.-8      	; 0x1540 <main+0xa8>
    1548:	00 c0       	rjmp	.+0      	; 0x154a <main+0xb2>
    154a:	00 00       	nop

	_delay_ms(1000);

	SSD1331_Frame(0, 0, 95, 63, BLUE, BLACK); _delay_ms(1);
    154c:	a1 2c       	mov	r10, r1
    154e:	b1 2c       	mov	r11, r1
    1550:	65 01       	movw	r12, r10
    1552:	e1 2c       	mov	r14, r1
    1554:	f1 2c       	mov	r15, r1
    1556:	87 01       	movw	r16, r14
    1558:	ea 94       	dec	r14
    155a:	2f e3       	ldi	r18, 0x3F	; 63
    155c:	30 e0       	ldi	r19, 0x00	; 0
    155e:	4f e5       	ldi	r20, 0x5F	; 95
    1560:	50 e0       	ldi	r21, 0x00	; 0
    1562:	60 e0       	ldi	r22, 0x00	; 0
    1564:	70 e0       	ldi	r23, 0x00	; 0
    1566:	80 e0       	ldi	r24, 0x00	; 0
    1568:	90 e0       	ldi	r25, 0x00	; 0
    156a:	0e 94 fb 0a 	call	0x15f6	; 0x15f6 <SSD1331_Frame>
    156e:	87 e8       	ldi	r24, 0x87	; 135
    1570:	93 e1       	ldi	r25, 0x13	; 19
    1572:	01 97       	sbiw	r24, 0x01	; 1
    1574:	f1 f7       	brne	.-4      	; 0x1572 <main+0xda>
    1576:	00 c0       	rjmp	.+0      	; 0x1578 <main+0xe0>
    1578:	00 00       	nop

	LCD_Font(5, 25, "SSD1331", _8_Retro, 1, RED);
    157a:	c1 2c       	mov	r12, r1
    157c:	d1 2c       	mov	r13, r1
    157e:	76 01       	movw	r14, r12
    1580:	ea 94       	dec	r14
    1582:	01 e0       	ldi	r16, 0x01	; 1
    1584:	28 ea       	ldi	r18, 0xA8	; 168
    1586:	3e e0       	ldi	r19, 0x0E	; 14
    1588:	40 e0       	ldi	r20, 0x00	; 0
    158a:	51 e0       	ldi	r21, 0x01	; 1
    158c:	69 e1       	ldi	r22, 0x19	; 25
    158e:	70 e0       	ldi	r23, 0x00	; 0
    1590:	85 e0       	ldi	r24, 0x05	; 5
    1592:	90 e0       	ldi	r25, 0x00	; 0
    1594:	0e 94 12 0d 	call	0x1a24	; 0x1a24 <LCD_Font>
	LCD_Font(5, 45, "OLED", _12_Mono, 1, GREEN);
    1598:	c1 2c       	mov	r12, r1
    159a:	d1 2c       	mov	r13, r1
    159c:	76 01       	movw	r14, r12
    159e:	da 94       	dec	r13
    15a0:	28 e6       	ldi	r18, 0x68	; 104
    15a2:	30 e0       	ldi	r19, 0x00	; 0
    15a4:	48 e0       	ldi	r20, 0x08	; 8
    15a6:	51 e0       	ldi	r21, 0x01	; 1
    15a8:	6d e2       	ldi	r22, 0x2D	; 45
    15aa:	70 e0       	ldi	r23, 0x00	; 0
    15ac:	85 e0       	ldi	r24, 0x05	; 5
    15ae:	90 e0       	ldi	r25, 0x00	; 0
    15b0:	0e 94 12 0d 	call	0x1a24	; 0x1a24 <LCD_Font>
	LCD_Font(10, 60, "0123456", _9_Mono, 1, BLUE);
    15b4:	c1 2c       	mov	r12, r1
    15b6:	d1 2c       	mov	r13, r1
    15b8:	76 01       	movw	r14, r12
    15ba:	ca 94       	dec	r12
    15bc:	2c eb       	ldi	r18, 0xBC	; 188
    15be:	38 e0       	ldi	r19, 0x08	; 8
    15c0:	4d e0       	ldi	r20, 0x0D	; 13
    15c2:	51 e0       	ldi	r21, 0x01	; 1
    15c4:	6c e3       	ldi	r22, 0x3C	; 60
    15c6:	70 e0       	ldi	r23, 0x00	; 0
    15c8:	8a e0       	ldi	r24, 0x0A	; 10
    15ca:	90 e0       	ldi	r25, 0x00	; 0
    15cc:	0e 94 12 0d 	call	0x1a24	; 0x1a24 <LCD_Font>
    15d0:	9f ef       	ldi	r25, 0xFF	; 255
    15d2:	28 e0       	ldi	r18, 0x08	; 8
    15d4:	8d e3       	ldi	r24, 0x3D	; 61
    15d6:	91 50       	subi	r25, 0x01	; 1
    15d8:	20 40       	sbci	r18, 0x00	; 0
    15da:	80 40       	sbci	r24, 0x00	; 0
    15dc:	e1 f7       	brne	.-8      	; 0x15d6 <main+0x13e>
    15de:	00 c0       	rjmp	.+0      	; 0x15e0 <main+0x148>
    15e0:	00 00       	nop
	
	_delay_ms(1000);
	SSD1331_setScrolling(Horizontal, 0, 64, 1);
    15e2:	21 e0       	ldi	r18, 0x01	; 1
    15e4:	40 e4       	ldi	r20, 0x40	; 64
    15e6:	60 e0       	ldi	r22, 0x00	; 0
    15e8:	80 e0       	ldi	r24, 0x00	; 0
    15ea:	0e 94 8a 0e 	call	0x1d14	; 0x1d14 <SSD1331_setScrolling>
	SSD1331_enableScrolling(1);
    15ee:	81 e0       	ldi	r24, 0x01	; 1
    15f0:	0e 94 cf 0e 	call	0x1d9e	; 0x1d9e <SSD1331_enableScrolling>
    15f4:	ff cf       	rjmp	.-2      	; 0x15f4 <main+0x15c>

000015f6 <SSD1331_Frame>:
{
	LCD_U_CS
	LCD_U_DC
	SPDR = cmd;
	while(!(SPSR & (1 << SPIF)));
	LCD_S_CS
    15f6:	4f 92       	push	r4
    15f8:	5f 92       	push	r5
    15fa:	6f 92       	push	r6
    15fc:	7f 92       	push	r7
    15fe:	af 92       	push	r10
    1600:	bf 92       	push	r11
    1602:	cf 92       	push	r12
    1604:	df 92       	push	r13
    1606:	ef 92       	push	r14
    1608:	ff 92       	push	r15
    160a:	0f 93       	push	r16
    160c:	1f 93       	push	r17
    160e:	2a 98       	cbi	0x05, 2	; 5
    1610:	29 98       	cbi	0x05, 1	; 5
    1612:	96 e2       	ldi	r25, 0x26	; 38
    1614:	9e bd       	out	0x2e, r25	; 46
    1616:	0d b4       	in	r0, 0x2d	; 45
    1618:	07 fe       	sbrs	r0, 7
    161a:	fd cf       	rjmp	.-6      	; 0x1616 <SSD1331_Frame+0x20>
    161c:	2a 9a       	sbi	0x05, 2	; 5
    161e:	2a 98       	cbi	0x05, 2	; 5
    1620:	29 98       	cbi	0x05, 1	; 5
    1622:	91 e0       	ldi	r25, 0x01	; 1
    1624:	9e bd       	out	0x2e, r25	; 46
    1626:	0d b4       	in	r0, 0x2d	; 45
    1628:	07 fe       	sbrs	r0, 7
    162a:	fd cf       	rjmp	.-6      	; 0x1626 <SSD1331_Frame+0x30>
    162c:	2a 9a       	sbi	0x05, 2	; 5
    162e:	2a 98       	cbi	0x05, 2	; 5
    1630:	29 98       	cbi	0x05, 1	; 5
    1632:	92 e2       	ldi	r25, 0x22	; 34
    1634:	9e bd       	out	0x2e, r25	; 46
    1636:	0d b4       	in	r0, 0x2d	; 45
    1638:	07 fe       	sbrs	r0, 7
    163a:	fd cf       	rjmp	.-6      	; 0x1636 <SSD1331_Frame+0x40>
    163c:	2a 9a       	sbi	0x05, 2	; 5
    163e:	2a 98       	cbi	0x05, 2	; 5
    1640:	29 98       	cbi	0x05, 1	; 5
    1642:	8e bd       	out	0x2e, r24	; 46
    1644:	0d b4       	in	r0, 0x2d	; 45
    1646:	07 fe       	sbrs	r0, 7
    1648:	fd cf       	rjmp	.-6      	; 0x1644 <SSD1331_Frame+0x4e>
    164a:	2a 9a       	sbi	0x05, 2	; 5
    164c:	2a 98       	cbi	0x05, 2	; 5
    164e:	29 98       	cbi	0x05, 1	; 5
    1650:	6e bd       	out	0x2e, r22	; 46
    1652:	0d b4       	in	r0, 0x2d	; 45
    1654:	07 fe       	sbrs	r0, 7
    1656:	fd cf       	rjmp	.-6      	; 0x1652 <SSD1331_Frame+0x5c>
    1658:	2a 9a       	sbi	0x05, 2	; 5
    165a:	2a 98       	cbi	0x05, 2	; 5
    165c:	29 98       	cbi	0x05, 1	; 5
    165e:	4e bd       	out	0x2e, r20	; 46
    1660:	0d b4       	in	r0, 0x2d	; 45
    1662:	07 fe       	sbrs	r0, 7
    1664:	fd cf       	rjmp	.-6      	; 0x1660 <SSD1331_Frame+0x6a>
    1666:	2a 9a       	sbi	0x05, 2	; 5
    1668:	2a 98       	cbi	0x05, 2	; 5
    166a:	29 98       	cbi	0x05, 1	; 5
    166c:	2e bd       	out	0x2e, r18	; 46
    166e:	0d b4       	in	r0, 0x2d	; 45
    1670:	07 fe       	sbrs	r0, 7
    1672:	fd cf       	rjmp	.-6      	; 0x166e <SSD1331_Frame+0x78>
    1674:	2a 9a       	sbi	0x05, 2	; 5
    1676:	06 95       	lsr	r16
    1678:	06 95       	lsr	r16
    167a:	06 95       	lsr	r16
    167c:	40 2f       	mov	r20, r16
    167e:	50 e0       	ldi	r21, 0x00	; 0
    1680:	54 2f       	mov	r21, r20
    1682:	44 27       	eor	r20, r20
    1684:	55 0f       	add	r21, r21
    1686:	55 0f       	add	r21, r21
    1688:	55 0f       	add	r21, r21
    168a:	f6 94       	lsr	r15
    168c:	f6 94       	lsr	r15
    168e:	20 e2       	ldi	r18, 0x20	; 32
    1690:	f2 9e       	mul	r15, r18
    1692:	c0 01       	movw	r24, r0
    1694:	11 24       	eor	r1, r1
    1696:	48 2b       	or	r20, r24
    1698:	59 2b       	or	r21, r25
    169a:	e6 94       	lsr	r14
    169c:	e6 94       	lsr	r14
    169e:	e6 94       	lsr	r14
    16a0:	4e 29       	or	r20, r14
    16a2:	2a 01       	movw	r4, r20
    16a4:	61 2c       	mov	r6, r1
    16a6:	71 2c       	mov	r7, r1
    16a8:	c6 94       	lsr	r12
    16aa:	c6 94       	lsr	r12
    16ac:	c6 94       	lsr	r12
    16ae:	8c 2d       	mov	r24, r12
    16b0:	90 e0       	ldi	r25, 0x00	; 0
    16b2:	98 2f       	mov	r25, r24
    16b4:	88 27       	eor	r24, r24
    16b6:	99 0f       	add	r25, r25
    16b8:	99 0f       	add	r25, r25
    16ba:	99 0f       	add	r25, r25
    16bc:	b6 94       	lsr	r11
    16be:	b6 94       	lsr	r11
    16c0:	60 e2       	ldi	r22, 0x20	; 32
    16c2:	b6 9e       	mul	r11, r22
    16c4:	90 01       	movw	r18, r0
    16c6:	11 24       	eor	r1, r1
    16c8:	82 2b       	or	r24, r18
    16ca:	93 2b       	or	r25, r19
    16cc:	a6 94       	lsr	r10
    16ce:	a6 94       	lsr	r10
    16d0:	a6 94       	lsr	r10
    16d2:	8a 29       	or	r24, r10
    16d4:	8c 01       	movw	r16, r24
    16d6:	20 e0       	ldi	r18, 0x00	; 0
    16d8:	30 e0       	ldi	r19, 0x00	; 0
    16da:	73 01       	movw	r14, r6
    16dc:	62 01       	movw	r12, r4
    16de:	0b 2e       	mov	r0, r27
    16e0:	bb e0       	ldi	r27, 0x0B	; 11
    16e2:	f6 94       	lsr	r15
    16e4:	e7 94       	ror	r14
    16e6:	d7 94       	ror	r13
    16e8:	c7 94       	ror	r12
    16ea:	ba 95       	dec	r27
    16ec:	d1 f7       	brne	.-12     	; 0x16e2 <SSD1331_Frame+0xec>
    16ee:	b0 2d       	mov	r27, r0
    16f0:	6c 2d       	mov	r22, r12
    16f2:	6f 71       	andi	r22, 0x1F	; 31
    16f4:	2a 98       	cbi	0x05, 2	; 5
    16f6:	29 98       	cbi	0x05, 1	; 5
    16f8:	6e bd       	out	0x2e, r22	; 46
    16fa:	0d b4       	in	r0, 0x2d	; 45
    16fc:	07 fe       	sbrs	r0, 7
    16fe:	fd cf       	rjmp	.-6      	; 0x16fa <SSD1331_Frame+0x104>
    1700:	2a 9a       	sbi	0x05, 2	; 5
    1702:	68 94       	set
    1704:	14 f8       	bld	r1, 4
    1706:	76 94       	lsr	r7
    1708:	67 94       	ror	r6
    170a:	57 94       	ror	r5
    170c:	47 94       	ror	r4
    170e:	16 94       	lsr	r1
    1710:	d1 f7       	brne	.-12     	; 0x1706 <SSD1331_Frame+0x110>
    1712:	64 2d       	mov	r22, r4
    1714:	6f 73       	andi	r22, 0x3F	; 63
    1716:	2a 98       	cbi	0x05, 2	; 5
    1718:	29 98       	cbi	0x05, 1	; 5
    171a:	6e bd       	out	0x2e, r22	; 46
    171c:	0d b4       	in	r0, 0x2d	; 45
    171e:	07 fe       	sbrs	r0, 7
    1720:	fd cf       	rjmp	.-6      	; 0x171c <SSD1331_Frame+0x126>
    1722:	2a 9a       	sbi	0x05, 2	; 5
    1724:	4f 71       	andi	r20, 0x1F	; 31
    1726:	2a 98       	cbi	0x05, 2	; 5
    1728:	29 98       	cbi	0x05, 1	; 5
    172a:	4e bd       	out	0x2e, r20	; 46
    172c:	0d b4       	in	r0, 0x2d	; 45
    172e:	07 fe       	sbrs	r0, 7
    1730:	fd cf       	rjmp	.-6      	; 0x172c <SSD1331_Frame+0x136>
    1732:	2a 9a       	sbi	0x05, 2	; 5
    1734:	b9 01       	movw	r22, r18
    1736:	a8 01       	movw	r20, r16
    1738:	03 2e       	mov	r0, r19
    173a:	3b e0       	ldi	r19, 0x0B	; 11
    173c:	76 95       	lsr	r23
    173e:	67 95       	ror	r22
    1740:	57 95       	ror	r21
    1742:	47 95       	ror	r20
    1744:	3a 95       	dec	r19
    1746:	d1 f7       	brne	.-12     	; 0x173c <SSD1331_Frame+0x146>
    1748:	30 2d       	mov	r19, r0
    174a:	4f 71       	andi	r20, 0x1F	; 31
    174c:	2a 98       	cbi	0x05, 2	; 5
    174e:	29 98       	cbi	0x05, 1	; 5
    1750:	4e bd       	out	0x2e, r20	; 46
    1752:	0d b4       	in	r0, 0x2d	; 45
    1754:	07 fe       	sbrs	r0, 7
    1756:	fd cf       	rjmp	.-6      	; 0x1752 <SSD1331_Frame+0x15c>
    1758:	2a 9a       	sbi	0x05, 2	; 5
    175a:	68 94       	set
    175c:	14 f8       	bld	r1, 4
    175e:	36 95       	lsr	r19
    1760:	27 95       	ror	r18
    1762:	17 95       	ror	r17
    1764:	07 95       	ror	r16
    1766:	16 94       	lsr	r1
    1768:	d1 f7       	brne	.-12     	; 0x175e <SSD1331_Frame+0x168>
    176a:	0f 73       	andi	r16, 0x3F	; 63
    176c:	2a 98       	cbi	0x05, 2	; 5
    176e:	29 98       	cbi	0x05, 1	; 5
    1770:	0e bd       	out	0x2e, r16	; 46
    1772:	0d b4       	in	r0, 0x2d	; 45
    1774:	07 fe       	sbrs	r0, 7
    1776:	fd cf       	rjmp	.-6      	; 0x1772 <SSD1331_Frame+0x17c>
    1778:	2a 9a       	sbi	0x05, 2	; 5
    177a:	8f 71       	andi	r24, 0x1F	; 31
    177c:	2a 98       	cbi	0x05, 2	; 5
    177e:	29 98       	cbi	0x05, 1	; 5
    1780:	8e bd       	out	0x2e, r24	; 46
    1782:	0d b4       	in	r0, 0x2d	; 45
    1784:	07 fe       	sbrs	r0, 7
    1786:	fd cf       	rjmp	.-6      	; 0x1782 <SSD1331_Frame+0x18c>
    1788:	2a 9a       	sbi	0x05, 2	; 5
    178a:	1f 91       	pop	r17
    178c:	0f 91       	pop	r16
    178e:	ff 90       	pop	r15
    1790:	ef 90       	pop	r14
    1792:	df 90       	pop	r13
    1794:	cf 90       	pop	r12
    1796:	bf 90       	pop	r11
    1798:	af 90       	pop	r10
    179a:	7f 90       	pop	r7
    179c:	6f 90       	pop	r6
    179e:	5f 90       	pop	r5
    17a0:	4f 90       	pop	r4
    17a2:	08 95       	ret

000017a4 <LCD_Rect_Fill>:
    17a4:	af 92       	push	r10
    17a6:	bf 92       	push	r11
    17a8:	cf 92       	push	r12
    17aa:	df 92       	push	r13
    17ac:	ef 92       	push	r14
    17ae:	ff 92       	push	r15
    17b0:	0f 93       	push	r16
    17b2:	1f 93       	push	r17
    17b4:	26 0f       	add	r18, r22
    17b6:	37 1f       	adc	r19, r23
    17b8:	48 0f       	add	r20, r24
    17ba:	59 1f       	adc	r21, r25
    17bc:	57 01       	movw	r10, r14
    17be:	68 01       	movw	r12, r16
    17c0:	0e 94 fb 0a 	call	0x15f6	; 0x15f6 <SSD1331_Frame>
    17c4:	1f 91       	pop	r17
    17c6:	0f 91       	pop	r16
    17c8:	ff 90       	pop	r15
    17ca:	ef 90       	pop	r14
    17cc:	df 90       	pop	r13
    17ce:	cf 90       	pop	r12
    17d0:	bf 90       	pop	r11
    17d2:	af 90       	pop	r10
    17d4:	08 95       	ret

000017d6 <LCD_Circle>:
    17d6:	2f 92       	push	r2
    17d8:	3f 92       	push	r3
    17da:	4f 92       	push	r4
    17dc:	5f 92       	push	r5
    17de:	6f 92       	push	r6
    17e0:	7f 92       	push	r7
    17e2:	8f 92       	push	r8
    17e4:	9f 92       	push	r9
    17e6:	af 92       	push	r10
    17e8:	bf 92       	push	r11
    17ea:	cf 92       	push	r12
    17ec:	df 92       	push	r13
    17ee:	ef 92       	push	r14
    17f0:	ff 92       	push	r15
    17f2:	0f 93       	push	r16
    17f4:	1f 93       	push	r17
    17f6:	cf 93       	push	r28
    17f8:	df 93       	push	r29
    17fa:	cd b7       	in	r28, 0x3d	; 61
    17fc:	de b7       	in	r29, 0x3e	; 62
    17fe:	65 97       	sbiw	r28, 0x15	; 21
    1800:	0f b6       	in	r0, 0x3f	; 63
    1802:	f8 94       	cli
    1804:	de bf       	out	0x3e, r29	; 62
    1806:	0f be       	out	0x3f, r0	; 63
    1808:	cd bf       	out	0x3d, r28	; 61
    180a:	5c 01       	movw	r10, r24
    180c:	2b 01       	movw	r4, r22
    180e:	2b 8b       	std	Y+19, r18	; 0x13
    1810:	cf 82       	std	Y+7, r12	; 0x07
    1812:	d8 86       	std	Y+8, r13	; 0x08
    1814:	e9 86       	std	Y+9, r14	; 0x09
    1816:	fa 86       	std	Y+10, r15	; 0x0a
    1818:	24 2e       	mov	r2, r20
    181a:	31 2c       	mov	r3, r1
    181c:	81 e0       	ldi	r24, 0x01	; 1
    181e:	90 e0       	ldi	r25, 0x00	; 0
    1820:	3c 01       	movw	r6, r24
    1822:	62 18       	sub	r6, r2
    1824:	73 08       	sbc	r7, r3
    1826:	21 e0       	ldi	r18, 0x01	; 1
    1828:	30 e0       	ldi	r19, 0x00	; 0
    182a:	38 8b       	std	Y+16, r19	; 0x10
    182c:	2f 87       	std	Y+15, r18	; 0x0f
    182e:	9e 87       	std	Y+14, r25	; 0x0e
    1830:	8d 87       	std	Y+13, r24	; 0x0d
    1832:	c1 2c       	mov	r12, r1
    1834:	d1 2c       	mov	r13, r1
    1836:	80 2e       	mov	r8, r16
    1838:	91 2c       	mov	r9, r1
    183a:	bd 8a       	std	Y+21, r11	; 0x15
    183c:	ac 8a       	std	Y+20, r10	; 0x14
    183e:	da 8a       	std	Y+18, r13	; 0x12
    1840:	c9 8a       	std	Y+17, r12	; 0x11
    1842:	9b 89       	ldd	r25, Y+19	; 0x13
    1844:	91 30       	cpi	r25, 0x01	; 1
    1846:	31 f5       	brne	.+76     	; 0x1894 <LCD_Circle+0xbe>
    1848:	c1 01       	movw	r24, r2
    184a:	88 0f       	add	r24, r24
    184c:	99 1f       	adc	r25, r25
    184e:	9c 01       	movw	r18, r24
    1850:	2f 5f       	subi	r18, 0xFF	; 255
    1852:	3f 4f       	sbci	r19, 0xFF	; 255
    1854:	3c 83       	std	Y+4, r19	; 0x04
    1856:	2b 83       	std	Y+3, r18	; 0x03
    1858:	ef 80       	ldd	r14, Y+7	; 0x07
    185a:	f8 84       	ldd	r15, Y+8	; 0x08
    185c:	09 85       	ldd	r16, Y+9	; 0x09
    185e:	1a 85       	ldd	r17, Y+10	; 0x0a
    1860:	4f 85       	ldd	r20, Y+15	; 0x0f
    1862:	58 89       	ldd	r21, Y+16	; 0x10
    1864:	b2 01       	movw	r22, r4
    1866:	62 19       	sub	r22, r2
    1868:	73 09       	sbc	r23, r3
    186a:	8c 89       	ldd	r24, Y+20	; 0x14
    186c:	9d 89       	ldd	r25, Y+21	; 0x15
    186e:	0e 94 d2 0b 	call	0x17a4	; 0x17a4 <LCD_Rect_Fill>
    1872:	ef 80       	ldd	r14, Y+7	; 0x07
    1874:	f8 84       	ldd	r15, Y+8	; 0x08
    1876:	09 85       	ldd	r16, Y+9	; 0x09
    1878:	1a 85       	ldd	r17, Y+10	; 0x0a
    187a:	2f 85       	ldd	r18, Y+15	; 0x0f
    187c:	38 89       	ldd	r19, Y+16	; 0x10
    187e:	4b 81       	ldd	r20, Y+3	; 0x03
    1880:	5c 81       	ldd	r21, Y+4	; 0x04
    1882:	b2 01       	movw	r22, r4
    1884:	6c 19       	sub	r22, r12
    1886:	7d 09       	sbc	r23, r13
    1888:	c5 01       	movw	r24, r10
    188a:	82 19       	sub	r24, r2
    188c:	93 09       	sbc	r25, r3
    188e:	0e 94 d2 0b 	call	0x17a4	; 0x17a4 <LCD_Rect_Fill>
    1892:	79 c0       	rjmp	.+242    	; 0x1986 <LCD_Circle+0x1b0>
    1894:	ef 80       	ldd	r14, Y+7	; 0x07
    1896:	f8 84       	ldd	r15, Y+8	; 0x08
    1898:	09 85       	ldd	r16, Y+9	; 0x09
    189a:	1a 85       	ldd	r17, Y+10	; 0x0a
    189c:	94 01       	movw	r18, r8
    189e:	a4 01       	movw	r20, r8
    18a0:	c2 01       	movw	r24, r4
    18a2:	82 0d       	add	r24, r2
    18a4:	93 1d       	adc	r25, r3
    18a6:	9c 83       	std	Y+4, r25	; 0x04
    18a8:	8b 83       	std	Y+3, r24	; 0x03
    18aa:	bc 01       	movw	r22, r24
    18ac:	c5 01       	movw	r24, r10
    18ae:	8c 0d       	add	r24, r12
    18b0:	9d 1d       	adc	r25, r13
    18b2:	9c 87       	std	Y+12, r25	; 0x0c
    18b4:	8b 87       	std	Y+11, r24	; 0x0b
    18b6:	0e 94 d2 0b 	call	0x17a4	; 0x17a4 <LCD_Rect_Fill>
    18ba:	ef 80       	ldd	r14, Y+7	; 0x07
    18bc:	f8 84       	ldd	r15, Y+8	; 0x08
    18be:	09 85       	ldd	r16, Y+9	; 0x09
    18c0:	1a 85       	ldd	r17, Y+10	; 0x0a
    18c2:	94 01       	movw	r18, r8
    18c4:	a4 01       	movw	r20, r8
    18c6:	c2 01       	movw	r24, r4
    18c8:	8c 0d       	add	r24, r12
    18ca:	9d 1d       	adc	r25, r13
    18cc:	9e 83       	std	Y+6, r25	; 0x06
    18ce:	8d 83       	std	Y+5, r24	; 0x05
    18d0:	bc 01       	movw	r22, r24
    18d2:	c5 01       	movw	r24, r10
    18d4:	82 0d       	add	r24, r2
    18d6:	93 1d       	adc	r25, r3
    18d8:	9a 83       	std	Y+2, r25	; 0x02
    18da:	89 83       	std	Y+1, r24	; 0x01
    18dc:	0e 94 d2 0b 	call	0x17a4	; 0x17a4 <LCD_Rect_Fill>
    18e0:	ef 80       	ldd	r14, Y+7	; 0x07
    18e2:	f8 84       	ldd	r15, Y+8	; 0x08
    18e4:	09 85       	ldd	r16, Y+9	; 0x09
    18e6:	1a 85       	ldd	r17, Y+10	; 0x0a
    18e8:	94 01       	movw	r18, r8
    18ea:	a4 01       	movw	r20, r8
    18ec:	6b 81       	ldd	r22, Y+3	; 0x03
    18ee:	7c 81       	ldd	r23, Y+4	; 0x04
    18f0:	8c 89       	ldd	r24, Y+20	; 0x14
    18f2:	9d 89       	ldd	r25, Y+21	; 0x15
    18f4:	0e 94 d2 0b 	call	0x17a4	; 0x17a4 <LCD_Rect_Fill>
    18f8:	ef 80       	ldd	r14, Y+7	; 0x07
    18fa:	f8 84       	ldd	r15, Y+8	; 0x08
    18fc:	09 85       	ldd	r16, Y+9	; 0x09
    18fe:	1a 85       	ldd	r17, Y+10	; 0x0a
    1900:	94 01       	movw	r18, r8
    1902:	a4 01       	movw	r20, r8
    1904:	6d 81       	ldd	r22, Y+5	; 0x05
    1906:	7e 81       	ldd	r23, Y+6	; 0x06
    1908:	c5 01       	movw	r24, r10
    190a:	82 19       	sub	r24, r2
    190c:	93 09       	sbc	r25, r3
    190e:	9c 83       	std	Y+4, r25	; 0x04
    1910:	8b 83       	std	Y+3, r24	; 0x03
    1912:	0e 94 d2 0b 	call	0x17a4	; 0x17a4 <LCD_Rect_Fill>
    1916:	ef 80       	ldd	r14, Y+7	; 0x07
    1918:	f8 84       	ldd	r15, Y+8	; 0x08
    191a:	09 85       	ldd	r16, Y+9	; 0x09
    191c:	1a 85       	ldd	r17, Y+10	; 0x0a
    191e:	94 01       	movw	r18, r8
    1920:	a4 01       	movw	r20, r8
    1922:	c2 01       	movw	r24, r4
    1924:	8c 19       	sub	r24, r12
    1926:	9d 09       	sbc	r25, r13
    1928:	9e 83       	std	Y+6, r25	; 0x06
    192a:	8d 83       	std	Y+5, r24	; 0x05
    192c:	bc 01       	movw	r22, r24
    192e:	89 81       	ldd	r24, Y+1	; 0x01
    1930:	9a 81       	ldd	r25, Y+2	; 0x02
    1932:	0e 94 d2 0b 	call	0x17a4	; 0x17a4 <LCD_Rect_Fill>
    1936:	ef 80       	ldd	r14, Y+7	; 0x07
    1938:	f8 84       	ldd	r15, Y+8	; 0x08
    193a:	09 85       	ldd	r16, Y+9	; 0x09
    193c:	1a 85       	ldd	r17, Y+10	; 0x0a
    193e:	94 01       	movw	r18, r8
    1940:	a4 01       	movw	r20, r8
    1942:	c2 01       	movw	r24, r4
    1944:	82 19       	sub	r24, r2
    1946:	93 09       	sbc	r25, r3
    1948:	9a 83       	std	Y+2, r25	; 0x02
    194a:	89 83       	std	Y+1, r24	; 0x01
    194c:	bc 01       	movw	r22, r24
    194e:	8b 85       	ldd	r24, Y+11	; 0x0b
    1950:	9c 85       	ldd	r25, Y+12	; 0x0c
    1952:	0e 94 d2 0b 	call	0x17a4	; 0x17a4 <LCD_Rect_Fill>
    1956:	ef 80       	ldd	r14, Y+7	; 0x07
    1958:	f8 84       	ldd	r15, Y+8	; 0x08
    195a:	09 85       	ldd	r16, Y+9	; 0x09
    195c:	1a 85       	ldd	r17, Y+10	; 0x0a
    195e:	94 01       	movw	r18, r8
    1960:	a4 01       	movw	r20, r8
    1962:	69 81       	ldd	r22, Y+1	; 0x01
    1964:	7a 81       	ldd	r23, Y+2	; 0x02
    1966:	8c 89       	ldd	r24, Y+20	; 0x14
    1968:	9d 89       	ldd	r25, Y+21	; 0x15
    196a:	0e 94 d2 0b 	call	0x17a4	; 0x17a4 <LCD_Rect_Fill>
    196e:	ef 80       	ldd	r14, Y+7	; 0x07
    1970:	f8 84       	ldd	r15, Y+8	; 0x08
    1972:	09 85       	ldd	r16, Y+9	; 0x09
    1974:	1a 85       	ldd	r17, Y+10	; 0x0a
    1976:	94 01       	movw	r18, r8
    1978:	a4 01       	movw	r20, r8
    197a:	6d 81       	ldd	r22, Y+5	; 0x05
    197c:	7e 81       	ldd	r23, Y+6	; 0x06
    197e:	8b 81       	ldd	r24, Y+3	; 0x03
    1980:	9c 81       	ldd	r25, Y+4	; 0x04
    1982:	0e 94 d2 0b 	call	0x17a4	; 0x17a4 <LCD_Rect_Fill>
    1986:	77 20       	and	r7, r7
    1988:	5c f4       	brge	.+22     	; 0x19a0 <LCD_Circle+0x1ca>
    198a:	93 e0       	ldi	r25, 0x03	; 3
    198c:	69 0e       	add	r6, r25
    198e:	71 1c       	adc	r7, r1
    1990:	c6 01       	movw	r24, r12
    1992:	88 0f       	add	r24, r24
    1994:	99 1f       	adc	r25, r25
    1996:	68 0e       	add	r6, r24
    1998:	79 1e       	adc	r7, r25
    199a:	8d 85       	ldd	r24, Y+13	; 0x0d
    199c:	9e 85       	ldd	r25, Y+14	; 0x0e
    199e:	10 c0       	rjmp	.+32     	; 0x19c0 <LCD_Circle+0x1ea>
    19a0:	25 e0       	ldi	r18, 0x05	; 5
    19a2:	62 0e       	add	r6, r18
    19a4:	71 1c       	adc	r7, r1
    19a6:	89 89       	ldd	r24, Y+17	; 0x11
    19a8:	9a 89       	ldd	r25, Y+18	; 0x12
    19aa:	82 19       	sub	r24, r2
    19ac:	93 09       	sbc	r25, r3
    19ae:	88 0f       	add	r24, r24
    19b0:	99 1f       	adc	r25, r25
    19b2:	68 0e       	add	r6, r24
    19b4:	79 1e       	adc	r7, r25
    19b6:	8d 85       	ldd	r24, Y+13	; 0x0d
    19b8:	9e 85       	ldd	r25, Y+14	; 0x0e
    19ba:	31 e0       	ldi	r19, 0x01	; 1
    19bc:	23 1a       	sub	r2, r19
    19be:	31 08       	sbc	r3, r1
    19c0:	2f ef       	ldi	r18, 0xFF	; 255
    19c2:	c2 1a       	sub	r12, r18
    19c4:	d2 0a       	sbc	r13, r18
    19c6:	2d 85       	ldd	r18, Y+13	; 0x0d
    19c8:	3e 85       	ldd	r19, Y+14	; 0x0e
    19ca:	2f 5f       	subi	r18, 0xFF	; 255
    19cc:	3f 4f       	sbci	r19, 0xFF	; 255
    19ce:	3e 87       	std	Y+14, r19	; 0x0e
    19d0:	2d 87       	std	Y+13, r18	; 0x0d
    19d2:	2c 89       	ldd	r18, Y+20	; 0x14
    19d4:	3d 89       	ldd	r19, Y+21	; 0x15
    19d6:	21 50       	subi	r18, 0x01	; 1
    19d8:	31 09       	sbc	r19, r1
    19da:	3d 8b       	std	Y+21, r19	; 0x15
    19dc:	2c 8b       	std	Y+20, r18	; 0x14
    19de:	2f 85       	ldd	r18, Y+15	; 0x0f
    19e0:	38 89       	ldd	r19, Y+16	; 0x10
    19e2:	2e 5f       	subi	r18, 0xFE	; 254
    19e4:	3f 4f       	sbci	r19, 0xFF	; 255
    19e6:	38 8b       	std	Y+16, r19	; 0x10
    19e8:	2f 87       	std	Y+15, r18	; 0x0f
    19ea:	28 16       	cp	r2, r24
    19ec:	39 06       	cpc	r3, r25
    19ee:	0c f0       	brlt	.+2      	; 0x19f2 <LCD_Circle+0x21c>
    19f0:	26 cf       	rjmp	.-436    	; 0x183e <LCD_Circle+0x68>
    19f2:	65 96       	adiw	r28, 0x15	; 21
    19f4:	0f b6       	in	r0, 0x3f	; 63
    19f6:	f8 94       	cli
    19f8:	de bf       	out	0x3e, r29	; 62
    19fa:	0f be       	out	0x3f, r0	; 63
    19fc:	cd bf       	out	0x3d, r28	; 61
    19fe:	df 91       	pop	r29
    1a00:	cf 91       	pop	r28
    1a02:	1f 91       	pop	r17
    1a04:	0f 91       	pop	r16
    1a06:	ff 90       	pop	r15
    1a08:	ef 90       	pop	r14
    1a0a:	df 90       	pop	r13
    1a0c:	cf 90       	pop	r12
    1a0e:	bf 90       	pop	r11
    1a10:	af 90       	pop	r10
    1a12:	9f 90       	pop	r9
    1a14:	8f 90       	pop	r8
    1a16:	7f 90       	pop	r7
    1a18:	6f 90       	pop	r6
    1a1a:	5f 90       	pop	r5
    1a1c:	4f 90       	pop	r4
    1a1e:	3f 90       	pop	r3
    1a20:	2f 90       	pop	r2
    1a22:	08 95       	ret

00001a24 <LCD_Font>:
    1a24:	2f 92       	push	r2
    1a26:	3f 92       	push	r3
    1a28:	4f 92       	push	r4
    1a2a:	5f 92       	push	r5
    1a2c:	6f 92       	push	r6
    1a2e:	7f 92       	push	r7
    1a30:	8f 92       	push	r8
    1a32:	9f 92       	push	r9
    1a34:	af 92       	push	r10
    1a36:	bf 92       	push	r11
    1a38:	cf 92       	push	r12
    1a3a:	df 92       	push	r13
    1a3c:	ef 92       	push	r14
    1a3e:	ff 92       	push	r15
    1a40:	0f 93       	push	r16
    1a42:	1f 93       	push	r17
    1a44:	cf 93       	push	r28
    1a46:	df 93       	push	r29
    1a48:	cd b7       	in	r28, 0x3d	; 61
    1a4a:	de b7       	in	r29, 0x3e	; 62
    1a4c:	a1 97       	sbiw	r28, 0x21	; 33
    1a4e:	0f b6       	in	r0, 0x3f	; 63
    1a50:	f8 94       	cli
    1a52:	de bf       	out	0x3e, r29	; 62
    1a54:	0f be       	out	0x3f, r0	; 63
    1a56:	cd bf       	out	0x3d, r28	; 61
    1a58:	a8 2e       	mov	r10, r24
    1a5a:	b9 2e       	mov	r11, r25
    1a5c:	5d 8b       	std	Y+21, r21	; 0x15
    1a5e:	4c 8b       	std	Y+20, r20	; 0x14
    1a60:	c8 8e       	std	Y+24, r12	; 0x18
    1a62:	d9 8e       	std	Y+25, r13	; 0x19
    1a64:	ea 8e       	std	Y+26, r14	; 0x1a
    1a66:	fb 8e       	std	Y+27, r15	; 0x1b
    1a68:	8e 8f       	std	Y+30, r24	; 0x1e
    1a6a:	9f 8f       	std	Y+31, r25	; 0x1f
    1a6c:	6a 8b       	std	Y+18, r22	; 0x12
    1a6e:	7b 8b       	std	Y+19, r23	; 0x13
    1a70:	47 e0       	ldi	r20, 0x07	; 7
    1a72:	50 e0       	ldi	r21, 0x00	; 0
    1a74:	b9 01       	movw	r22, r18
    1a76:	ce 01       	movw	r24, r28
    1a78:	01 96       	adiw	r24, 0x01	; 1
    1a7a:	0e 94 3c 10 	call	0x2078	; 0x2078 <memcpy_P>
    1a7e:	2c 89       	ldd	r18, Y+20	; 0x14
    1a80:	3d 89       	ldd	r19, Y+21	; 0x15
    1a82:	3f 8b       	std	Y+23, r19	; 0x17
    1a84:	2e 8b       	std	Y+22, r18	; 0x16
    1a86:	a8 8a       	std	Y+16, r10	; 0x10
    1a88:	b9 8a       	std	Y+17, r11	; 0x11
    1a8a:	61 2c       	mov	r6, r1
    1a8c:	71 2c       	mov	r7, r1
    1a8e:	20 2e       	mov	r2, r16
    1a90:	31 2c       	mov	r3, r1
    1a92:	0c 8f       	std	Y+28, r16	; 0x1c
    1a94:	3d 8e       	std	Y+29, r3	; 0x1d
    1a96:	f2 c0       	rjmp	.+484    	; 0x1c7c <LCD_Font+0x258>
    1a98:	ee 89       	ldd	r30, Y+22	; 0x16
    1a9a:	ff 89       	ldd	r31, Y+23	; 0x17
    1a9c:	81 91       	ld	r24, Z+
    1a9e:	ff 8b       	std	Y+23, r31	; 0x17
    1aa0:	ee 8b       	std	Y+22, r30	; 0x16
    1aa2:	8a 30       	cpi	r24, 0x0A	; 10
    1aa4:	89 f4       	brne	.+34     	; 0x1ac8 <LCD_Font+0xa4>
    1aa6:	2f 81       	ldd	r18, Y+7	; 0x07
    1aa8:	22 9d       	mul	r18, r2
    1aaa:	c0 01       	movw	r24, r0
    1aac:	23 9d       	mul	r18, r3
    1aae:	90 0d       	add	r25, r0
    1ab0:	11 24       	eor	r1, r1
    1ab2:	2a 89       	ldd	r18, Y+18	; 0x12
    1ab4:	3b 89       	ldd	r19, Y+19	; 0x13
    1ab6:	28 0f       	add	r18, r24
    1ab8:	39 1f       	adc	r19, r25
    1aba:	3b 8b       	std	Y+19, r19	; 0x13
    1abc:	2a 8b       	std	Y+18, r18	; 0x12
    1abe:	3e 8d       	ldd	r19, Y+30	; 0x1e
    1ac0:	38 8b       	std	Y+16, r19	; 0x10
    1ac2:	6f 8d       	ldd	r22, Y+31	; 0x1f
    1ac4:	69 8b       	std	Y+17, r22	; 0x11
    1ac6:	d7 c0       	rjmp	.+430    	; 0x1c76 <LCD_Font+0x252>
    1ac8:	2d 81       	ldd	r18, Y+5	; 0x05
    1aca:	82 17       	cp	r24, r18
    1acc:	08 f4       	brcc	.+2      	; 0x1ad0 <LCD_Font+0xac>
    1ace:	d3 c0       	rjmp	.+422    	; 0x1c76 <LCD_Font+0x252>
    1ad0:	9e 81       	ldd	r25, Y+6	; 0x06
    1ad2:	98 17       	cp	r25, r24
    1ad4:	08 f4       	brcc	.+2      	; 0x1ad8 <LCD_Font+0xb4>
    1ad6:	cf c0       	rjmp	.+414    	; 0x1c76 <LCD_Font+0x252>
    1ad8:	8d 30       	cpi	r24, 0x0D	; 13
    1ada:	09 f4       	brne	.+2      	; 0x1ade <LCD_Font+0xba>
    1adc:	cc c0       	rjmp	.+408    	; 0x1c76 <LCD_Font+0x252>
    1ade:	90 e0       	ldi	r25, 0x00	; 0
    1ae0:	82 1b       	sub	r24, r18
    1ae2:	91 09       	sbc	r25, r1
    1ae4:	bc 01       	movw	r22, r24
    1ae6:	66 0f       	add	r22, r22
    1ae8:	77 1f       	adc	r23, r23
    1aea:	66 0f       	add	r22, r22
    1aec:	77 1f       	adc	r23, r23
    1aee:	66 0f       	add	r22, r22
    1af0:	77 1f       	adc	r23, r23
    1af2:	fb 01       	movw	r30, r22
    1af4:	e8 1b       	sub	r30, r24
    1af6:	f9 0b       	sbc	r31, r25
    1af8:	6b 81       	ldd	r22, Y+3	; 0x03
    1afa:	7c 81       	ldd	r23, Y+4	; 0x04
    1afc:	6e 0f       	add	r22, r30
    1afe:	7f 1f       	adc	r23, r31
    1b00:	47 e0       	ldi	r20, 0x07	; 7
    1b02:	50 e0       	ldi	r21, 0x00	; 0
    1b04:	ce 01       	movw	r24, r28
    1b06:	08 96       	adiw	r24, 0x08	; 8
    1b08:	0e 94 3c 10 	call	0x2078	; 0x2078 <memcpy_P>
    1b0c:	89 80       	ldd	r8, Y+1	; 0x01
    1b0e:	9a 80       	ldd	r9, Y+2	; 0x02
    1b10:	c8 84       	ldd	r12, Y+8	; 0x08
    1b12:	d9 84       	ldd	r13, Y+9	; 0x09
    1b14:	8b 85       	ldd	r24, Y+11	; 0x0b
    1b16:	81 11       	cpse	r24, r1
    1b18:	99 c0       	rjmp	.+306    	; 0x1c4c <LCD_Font+0x228>
    1b1a:	a1 c0       	rjmp	.+322    	; 0x1c5e <LCD_Font+0x23a>
    1b1c:	a1 2c       	mov	r10, r1
    1b1e:	80 e0       	ldi	r24, 0x00	; 0
    1b20:	90 e0       	ldi	r25, 0x00	; 0
    1b22:	ff 85       	ldd	r31, Y+15	; 0x0f
    1b24:	4f 2e       	mov	r4, r31
    1b26:	51 2c       	mov	r5, r1
    1b28:	b1 10       	cpse	r11, r1
    1b2a:	0b c0       	rjmp	.+22     	; 0x1b42 <LCD_Font+0x11e>
    1b2c:	96 01       	movw	r18, r12
    1b2e:	2f 5f       	subi	r18, 0xFF	; 255
    1b30:	3f 4f       	sbci	r19, 0xFF	; 255
    1b32:	f4 01       	movw	r30, r8
    1b34:	ec 0d       	add	r30, r12
    1b36:	fd 1d       	adc	r31, r13
    1b38:	74 90       	lpm	r7, Z
    1b3a:	69 01       	movw	r12, r18
    1b3c:	68 94       	set
    1b3e:	bb 24       	eor	r11, r11
    1b40:	b7 f8       	bld	r11, 7
    1b42:	27 2d       	mov	r18, r7
    1b44:	2b 21       	and	r18, r11
    1b46:	11 f0       	breq	.+4      	; 0x1b4c <LCD_Font+0x128>
    1b48:	01 96       	adiw	r24, 0x01	; 1
    1b4a:	39 c0       	rjmp	.+114    	; 0x1bbe <LCD_Font+0x19a>
    1b4c:	00 97       	sbiw	r24, 0x00	; 0
    1b4e:	b9 f1       	breq	.+110    	; 0x1bbe <LCD_Font+0x19a>
    1b50:	28 9e       	mul	r2, r24
    1b52:	a0 01       	movw	r20, r0
    1b54:	29 9e       	mul	r2, r25
    1b56:	50 0d       	add	r21, r0
    1b58:	38 9e       	mul	r3, r24
    1b5a:	50 0d       	add	r21, r0
    1b5c:	11 24       	eor	r1, r1
    1b5e:	2e 85       	ldd	r18, Y+14	; 0x0e
    1b60:	b2 01       	movw	r22, r4
    1b62:	62 0f       	add	r22, r18
    1b64:	71 1d       	adc	r23, r1
    1b66:	27 fd       	sbrc	r18, 7
    1b68:	7a 95       	dec	r23
    1b6a:	9b 01       	movw	r18, r22
    1b6c:	22 9d       	mul	r18, r2
    1b6e:	b0 01       	movw	r22, r0
    1b70:	23 9d       	mul	r18, r3
    1b72:	70 0d       	add	r23, r0
    1b74:	32 9d       	mul	r19, r2
    1b76:	70 0d       	add	r23, r0
    1b78:	11 24       	eor	r1, r1
    1b7a:	ea 89       	ldd	r30, Y+18	; 0x12
    1b7c:	fb 89       	ldd	r31, Y+19	; 0x13
    1b7e:	6e 0f       	add	r22, r30
    1b80:	7f 1f       	adc	r23, r31
    1b82:	ed 85       	ldd	r30, Y+13	; 0x0d
    1b84:	2a 2d       	mov	r18, r10
    1b86:	30 e0       	ldi	r19, 0x00	; 0
    1b88:	2e 0f       	add	r18, r30
    1b8a:	31 1d       	adc	r19, r1
    1b8c:	e7 fd       	sbrc	r30, 7
    1b8e:	3a 95       	dec	r19
    1b90:	28 1b       	sub	r18, r24
    1b92:	39 0b       	sbc	r19, r25
    1b94:	22 9d       	mul	r18, r2
    1b96:	c0 01       	movw	r24, r0
    1b98:	23 9d       	mul	r18, r3
    1b9a:	90 0d       	add	r25, r0
    1b9c:	32 9d       	mul	r19, r2
    1b9e:	90 0d       	add	r25, r0
    1ba0:	11 24       	eor	r1, r1
    1ba2:	e8 8c       	ldd	r14, Y+24	; 0x18
    1ba4:	f9 8c       	ldd	r15, Y+25	; 0x19
    1ba6:	0a 8d       	ldd	r16, Y+26	; 0x1a
    1ba8:	1b 8d       	ldd	r17, Y+27	; 0x1b
    1baa:	2c 8d       	ldd	r18, Y+28	; 0x1c
    1bac:	3d 8d       	ldd	r19, Y+29	; 0x1d
    1bae:	e8 89       	ldd	r30, Y+16	; 0x10
    1bb0:	f9 89       	ldd	r31, Y+17	; 0x11
    1bb2:	8e 0f       	add	r24, r30
    1bb4:	9f 1f       	adc	r25, r31
    1bb6:	0e 94 d2 0b 	call	0x17a4	; 0x17a4 <LCD_Rect_Fill>
    1bba:	80 e0       	ldi	r24, 0x00	; 0
    1bbc:	90 e0       	ldi	r25, 0x00	; 0
    1bbe:	b6 94       	lsr	r11
    1bc0:	a3 94       	inc	r10
    1bc2:	2a 85       	ldd	r18, Y+10	; 0x0a
    1bc4:	a2 16       	cp	r10, r18
    1bc6:	08 f4       	brcc	.+2      	; 0x1bca <LCD_Font+0x1a6>
    1bc8:	af cf       	rjmp	.-162    	; 0x1b28 <LCD_Font+0x104>
    1bca:	00 97       	sbiw	r24, 0x00	; 0
    1bcc:	b1 f1       	breq	.+108    	; 0x1c3a <LCD_Font+0x216>
    1bce:	28 9e       	mul	r2, r24
    1bd0:	a0 01       	movw	r20, r0
    1bd2:	29 9e       	mul	r2, r25
    1bd4:	50 0d       	add	r21, r0
    1bd6:	38 9e       	mul	r3, r24
    1bd8:	50 0d       	add	r21, r0
    1bda:	11 24       	eor	r1, r1
    1bdc:	6e 85       	ldd	r22, Y+14	; 0x0e
    1bde:	ff 85       	ldd	r31, Y+15	; 0x0f
    1be0:	2f 2f       	mov	r18, r31
    1be2:	30 e0       	ldi	r19, 0x00	; 0
    1be4:	26 0f       	add	r18, r22
    1be6:	31 1d       	adc	r19, r1
    1be8:	67 fd       	sbrc	r22, 7
    1bea:	3a 95       	dec	r19
    1bec:	22 9d       	mul	r18, r2
    1bee:	b0 01       	movw	r22, r0
    1bf0:	23 9d       	mul	r18, r3
    1bf2:	70 0d       	add	r23, r0
    1bf4:	32 9d       	mul	r19, r2
    1bf6:	70 0d       	add	r23, r0
    1bf8:	11 24       	eor	r1, r1
    1bfa:	2a 89       	ldd	r18, Y+18	; 0x12
    1bfc:	3b 89       	ldd	r19, Y+19	; 0x13
    1bfe:	62 0f       	add	r22, r18
    1c00:	73 1f       	adc	r23, r19
    1c02:	ed 85       	ldd	r30, Y+13	; 0x0d
    1c04:	2a 2d       	mov	r18, r10
    1c06:	30 e0       	ldi	r19, 0x00	; 0
    1c08:	2e 0f       	add	r18, r30
    1c0a:	31 1d       	adc	r19, r1
    1c0c:	e7 fd       	sbrc	r30, 7
    1c0e:	3a 95       	dec	r19
    1c10:	28 1b       	sub	r18, r24
    1c12:	39 0b       	sbc	r19, r25
    1c14:	22 9d       	mul	r18, r2
    1c16:	c0 01       	movw	r24, r0
    1c18:	23 9d       	mul	r18, r3
    1c1a:	90 0d       	add	r25, r0
    1c1c:	32 9d       	mul	r19, r2
    1c1e:	90 0d       	add	r25, r0
    1c20:	11 24       	eor	r1, r1
    1c22:	e8 8c       	ldd	r14, Y+24	; 0x18
    1c24:	f9 8c       	ldd	r15, Y+25	; 0x19
    1c26:	0a 8d       	ldd	r16, Y+26	; 0x1a
    1c28:	1b 8d       	ldd	r17, Y+27	; 0x1b
    1c2a:	2c 8d       	ldd	r18, Y+28	; 0x1c
    1c2c:	3d 8d       	ldd	r19, Y+29	; 0x1d
    1c2e:	e8 89       	ldd	r30, Y+16	; 0x10
    1c30:	f9 89       	ldd	r31, Y+17	; 0x11
    1c32:	8e 0f       	add	r24, r30
    1c34:	9f 1f       	adc	r25, r31
    1c36:	0e 94 d2 0b 	call	0x17a4	; 0x17a4 <LCD_Rect_Fill>
    1c3a:	ff 85       	ldd	r31, Y+15	; 0x0f
    1c3c:	ff 5f       	subi	r31, 0xFF	; 255
    1c3e:	ff 87       	std	Y+15, r31	; 0x0f
    1c40:	8b 85       	ldd	r24, Y+11	; 0x0b
    1c42:	f8 17       	cp	r31, r24
    1c44:	40 f0       	brcs	.+16     	; 0x1c56 <LCD_Font+0x232>
    1c46:	68 a0       	ldd	r6, Y+32	; 0x20
    1c48:	79 a0       	ldd	r7, Y+33	; 0x21
    1c4a:	09 c0       	rjmp	.+18     	; 0x1c5e <LCD_Font+0x23a>
    1c4c:	1f 86       	std	Y+15, r1	; 0x0f
    1c4e:	b1 2c       	mov	r11, r1
    1c50:	79 a2       	std	Y+33, r7	; 0x21
    1c52:	68 a2       	std	Y+32, r6	; 0x20
    1c54:	7b 2c       	mov	r7, r11
    1c56:	8a 85       	ldd	r24, Y+10	; 0x0a
    1c58:	81 11       	cpse	r24, r1
    1c5a:	60 cf       	rjmp	.-320    	; 0x1b1c <LCD_Font+0xf8>
    1c5c:	ee cf       	rjmp	.-36     	; 0x1c3a <LCD_Font+0x216>
    1c5e:	2c 85       	ldd	r18, Y+12	; 0x0c
    1c60:	22 9d       	mul	r18, r2
    1c62:	c0 01       	movw	r24, r0
    1c64:	23 9d       	mul	r18, r3
    1c66:	90 0d       	add	r25, r0
    1c68:	11 24       	eor	r1, r1
    1c6a:	28 89       	ldd	r18, Y+16	; 0x10
    1c6c:	39 89       	ldd	r19, Y+17	; 0x11
    1c6e:	28 0f       	add	r18, r24
    1c70:	39 1f       	adc	r19, r25
    1c72:	39 8b       	std	Y+17, r19	; 0x11
    1c74:	28 8b       	std	Y+16, r18	; 0x10
    1c76:	3f ef       	ldi	r19, 0xFF	; 255
    1c78:	63 1a       	sub	r6, r19
    1c7a:	73 0a       	sbc	r7, r19
    1c7c:	ec 89       	ldd	r30, Y+20	; 0x14
    1c7e:	fd 89       	ldd	r31, Y+21	; 0x15
    1c80:	01 90       	ld	r0, Z+
    1c82:	00 20       	and	r0, r0
    1c84:	e9 f7       	brne	.-6      	; 0x1c80 <LCD_Font+0x25c>
    1c86:	31 97       	sbiw	r30, 0x01	; 1
    1c88:	6c 89       	ldd	r22, Y+20	; 0x14
    1c8a:	7d 89       	ldd	r23, Y+21	; 0x15
    1c8c:	e6 1b       	sub	r30, r22
    1c8e:	f7 0b       	sbc	r31, r23
    1c90:	6e 16       	cp	r6, r30
    1c92:	7f 06       	cpc	r7, r31
    1c94:	08 f4       	brcc	.+2      	; 0x1c98 <LCD_Font+0x274>
    1c96:	00 cf       	rjmp	.-512    	; 0x1a98 <LCD_Font+0x74>
    1c98:	a1 96       	adiw	r28, 0x21	; 33
    1c9a:	0f b6       	in	r0, 0x3f	; 63
    1c9c:	f8 94       	cli
    1c9e:	de bf       	out	0x3e, r29	; 62
    1ca0:	0f be       	out	0x3f, r0	; 63
    1ca2:	cd bf       	out	0x3d, r28	; 61
    1ca4:	df 91       	pop	r29
    1ca6:	cf 91       	pop	r28
    1ca8:	1f 91       	pop	r17
    1caa:	0f 91       	pop	r16
    1cac:	ff 90       	pop	r15
    1cae:	ef 90       	pop	r14
    1cb0:	df 90       	pop	r13
    1cb2:	cf 90       	pop	r12
    1cb4:	bf 90       	pop	r11
    1cb6:	af 90       	pop	r10
    1cb8:	9f 90       	pop	r9
    1cba:	8f 90       	pop	r8
    1cbc:	7f 90       	pop	r7
    1cbe:	6f 90       	pop	r6
    1cc0:	5f 90       	pop	r5
    1cc2:	4f 90       	pop	r4
    1cc4:	3f 90       	pop	r3
    1cc6:	2f 90       	pop	r2
    1cc8:	08 95       	ret

00001cca <SSD1331_clearWindow>:
    1cca:	2a 98       	cbi	0x05, 2	; 5
    1ccc:	29 98       	cbi	0x05, 1	; 5
    1cce:	95 e2       	ldi	r25, 0x25	; 37
    1cd0:	9e bd       	out	0x2e, r25	; 46
    1cd2:	0d b4       	in	r0, 0x2d	; 45
    1cd4:	07 fe       	sbrs	r0, 7
    1cd6:	fd cf       	rjmp	.-6      	; 0x1cd2 <SSD1331_clearWindow+0x8>
    1cd8:	2a 9a       	sbi	0x05, 2	; 5
    1cda:	2a 98       	cbi	0x05, 2	; 5
    1cdc:	29 98       	cbi	0x05, 1	; 5
    1cde:	8e bd       	out	0x2e, r24	; 46
    1ce0:	0d b4       	in	r0, 0x2d	; 45
    1ce2:	07 fe       	sbrs	r0, 7
    1ce4:	fd cf       	rjmp	.-6      	; 0x1ce0 <SSD1331_clearWindow+0x16>
    1ce6:	2a 9a       	sbi	0x05, 2	; 5
    1ce8:	2a 98       	cbi	0x05, 2	; 5
    1cea:	29 98       	cbi	0x05, 1	; 5
    1cec:	6e bd       	out	0x2e, r22	; 46
    1cee:	0d b4       	in	r0, 0x2d	; 45
    1cf0:	07 fe       	sbrs	r0, 7
    1cf2:	fd cf       	rjmp	.-6      	; 0x1cee <SSD1331_clearWindow+0x24>
    1cf4:	2a 9a       	sbi	0x05, 2	; 5
    1cf6:	2a 98       	cbi	0x05, 2	; 5
    1cf8:	29 98       	cbi	0x05, 1	; 5
    1cfa:	4e bd       	out	0x2e, r20	; 46
    1cfc:	0d b4       	in	r0, 0x2d	; 45
    1cfe:	07 fe       	sbrs	r0, 7
    1d00:	fd cf       	rjmp	.-6      	; 0x1cfc <SSD1331_clearWindow+0x32>
    1d02:	2a 9a       	sbi	0x05, 2	; 5
    1d04:	2a 98       	cbi	0x05, 2	; 5
    1d06:	29 98       	cbi	0x05, 1	; 5
    1d08:	2e bd       	out	0x2e, r18	; 46
    1d0a:	0d b4       	in	r0, 0x2d	; 45
    1d0c:	07 fe       	sbrs	r0, 7
    1d0e:	fd cf       	rjmp	.-6      	; 0x1d0a <SSD1331_clearWindow+0x40>
    1d10:	2a 9a       	sbi	0x05, 2	; 5
    1d12:	08 95       	ret

00001d14 <SSD1331_setScrolling>:
    1d14:	81 30       	cpi	r24, 0x01	; 1
    1d16:	39 f0       	breq	.+14     	; 0x1d26 <SSD1331_setScrolling+0x12>
    1d18:	18 f0       	brcs	.+6      	; 0x1d20 <SSD1331_setScrolling+0xc>
    1d1a:	82 30       	cpi	r24, 0x02	; 2
    1d1c:	39 f0       	breq	.+14     	; 0x1d2c <SSD1331_setScrolling+0x18>
    1d1e:	09 c0       	rjmp	.+18     	; 0x1d32 <SSD1331_setScrolling+0x1e>
    1d20:	90 e0       	ldi	r25, 0x00	; 0
    1d22:	31 e0       	ldi	r19, 0x01	; 1
    1d24:	08 c0       	rjmp	.+16     	; 0x1d36 <SSD1331_setScrolling+0x22>
    1d26:	91 e0       	ldi	r25, 0x01	; 1
    1d28:	30 e0       	ldi	r19, 0x00	; 0
    1d2a:	05 c0       	rjmp	.+10     	; 0x1d36 <SSD1331_setScrolling+0x22>
    1d2c:	91 e0       	ldi	r25, 0x01	; 1
    1d2e:	31 e0       	ldi	r19, 0x01	; 1
    1d30:	02 c0       	rjmp	.+4      	; 0x1d36 <SSD1331_setScrolling+0x22>
    1d32:	90 e0       	ldi	r25, 0x00	; 0
    1d34:	30 e0       	ldi	r19, 0x00	; 0
    1d36:	2a 98       	cbi	0x05, 2	; 5
    1d38:	29 98       	cbi	0x05, 1	; 5
    1d3a:	87 e2       	ldi	r24, 0x27	; 39
    1d3c:	8e bd       	out	0x2e, r24	; 46
    1d3e:	0d b4       	in	r0, 0x2d	; 45
    1d40:	07 fe       	sbrs	r0, 7
    1d42:	fd cf       	rjmp	.-6      	; 0x1d3e <SSD1331_setScrolling+0x2a>
    1d44:	2a 9a       	sbi	0x05, 2	; 5
    1d46:	2a 98       	cbi	0x05, 2	; 5
    1d48:	29 98       	cbi	0x05, 1	; 5
    1d4a:	3e bd       	out	0x2e, r19	; 46
    1d4c:	0d b4       	in	r0, 0x2d	; 45
    1d4e:	07 fe       	sbrs	r0, 7
    1d50:	fd cf       	rjmp	.-6      	; 0x1d4c <SSD1331_setScrolling+0x38>
    1d52:	2a 9a       	sbi	0x05, 2	; 5
    1d54:	2a 98       	cbi	0x05, 2	; 5
    1d56:	29 98       	cbi	0x05, 1	; 5
    1d58:	6e bd       	out	0x2e, r22	; 46
    1d5a:	0d b4       	in	r0, 0x2d	; 45
    1d5c:	07 fe       	sbrs	r0, 7
    1d5e:	fd cf       	rjmp	.-6      	; 0x1d5a <SSD1331_setScrolling+0x46>
    1d60:	2a 9a       	sbi	0x05, 2	; 5
    1d62:	2a 98       	cbi	0x05, 2	; 5
    1d64:	29 98       	cbi	0x05, 1	; 5
    1d66:	4e bd       	out	0x2e, r20	; 46
    1d68:	0d b4       	in	r0, 0x2d	; 45
    1d6a:	07 fe       	sbrs	r0, 7
    1d6c:	fd cf       	rjmp	.-6      	; 0x1d68 <SSD1331_setScrolling+0x54>
    1d6e:	2a 9a       	sbi	0x05, 2	; 5
    1d70:	2a 98       	cbi	0x05, 2	; 5
    1d72:	29 98       	cbi	0x05, 1	; 5
    1d74:	9e bd       	out	0x2e, r25	; 46
    1d76:	0d b4       	in	r0, 0x2d	; 45
    1d78:	07 fe       	sbrs	r0, 7
    1d7a:	fd cf       	rjmp	.-6      	; 0x1d76 <SSD1331_setScrolling+0x62>
    1d7c:	2a 9a       	sbi	0x05, 2	; 5
    1d7e:	2a 98       	cbi	0x05, 2	; 5
    1d80:	29 98       	cbi	0x05, 1	; 5
    1d82:	2e bd       	out	0x2e, r18	; 46
    1d84:	0d b4       	in	r0, 0x2d	; 45
    1d86:	07 fe       	sbrs	r0, 7
    1d88:	fd cf       	rjmp	.-6      	; 0x1d84 <SSD1331_setScrolling+0x70>
    1d8a:	2a 9a       	sbi	0x05, 2	; 5
    1d8c:	2a 98       	cbi	0x05, 2	; 5
    1d8e:	29 98       	cbi	0x05, 1	; 5
    1d90:	8f e2       	ldi	r24, 0x2F	; 47
    1d92:	8e bd       	out	0x2e, r24	; 46
    1d94:	0d b4       	in	r0, 0x2d	; 45
    1d96:	07 fe       	sbrs	r0, 7
    1d98:	fd cf       	rjmp	.-6      	; 0x1d94 <SSD1331_setScrolling+0x80>
    1d9a:	2a 9a       	sbi	0x05, 2	; 5
    1d9c:	08 95       	ret

00001d9e <SSD1331_enableScrolling>:
    1d9e:	88 23       	and	r24, r24
    1da0:	49 f0       	breq	.+18     	; 0x1db4 <SSD1331_enableScrolling+0x16>
    1da2:	2a 98       	cbi	0x05, 2	; 5
    1da4:	29 98       	cbi	0x05, 1	; 5
    1da6:	8f e2       	ldi	r24, 0x2F	; 47
    1da8:	8e bd       	out	0x2e, r24	; 46
    1daa:	0d b4       	in	r0, 0x2d	; 45
    1dac:	07 fe       	sbrs	r0, 7
    1dae:	fd cf       	rjmp	.-6      	; 0x1daa <SSD1331_enableScrolling+0xc>
    1db0:	2a 9a       	sbi	0x05, 2	; 5
    1db2:	08 95       	ret
    1db4:	2a 98       	cbi	0x05, 2	; 5
    1db6:	29 98       	cbi	0x05, 1	; 5
    1db8:	8e e2       	ldi	r24, 0x2E	; 46
    1dba:	8e bd       	out	0x2e, r24	; 46
    1dbc:	0d b4       	in	r0, 0x2d	; 45
    1dbe:	07 fe       	sbrs	r0, 7
    1dc0:	fd cf       	rjmp	.-6      	; 0x1dbc <SSD1331_enableScrolling+0x1e>
    1dc2:	2a 9a       	sbi	0x05, 2	; 5
    1dc4:	08 95       	ret

00001dc6 <SPI_Init>:
	LCD_Command(power);
}

void SPI_Init(void)
{
	LCD_PORT |= (1 << LCD_SCK) | (1 << LCD_MOSI) | (1 << LCD_CS) | (1 << LCD_DC);
    1dc6:	85 b1       	in	r24, 0x05	; 5
    1dc8:	86 6a       	ori	r24, 0xA6	; 166
    1dca:	85 b9       	out	0x05, r24	; 5
	LCD_DDR  |= (1 << LCD_SCK) | (1 << LCD_MOSI) | (1 << LCD_CS) | (1 << LCD_DC);
    1dcc:	84 b1       	in	r24, 0x04	; 4
    1dce:	86 6a       	ori	r24, 0xA6	; 166
    1dd0:	84 b9       	out	0x04, r24	; 4
	SPCR |= (1 << SPE) | (1 << MSTR);
    1dd2:	8c b5       	in	r24, 0x2c	; 44
    1dd4:	80 65       	ori	r24, 0x50	; 80
    1dd6:	8c bd       	out	0x2c, r24	; 44
	SPSR |= (1 << SPI2X) | (0 << SPR1) | (0 << SPR0);
    1dd8:	8d b5       	in	r24, 0x2d	; 45
    1dda:	81 60       	ori	r24, 0x01	; 1
    1ddc:	8d bd       	out	0x2d, r24	; 45
    1dde:	08 95       	ret

00001de0 <SSD1331_Init>:
}

void SSD1331_Init(void)
{
	SPI_Init();
    1de0:	0e 94 e3 0e 	call	0x1dc6	; 0x1dc6 <SPI_Init>
    1de4:	87 e8       	ldi	r24, 0x87	; 135
    1de6:	93 e1       	ldi	r25, 0x13	; 19
    1de8:	01 97       	sbiw	r24, 0x01	; 1
    1dea:	f1 f7       	brne	.-4      	; 0x1de8 <SSD1331_Init+0x8>
    1dec:	00 c0       	rjmp	.+0      	; 0x1dee <SSD1331_Init+0xe>
    1dee:	00 00       	nop
	else return ((r / 8) << 11) | ((g / 4) << 5) | (b / 8);
}

inline static void LCD_Command(uint8_t cmd)
{
	LCD_U_CS
    1df0:	2a 98       	cbi	0x05, 2	; 5
	LCD_U_DC
    1df2:	29 98       	cbi	0x05, 1	; 5
	SPDR = cmd;
    1df4:	8e ea       	ldi	r24, 0xAE	; 174
    1df6:	8e bd       	out	0x2e, r24	; 46
	while(!(SPSR & (1 << SPIF)));
    1df8:	0d b4       	in	r0, 0x2d	; 45
    1dfa:	07 fe       	sbrs	r0, 7
    1dfc:	fd cf       	rjmp	.-6      	; 0x1df8 <SSD1331_Init+0x18>
	LCD_S_CS
    1dfe:	2a 9a       	sbi	0x05, 2	; 5
	else return ((r / 8) << 11) | ((g / 4) << 5) | (b / 8);
}

inline static void LCD_Command(uint8_t cmd)
{
	LCD_U_CS
    1e00:	2a 98       	cbi	0x05, 2	; 5
	LCD_U_DC
    1e02:	29 98       	cbi	0x05, 1	; 5
	SPDR = cmd;
    1e04:	81 e8       	ldi	r24, 0x81	; 129
    1e06:	8e bd       	out	0x2e, r24	; 46
	while(!(SPSR & (1 << SPIF)));
    1e08:	0d b4       	in	r0, 0x2d	; 45
    1e0a:	07 fe       	sbrs	r0, 7
    1e0c:	fd cf       	rjmp	.-6      	; 0x1e08 <SSD1331_Init+0x28>
	LCD_S_CS
    1e0e:	2a 9a       	sbi	0x05, 2	; 5
	else return ((r / 8) << 11) | ((g / 4) << 5) | (b / 8);
}

inline static void LCD_Command(uint8_t cmd)
{
	LCD_U_CS
    1e10:	2a 98       	cbi	0x05, 2	; 5
	LCD_U_DC
    1e12:	29 98       	cbi	0x05, 1	; 5
	SPDR = cmd;
    1e14:	81 e9       	ldi	r24, 0x91	; 145
    1e16:	8e bd       	out	0x2e, r24	; 46
	while(!(SPSR & (1 << SPIF)));
    1e18:	0d b4       	in	r0, 0x2d	; 45
    1e1a:	07 fe       	sbrs	r0, 7
    1e1c:	fd cf       	rjmp	.-6      	; 0x1e18 <SSD1331_Init+0x38>
	LCD_S_CS
    1e1e:	2a 9a       	sbi	0x05, 2	; 5
	else return ((r / 8) << 11) | ((g / 4) << 5) | (b / 8);
}

inline static void LCD_Command(uint8_t cmd)
{
	LCD_U_CS
    1e20:	2a 98       	cbi	0x05, 2	; 5
	LCD_U_DC
    1e22:	29 98       	cbi	0x05, 1	; 5
	SPDR = cmd;
    1e24:	82 e8       	ldi	r24, 0x82	; 130
    1e26:	8e bd       	out	0x2e, r24	; 46
	while(!(SPSR & (1 << SPIF)));
    1e28:	0d b4       	in	r0, 0x2d	; 45
    1e2a:	07 fe       	sbrs	r0, 7
    1e2c:	fd cf       	rjmp	.-6      	; 0x1e28 <SSD1331_Init+0x48>
	LCD_S_CS
    1e2e:	2a 9a       	sbi	0x05, 2	; 5
	else return ((r / 8) << 11) | ((g / 4) << 5) | (b / 8);
}

inline static void LCD_Command(uint8_t cmd)
{
	LCD_U_CS
    1e30:	2a 98       	cbi	0x05, 2	; 5
	LCD_U_DC
    1e32:	29 98       	cbi	0x05, 1	; 5
	SPDR = cmd;
    1e34:	80 e5       	ldi	r24, 0x50	; 80
    1e36:	8e bd       	out	0x2e, r24	; 46
	while(!(SPSR & (1 << SPIF)));
    1e38:	0d b4       	in	r0, 0x2d	; 45
    1e3a:	07 fe       	sbrs	r0, 7
    1e3c:	fd cf       	rjmp	.-6      	; 0x1e38 <SSD1331_Init+0x58>
	LCD_S_CS
    1e3e:	2a 9a       	sbi	0x05, 2	; 5
	else return ((r / 8) << 11) | ((g / 4) << 5) | (b / 8);
}

inline static void LCD_Command(uint8_t cmd)
{
	LCD_U_CS
    1e40:	2a 98       	cbi	0x05, 2	; 5
	LCD_U_DC
    1e42:	29 98       	cbi	0x05, 1	; 5
	SPDR = cmd;
    1e44:	83 e8       	ldi	r24, 0x83	; 131
    1e46:	8e bd       	out	0x2e, r24	; 46
	while(!(SPSR & (1 << SPIF)));
    1e48:	0d b4       	in	r0, 0x2d	; 45
    1e4a:	07 fe       	sbrs	r0, 7
    1e4c:	fd cf       	rjmp	.-6      	; 0x1e48 <SSD1331_Init+0x68>
	LCD_S_CS
    1e4e:	2a 9a       	sbi	0x05, 2	; 5
	else return ((r / 8) << 11) | ((g / 4) << 5) | (b / 8);
}

inline static void LCD_Command(uint8_t cmd)
{
	LCD_U_CS
    1e50:	2a 98       	cbi	0x05, 2	; 5
	LCD_U_DC
    1e52:	29 98       	cbi	0x05, 1	; 5
	SPDR = cmd;
    1e54:	8d e7       	ldi	r24, 0x7D	; 125
    1e56:	8e bd       	out	0x2e, r24	; 46
	while(!(SPSR & (1 << SPIF)));
    1e58:	0d b4       	in	r0, 0x2d	; 45
    1e5a:	07 fe       	sbrs	r0, 7
    1e5c:	fd cf       	rjmp	.-6      	; 0x1e58 <SSD1331_Init+0x78>
	LCD_S_CS
    1e5e:	2a 9a       	sbi	0x05, 2	; 5
	else return ((r / 8) << 11) | ((g / 4) << 5) | (b / 8);
}

inline static void LCD_Command(uint8_t cmd)
{
	LCD_U_CS
    1e60:	2a 98       	cbi	0x05, 2	; 5
	LCD_U_DC
    1e62:	29 98       	cbi	0x05, 1	; 5
	SPDR = cmd;
    1e64:	87 e8       	ldi	r24, 0x87	; 135
    1e66:	8e bd       	out	0x2e, r24	; 46
	while(!(SPSR & (1 << SPIF)));
    1e68:	0d b4       	in	r0, 0x2d	; 45
    1e6a:	07 fe       	sbrs	r0, 7
    1e6c:	fd cf       	rjmp	.-6      	; 0x1e68 <SSD1331_Init+0x88>
	LCD_S_CS
    1e6e:	2a 9a       	sbi	0x05, 2	; 5
	else return ((r / 8) << 11) | ((g / 4) << 5) | (b / 8);
}

inline static void LCD_Command(uint8_t cmd)
{
	LCD_U_CS
    1e70:	2a 98       	cbi	0x05, 2	; 5
	LCD_U_DC
    1e72:	29 98       	cbi	0x05, 1	; 5
	SPDR = cmd;
    1e74:	86 e0       	ldi	r24, 0x06	; 6
    1e76:	8e bd       	out	0x2e, r24	; 46
	while(!(SPSR & (1 << SPIF)));
    1e78:	0d b4       	in	r0, 0x2d	; 45
    1e7a:	07 fe       	sbrs	r0, 7
    1e7c:	fd cf       	rjmp	.-6      	; 0x1e78 <SSD1331_Init+0x98>
	LCD_S_CS
    1e7e:	2a 9a       	sbi	0x05, 2	; 5
	else return ((r / 8) << 11) | ((g / 4) << 5) | (b / 8);
}

inline static void LCD_Command(uint8_t cmd)
{
	LCD_U_CS
    1e80:	2a 98       	cbi	0x05, 2	; 5
	LCD_U_DC
    1e82:	29 98       	cbi	0x05, 1	; 5
	SPDR = cmd;
    1e84:	8a e8       	ldi	r24, 0x8A	; 138
    1e86:	8e bd       	out	0x2e, r24	; 46
	while(!(SPSR & (1 << SPIF)));
    1e88:	0d b4       	in	r0, 0x2d	; 45
    1e8a:	07 fe       	sbrs	r0, 7
    1e8c:	fd cf       	rjmp	.-6      	; 0x1e88 <SSD1331_Init+0xa8>
	LCD_S_CS
    1e8e:	2a 9a       	sbi	0x05, 2	; 5
	else return ((r / 8) << 11) | ((g / 4) << 5) | (b / 8);
}

inline static void LCD_Command(uint8_t cmd)
{
	LCD_U_CS
    1e90:	2a 98       	cbi	0x05, 2	; 5
	LCD_U_DC
    1e92:	29 98       	cbi	0x05, 1	; 5
	SPDR = cmd;
    1e94:	84 e6       	ldi	r24, 0x64	; 100
    1e96:	8e bd       	out	0x2e, r24	; 46
	while(!(SPSR & (1 << SPIF)));
    1e98:	0d b4       	in	r0, 0x2d	; 45
    1e9a:	07 fe       	sbrs	r0, 7
    1e9c:	fd cf       	rjmp	.-6      	; 0x1e98 <SSD1331_Init+0xb8>
	LCD_S_CS
    1e9e:	2a 9a       	sbi	0x05, 2	; 5
	else return ((r / 8) << 11) | ((g / 4) << 5) | (b / 8);
}

inline static void LCD_Command(uint8_t cmd)
{
	LCD_U_CS
    1ea0:	2a 98       	cbi	0x05, 2	; 5
	LCD_U_DC
    1ea2:	29 98       	cbi	0x05, 1	; 5
	SPDR = cmd;
    1ea4:	8b e8       	ldi	r24, 0x8B	; 139
    1ea6:	8e bd       	out	0x2e, r24	; 46
	while(!(SPSR & (1 << SPIF)));
    1ea8:	0d b4       	in	r0, 0x2d	; 45
    1eaa:	07 fe       	sbrs	r0, 7
    1eac:	fd cf       	rjmp	.-6      	; 0x1ea8 <SSD1331_Init+0xc8>
	LCD_S_CS
    1eae:	2a 9a       	sbi	0x05, 2	; 5
	else return ((r / 8) << 11) | ((g / 4) << 5) | (b / 8);
}

inline static void LCD_Command(uint8_t cmd)
{
	LCD_U_CS
    1eb0:	2a 98       	cbi	0x05, 2	; 5
	LCD_U_DC
    1eb2:	29 98       	cbi	0x05, 1	; 5
	SPDR = cmd;
    1eb4:	88 e7       	ldi	r24, 0x78	; 120
    1eb6:	8e bd       	out	0x2e, r24	; 46
	while(!(SPSR & (1 << SPIF)));
    1eb8:	0d b4       	in	r0, 0x2d	; 45
    1eba:	07 fe       	sbrs	r0, 7
    1ebc:	fd cf       	rjmp	.-6      	; 0x1eb8 <SSD1331_Init+0xd8>
	LCD_S_CS
    1ebe:	2a 9a       	sbi	0x05, 2	; 5
	else return ((r / 8) << 11) | ((g / 4) << 5) | (b / 8);
}

inline static void LCD_Command(uint8_t cmd)
{
	LCD_U_CS
    1ec0:	2a 98       	cbi	0x05, 2	; 5
	LCD_U_DC
    1ec2:	29 98       	cbi	0x05, 1	; 5
	SPDR = cmd;
    1ec4:	8c e8       	ldi	r24, 0x8C	; 140
    1ec6:	8e bd       	out	0x2e, r24	; 46
	while(!(SPSR & (1 << SPIF)));
    1ec8:	0d b4       	in	r0, 0x2d	; 45
    1eca:	07 fe       	sbrs	r0, 7
    1ecc:	fd cf       	rjmp	.-6      	; 0x1ec8 <SSD1331_Init+0xe8>
	LCD_S_CS
    1ece:	2a 9a       	sbi	0x05, 2	; 5
	else return ((r / 8) << 11) | ((g / 4) << 5) | (b / 8);
}

inline static void LCD_Command(uint8_t cmd)
{
	LCD_U_CS
    1ed0:	2a 98       	cbi	0x05, 2	; 5
	LCD_U_DC
    1ed2:	29 98       	cbi	0x05, 1	; 5
	SPDR = cmd;
    1ed4:	84 e6       	ldi	r24, 0x64	; 100
    1ed6:	8e bd       	out	0x2e, r24	; 46
	while(!(SPSR & (1 << SPIF)));
    1ed8:	0d b4       	in	r0, 0x2d	; 45
    1eda:	07 fe       	sbrs	r0, 7
    1edc:	fd cf       	rjmp	.-6      	; 0x1ed8 <SSD1331_Init+0xf8>
	LCD_S_CS
    1ede:	2a 9a       	sbi	0x05, 2	; 5
	else return ((r / 8) << 11) | ((g / 4) << 5) | (b / 8);
}

inline static void LCD_Command(uint8_t cmd)
{
	LCD_U_CS
    1ee0:	2a 98       	cbi	0x05, 2	; 5
	LCD_U_DC
    1ee2:	29 98       	cbi	0x05, 1	; 5
	SPDR = cmd;
    1ee4:	80 ea       	ldi	r24, 0xA0	; 160
    1ee6:	8e bd       	out	0x2e, r24	; 46
	while(!(SPSR & (1 << SPIF)));
    1ee8:	0d b4       	in	r0, 0x2d	; 45
    1eea:	07 fe       	sbrs	r0, 7
    1eec:	fd cf       	rjmp	.-6      	; 0x1ee8 <SSD1331_Init+0x108>
	LCD_S_CS
    1eee:	2a 9a       	sbi	0x05, 2	; 5
	else return ((r / 8) << 11) | ((g / 4) << 5) | (b / 8);
}

inline static void LCD_Command(uint8_t cmd)
{
	LCD_U_CS
    1ef0:	2a 98       	cbi	0x05, 2	; 5
	LCD_U_DC
    1ef2:	29 98       	cbi	0x05, 1	; 5
	SPDR = cmd;
    1ef4:	82 e7       	ldi	r24, 0x72	; 114
    1ef6:	8e bd       	out	0x2e, r24	; 46
	while(!(SPSR & (1 << SPIF)));
    1ef8:	0d b4       	in	r0, 0x2d	; 45
    1efa:	07 fe       	sbrs	r0, 7
    1efc:	fd cf       	rjmp	.-6      	; 0x1ef8 <SSD1331_Init+0x118>
	LCD_S_CS
    1efe:	2a 9a       	sbi	0x05, 2	; 5
	else return ((r / 8) << 11) | ((g / 4) << 5) | (b / 8);
}

inline static void LCD_Command(uint8_t cmd)
{
	LCD_U_CS
    1f00:	2a 98       	cbi	0x05, 2	; 5
	LCD_U_DC
    1f02:	29 98       	cbi	0x05, 1	; 5
	SPDR = cmd;
    1f04:	81 ea       	ldi	r24, 0xA1	; 161
    1f06:	8e bd       	out	0x2e, r24	; 46
	while(!(SPSR & (1 << SPIF)));
    1f08:	0d b4       	in	r0, 0x2d	; 45
    1f0a:	07 fe       	sbrs	r0, 7
    1f0c:	fd cf       	rjmp	.-6      	; 0x1f08 <SSD1331_Init+0x128>
	LCD_S_CS
    1f0e:	2a 9a       	sbi	0x05, 2	; 5
	else return ((r / 8) << 11) | ((g / 4) << 5) | (b / 8);
}

inline static void LCD_Command(uint8_t cmd)
{
	LCD_U_CS
    1f10:	2a 98       	cbi	0x05, 2	; 5
	LCD_U_DC
    1f12:	29 98       	cbi	0x05, 1	; 5
	SPDR = cmd;
    1f14:	1e bc       	out	0x2e, r1	; 46
	while(!(SPSR & (1 << SPIF)));
    1f16:	0d b4       	in	r0, 0x2d	; 45
    1f18:	07 fe       	sbrs	r0, 7
    1f1a:	fd cf       	rjmp	.-6      	; 0x1f16 <SSD1331_Init+0x136>
	LCD_S_CS
    1f1c:	2a 9a       	sbi	0x05, 2	; 5
	else return ((r / 8) << 11) | ((g / 4) << 5) | (b / 8);
}

inline static void LCD_Command(uint8_t cmd)
{
	LCD_U_CS
    1f1e:	2a 98       	cbi	0x05, 2	; 5
	LCD_U_DC
    1f20:	29 98       	cbi	0x05, 1	; 5
	SPDR = cmd;
    1f22:	82 ea       	ldi	r24, 0xA2	; 162
    1f24:	8e bd       	out	0x2e, r24	; 46
	while(!(SPSR & (1 << SPIF)));
    1f26:	0d b4       	in	r0, 0x2d	; 45
    1f28:	07 fe       	sbrs	r0, 7
    1f2a:	fd cf       	rjmp	.-6      	; 0x1f26 <SSD1331_Init+0x146>
	LCD_S_CS
    1f2c:	2a 9a       	sbi	0x05, 2	; 5
	else return ((r / 8) << 11) | ((g / 4) << 5) | (b / 8);
}

inline static void LCD_Command(uint8_t cmd)
{
	LCD_U_CS
    1f2e:	2a 98       	cbi	0x05, 2	; 5
	LCD_U_DC
    1f30:	29 98       	cbi	0x05, 1	; 5
	SPDR = cmd;
    1f32:	1e bc       	out	0x2e, r1	; 46
	while(!(SPSR & (1 << SPIF)));
    1f34:	0d b4       	in	r0, 0x2d	; 45
    1f36:	07 fe       	sbrs	r0, 7
    1f38:	fd cf       	rjmp	.-6      	; 0x1f34 <SSD1331_Init+0x154>
	LCD_S_CS
    1f3a:	2a 9a       	sbi	0x05, 2	; 5
	else return ((r / 8) << 11) | ((g / 4) << 5) | (b / 8);
}

inline static void LCD_Command(uint8_t cmd)
{
	LCD_U_CS
    1f3c:	2a 98       	cbi	0x05, 2	; 5
	LCD_U_DC
    1f3e:	29 98       	cbi	0x05, 1	; 5
	SPDR = cmd;
    1f40:	84 ea       	ldi	r24, 0xA4	; 164
    1f42:	8e bd       	out	0x2e, r24	; 46
	while(!(SPSR & (1 << SPIF)));
    1f44:	0d b4       	in	r0, 0x2d	; 45
    1f46:	07 fe       	sbrs	r0, 7
    1f48:	fd cf       	rjmp	.-6      	; 0x1f44 <SSD1331_Init+0x164>
	LCD_S_CS
    1f4a:	2a 9a       	sbi	0x05, 2	; 5
	else return ((r / 8) << 11) | ((g / 4) << 5) | (b / 8);
}

inline static void LCD_Command(uint8_t cmd)
{
	LCD_U_CS
    1f4c:	2a 98       	cbi	0x05, 2	; 5
	LCD_U_DC
    1f4e:	29 98       	cbi	0x05, 1	; 5
	SPDR = cmd;
    1f50:	88 ea       	ldi	r24, 0xA8	; 168
    1f52:	8e bd       	out	0x2e, r24	; 46
	while(!(SPSR & (1 << SPIF)));
    1f54:	0d b4       	in	r0, 0x2d	; 45
    1f56:	07 fe       	sbrs	r0, 7
    1f58:	fd cf       	rjmp	.-6      	; 0x1f54 <SSD1331_Init+0x174>
	LCD_S_CS
    1f5a:	2a 9a       	sbi	0x05, 2	; 5
	else return ((r / 8) << 11) | ((g / 4) << 5) | (b / 8);
}

inline static void LCD_Command(uint8_t cmd)
{
	LCD_U_CS
    1f5c:	2a 98       	cbi	0x05, 2	; 5
	LCD_U_DC
    1f5e:	29 98       	cbi	0x05, 1	; 5
	SPDR = cmd;
    1f60:	8f e3       	ldi	r24, 0x3F	; 63
    1f62:	8e bd       	out	0x2e, r24	; 46
	while(!(SPSR & (1 << SPIF)));
    1f64:	0d b4       	in	r0, 0x2d	; 45
    1f66:	07 fe       	sbrs	r0, 7
    1f68:	fd cf       	rjmp	.-6      	; 0x1f64 <SSD1331_Init+0x184>
	LCD_S_CS
    1f6a:	2a 9a       	sbi	0x05, 2	; 5
	else return ((r / 8) << 11) | ((g / 4) << 5) | (b / 8);
}

inline static void LCD_Command(uint8_t cmd)
{
	LCD_U_CS
    1f6c:	2a 98       	cbi	0x05, 2	; 5
	LCD_U_DC
    1f6e:	29 98       	cbi	0x05, 1	; 5
	SPDR = cmd;
    1f70:	8d ea       	ldi	r24, 0xAD	; 173
    1f72:	8e bd       	out	0x2e, r24	; 46
	while(!(SPSR & (1 << SPIF)));
    1f74:	0d b4       	in	r0, 0x2d	; 45
    1f76:	07 fe       	sbrs	r0, 7
    1f78:	fd cf       	rjmp	.-6      	; 0x1f74 <SSD1331_Init+0x194>
	LCD_S_CS
    1f7a:	2a 9a       	sbi	0x05, 2	; 5
	else return ((r / 8) << 11) | ((g / 4) << 5) | (b / 8);
}

inline static void LCD_Command(uint8_t cmd)
{
	LCD_U_CS
    1f7c:	2a 98       	cbi	0x05, 2	; 5
	LCD_U_DC
    1f7e:	29 98       	cbi	0x05, 1	; 5
	SPDR = cmd;
    1f80:	8e e8       	ldi	r24, 0x8E	; 142
    1f82:	8e bd       	out	0x2e, r24	; 46
	while(!(SPSR & (1 << SPIF)));
    1f84:	0d b4       	in	r0, 0x2d	; 45
    1f86:	07 fe       	sbrs	r0, 7
    1f88:	fd cf       	rjmp	.-6      	; 0x1f84 <SSD1331_Init+0x1a4>
	LCD_S_CS
    1f8a:	2a 9a       	sbi	0x05, 2	; 5
	else return ((r / 8) << 11) | ((g / 4) << 5) | (b / 8);
}

inline static void LCD_Command(uint8_t cmd)
{
	LCD_U_CS
    1f8c:	2a 98       	cbi	0x05, 2	; 5
	LCD_U_DC
    1f8e:	29 98       	cbi	0x05, 1	; 5
	SPDR = cmd;
    1f90:	80 eb       	ldi	r24, 0xB0	; 176
    1f92:	8e bd       	out	0x2e, r24	; 46
	while(!(SPSR & (1 << SPIF)));
    1f94:	0d b4       	in	r0, 0x2d	; 45
    1f96:	07 fe       	sbrs	r0, 7
    1f98:	fd cf       	rjmp	.-6      	; 0x1f94 <SSD1331_Init+0x1b4>
	LCD_S_CS
    1f9a:	2a 9a       	sbi	0x05, 2	; 5
	else return ((r / 8) << 11) | ((g / 4) << 5) | (b / 8);
}

inline static void LCD_Command(uint8_t cmd)
{
	LCD_U_CS
    1f9c:	2a 98       	cbi	0x05, 2	; 5
	LCD_U_DC
    1f9e:	29 98       	cbi	0x05, 1	; 5
	SPDR = cmd;
    1fa0:	1e bc       	out	0x2e, r1	; 46
	while(!(SPSR & (1 << SPIF)));
    1fa2:	0d b4       	in	r0, 0x2d	; 45
    1fa4:	07 fe       	sbrs	r0, 7
    1fa6:	fd cf       	rjmp	.-6      	; 0x1fa2 <SSD1331_Init+0x1c2>
	LCD_S_CS
    1fa8:	2a 9a       	sbi	0x05, 2	; 5
	else return ((r / 8) << 11) | ((g / 4) << 5) | (b / 8);
}

inline static void LCD_Command(uint8_t cmd)
{
	LCD_U_CS
    1faa:	2a 98       	cbi	0x05, 2	; 5
	LCD_U_DC
    1fac:	29 98       	cbi	0x05, 1	; 5
	SPDR = cmd;
    1fae:	81 eb       	ldi	r24, 0xB1	; 177
    1fb0:	8e bd       	out	0x2e, r24	; 46
	while(!(SPSR & (1 << SPIF)));
    1fb2:	0d b4       	in	r0, 0x2d	; 45
    1fb4:	07 fe       	sbrs	r0, 7
    1fb6:	fd cf       	rjmp	.-6      	; 0x1fb2 <SSD1331_Init+0x1d2>
	LCD_S_CS
    1fb8:	2a 9a       	sbi	0x05, 2	; 5
	else return ((r / 8) << 11) | ((g / 4) << 5) | (b / 8);
}

inline static void LCD_Command(uint8_t cmd)
{
	LCD_U_CS
    1fba:	2a 98       	cbi	0x05, 2	; 5
	LCD_U_DC
    1fbc:	29 98       	cbi	0x05, 1	; 5
	SPDR = cmd;
    1fbe:	81 e3       	ldi	r24, 0x31	; 49
    1fc0:	8e bd       	out	0x2e, r24	; 46
	while(!(SPSR & (1 << SPIF)));
    1fc2:	0d b4       	in	r0, 0x2d	; 45
    1fc4:	07 fe       	sbrs	r0, 7
    1fc6:	fd cf       	rjmp	.-6      	; 0x1fc2 <SSD1331_Init+0x1e2>
	LCD_S_CS
    1fc8:	2a 9a       	sbi	0x05, 2	; 5
	else return ((r / 8) << 11) | ((g / 4) << 5) | (b / 8);
}

inline static void LCD_Command(uint8_t cmd)
{
	LCD_U_CS
    1fca:	2a 98       	cbi	0x05, 2	; 5
	LCD_U_DC
    1fcc:	29 98       	cbi	0x05, 1	; 5
	SPDR = cmd;
    1fce:	83 eb       	ldi	r24, 0xB3	; 179
    1fd0:	8e bd       	out	0x2e, r24	; 46
	while(!(SPSR & (1 << SPIF)));
    1fd2:	0d b4       	in	r0, 0x2d	; 45
    1fd4:	07 fe       	sbrs	r0, 7
    1fd6:	fd cf       	rjmp	.-6      	; 0x1fd2 <SSD1331_Init+0x1f2>
	LCD_S_CS
    1fd8:	2a 9a       	sbi	0x05, 2	; 5
	else return ((r / 8) << 11) | ((g / 4) << 5) | (b / 8);
}

inline static void LCD_Command(uint8_t cmd)
{
	LCD_U_CS
    1fda:	2a 98       	cbi	0x05, 2	; 5
	LCD_U_DC
    1fdc:	29 98       	cbi	0x05, 1	; 5
	SPDR = cmd;
    1fde:	80 ef       	ldi	r24, 0xF0	; 240
    1fe0:	8e bd       	out	0x2e, r24	; 46
	while(!(SPSR & (1 << SPIF)));
    1fe2:	0d b4       	in	r0, 0x2d	; 45
    1fe4:	07 fe       	sbrs	r0, 7
    1fe6:	fd cf       	rjmp	.-6      	; 0x1fe2 <SSD1331_Init+0x202>
	LCD_S_CS
    1fe8:	2a 9a       	sbi	0x05, 2	; 5
	else return ((r / 8) << 11) | ((g / 4) << 5) | (b / 8);
}

inline static void LCD_Command(uint8_t cmd)
{
	LCD_U_CS
    1fea:	2a 98       	cbi	0x05, 2	; 5
	LCD_U_DC
    1fec:	29 98       	cbi	0x05, 1	; 5
	SPDR = cmd;
    1fee:	8b eb       	ldi	r24, 0xBB	; 187
    1ff0:	8e bd       	out	0x2e, r24	; 46
	while(!(SPSR & (1 << SPIF)));
    1ff2:	0d b4       	in	r0, 0x2d	; 45
    1ff4:	07 fe       	sbrs	r0, 7
    1ff6:	fd cf       	rjmp	.-6      	; 0x1ff2 <SSD1331_Init+0x212>
	LCD_S_CS
    1ff8:	2a 9a       	sbi	0x05, 2	; 5
	else return ((r / 8) << 11) | ((g / 4) << 5) | (b / 8);
}

inline static void LCD_Command(uint8_t cmd)
{
	LCD_U_CS
    1ffa:	2a 98       	cbi	0x05, 2	; 5
	LCD_U_DC
    1ffc:	29 98       	cbi	0x05, 1	; 5
	SPDR = cmd;
    1ffe:	8a e3       	ldi	r24, 0x3A	; 58
    2000:	8e bd       	out	0x2e, r24	; 46
	while(!(SPSR & (1 << SPIF)));
    2002:	0d b4       	in	r0, 0x2d	; 45
    2004:	07 fe       	sbrs	r0, 7
    2006:	fd cf       	rjmp	.-6      	; 0x2002 <SSD1331_Init+0x222>
	LCD_S_CS
    2008:	2a 9a       	sbi	0x05, 2	; 5
	else return ((r / 8) << 11) | ((g / 4) << 5) | (b / 8);
}

inline static void LCD_Command(uint8_t cmd)
{
	LCD_U_CS
    200a:	2a 98       	cbi	0x05, 2	; 5
	LCD_U_DC
    200c:	29 98       	cbi	0x05, 1	; 5
	SPDR = cmd;
    200e:	8e eb       	ldi	r24, 0xBE	; 190
    2010:	8e bd       	out	0x2e, r24	; 46
	while(!(SPSR & (1 << SPIF)));
    2012:	0d b4       	in	r0, 0x2d	; 45
    2014:	07 fe       	sbrs	r0, 7
    2016:	fd cf       	rjmp	.-6      	; 0x2012 <SSD1331_Init+0x232>
	LCD_S_CS
    2018:	2a 9a       	sbi	0x05, 2	; 5
	else return ((r / 8) << 11) | ((g / 4) << 5) | (b / 8);
}

inline static void LCD_Command(uint8_t cmd)
{
	LCD_U_CS
    201a:	2a 98       	cbi	0x05, 2	; 5
	LCD_U_DC
    201c:	29 98       	cbi	0x05, 1	; 5
	SPDR = cmd;
    201e:	8e e3       	ldi	r24, 0x3E	; 62
    2020:	8e bd       	out	0x2e, r24	; 46
	while(!(SPSR & (1 << SPIF)));
    2022:	0d b4       	in	r0, 0x2d	; 45
    2024:	07 fe       	sbrs	r0, 7
    2026:	fd cf       	rjmp	.-6      	; 0x2022 <SSD1331_Init+0x242>
	LCD_S_CS
    2028:	2a 9a       	sbi	0x05, 2	; 5
	else return ((r / 8) << 11) | ((g / 4) << 5) | (b / 8);
}

inline static void LCD_Command(uint8_t cmd)
{
	LCD_U_CS
    202a:	2a 98       	cbi	0x05, 2	; 5
	LCD_U_DC
    202c:	29 98       	cbi	0x05, 1	; 5
	SPDR = cmd;
    202e:	8e e2       	ldi	r24, 0x2E	; 46
    2030:	8e bd       	out	0x2e, r24	; 46
	while(!(SPSR & (1 << SPIF)));
    2032:	0d b4       	in	r0, 0x2d	; 45
    2034:	07 fe       	sbrs	r0, 7
    2036:	fd cf       	rjmp	.-6      	; 0x2032 <SSD1331_Init+0x252>
	LCD_S_CS
    2038:	2a 9a       	sbi	0x05, 2	; 5
	else return ((r / 8) << 11) | ((g / 4) << 5) | (b / 8);
}

inline static void LCD_Command(uint8_t cmd)
{
	LCD_U_CS
    203a:	2a 98       	cbi	0x05, 2	; 5
	LCD_U_DC
    203c:	29 98       	cbi	0x05, 1	; 5
	SPDR = cmd;
    203e:	8f ea       	ldi	r24, 0xAF	; 175
    2040:	8e bd       	out	0x2e, r24	; 46
	while(!(SPSR & (1 << SPIF)));
    2042:	0d b4       	in	r0, 0x2d	; 45
    2044:	07 fe       	sbrs	r0, 7
    2046:	fd cf       	rjmp	.-6      	; 0x2042 <SSD1331_Init+0x262>
	LCD_S_CS
    2048:	2a 9a       	sbi	0x05, 2	; 5
    204a:	87 e8       	ldi	r24, 0x87	; 135
    204c:	93 e1       	ldi	r25, 0x13	; 19
    204e:	01 97       	sbiw	r24, 0x01	; 1
    2050:	f1 f7       	brne	.-4      	; 0x204e <SSD1331_Init+0x26e>
    2052:	00 c0       	rjmp	.+0      	; 0x2054 <SSD1331_Init+0x274>
    2054:	00 00       	nop
	LCD_Command(CMD_SET_V_VOLTAGE);        //Set vcomH
	LCD_Command(0x3E);
	LCD_Command(CMD_DEACTIVE_SCROLLING);   //disable scrolling
	LCD_Command(CMD_NORMAL_BRIGHTNESS_DISPLAY_ON);//set display on
	_delay_ms(1);
	SSD1331_clearWindow(0, 0, 95, 63);
    2056:	2f e3       	ldi	r18, 0x3F	; 63
    2058:	30 e0       	ldi	r19, 0x00	; 0
    205a:	4f e5       	ldi	r20, 0x5F	; 95
    205c:	50 e0       	ldi	r21, 0x00	; 0
    205e:	60 e0       	ldi	r22, 0x00	; 0
    2060:	70 e0       	ldi	r23, 0x00	; 0
    2062:	80 e0       	ldi	r24, 0x00	; 0
    2064:	90 e0       	ldi	r25, 0x00	; 0
    2066:	0e 94 65 0e 	call	0x1cca	; 0x1cca <SSD1331_clearWindow>
    206a:	87 e8       	ldi	r24, 0x87	; 135
    206c:	93 e1       	ldi	r25, 0x13	; 19
    206e:	01 97       	sbiw	r24, 0x01	; 1
    2070:	f1 f7       	brne	.-4      	; 0x206e <SSD1331_Init+0x28e>
    2072:	00 c0       	rjmp	.+0      	; 0x2074 <SSD1331_Init+0x294>
    2074:	00 00       	nop
    2076:	08 95       	ret

00002078 <memcpy_P>:
    2078:	fb 01       	movw	r30, r22
    207a:	dc 01       	movw	r26, r24
    207c:	02 c0       	rjmp	.+4      	; 0x2082 <memcpy_P+0xa>
    207e:	05 90       	lpm	r0, Z+
    2080:	0d 92       	st	X+, r0
    2082:	41 50       	subi	r20, 0x01	; 1
    2084:	50 40       	sbci	r21, 0x00	; 0
    2086:	d8 f7       	brcc	.-10     	; 0x207e <memcpy_P+0x6>
    2088:	08 95       	ret

0000208a <_exit>:
    208a:	f8 94       	cli

0000208c <__stop_program>:
    208c:	ff cf       	rjmp	.-2      	; 0x208c <__stop_program>
