
ILI9341_AVR.elf:     file format elf32-avr

Sections:
Idx Name          Size      VMA       LMA       File off  Algn
  0 .data         00000062  00800100  00003520  000035b4  2**0
                  CONTENTS, ALLOC, LOAD, DATA
  1 .text         00003520  00000000  00000000  00000094  2**1
                  CONTENTS, ALLOC, LOAD, READONLY, CODE
  2 .bss          00000004  00800162  00800162  00003616  2**0
                  ALLOC
  3 .comment      00000030  00000000  00000000  00003616  2**0
                  CONTENTS, READONLY
  4 .note.gnu.avr.deviceinfo 00000040  00000000  00000000  00003648  2**2
                  CONTENTS, READONLY
  5 .debug_aranges 000000e8  00000000  00000000  00003688  2**0
                  CONTENTS, READONLY, DEBUGGING
  6 .debug_info   00005d07  00000000  00000000  00003770  2**0
                  CONTENTS, READONLY, DEBUGGING
  7 .debug_abbrev 00000a82  00000000  00000000  00009477  2**0
                  CONTENTS, READONLY, DEBUGGING
  8 .debug_line   00001fa5  00000000  00000000  00009ef9  2**0
                  CONTENTS, READONLY, DEBUGGING
  9 .debug_frame  0000062c  00000000  00000000  0000bea0  2**2
                  CONTENTS, READONLY, DEBUGGING
 10 .debug_str    0000226c  00000000  00000000  0000c4cc  2**0
                  CONTENTS, READONLY, DEBUGGING
 11 .debug_loc    0000351f  00000000  00000000  0000e738  2**0
                  CONTENTS, READONLY, DEBUGGING
 12 .debug_ranges 00000188  00000000  00000000  00011c57  2**0
                  CONTENTS, READONLY, DEBUGGING

Disassembly of section .text:

00000000 <__vectors>:
       0:	0c 94 cb 0c 	jmp	0x1996	; 0x1996 <__ctors_end>
       4:	0c 94 e8 0c 	jmp	0x19d0	; 0x19d0 <__bad_interrupt>
       8:	0c 94 e8 0c 	jmp	0x19d0	; 0x19d0 <__bad_interrupt>
       c:	0c 94 e8 0c 	jmp	0x19d0	; 0x19d0 <__bad_interrupt>
      10:	0c 94 e8 0c 	jmp	0x19d0	; 0x19d0 <__bad_interrupt>
      14:	0c 94 e8 0c 	jmp	0x19d0	; 0x19d0 <__bad_interrupt>
      18:	0c 94 e8 0c 	jmp	0x19d0	; 0x19d0 <__bad_interrupt>
      1c:	0c 94 e8 0c 	jmp	0x19d0	; 0x19d0 <__bad_interrupt>
      20:	0c 94 e8 0c 	jmp	0x19d0	; 0x19d0 <__bad_interrupt>
      24:	0c 94 e8 0c 	jmp	0x19d0	; 0x19d0 <__bad_interrupt>
      28:	0c 94 e8 0c 	jmp	0x19d0	; 0x19d0 <__bad_interrupt>
      2c:	0c 94 e8 0c 	jmp	0x19d0	; 0x19d0 <__bad_interrupt>
      30:	0c 94 e8 0c 	jmp	0x19d0	; 0x19d0 <__bad_interrupt>
      34:	0c 94 e8 0c 	jmp	0x19d0	; 0x19d0 <__bad_interrupt>
      38:	0c 94 e8 0c 	jmp	0x19d0	; 0x19d0 <__bad_interrupt>
      3c:	0c 94 e8 0c 	jmp	0x19d0	; 0x19d0 <__bad_interrupt>
      40:	0c 94 e8 0c 	jmp	0x19d0	; 0x19d0 <__bad_interrupt>
      44:	0c 94 e8 0c 	jmp	0x19d0	; 0x19d0 <__bad_interrupt>
      48:	0c 94 e8 0c 	jmp	0x19d0	; 0x19d0 <__bad_interrupt>
      4c:	0c 94 e8 0c 	jmp	0x19d0	; 0x19d0 <__bad_interrupt>
      50:	0c 94 e8 0c 	jmp	0x19d0	; 0x19d0 <__bad_interrupt>
      54:	0c 94 e8 0c 	jmp	0x19d0	; 0x19d0 <__bad_interrupt>
      58:	0c 94 e8 0c 	jmp	0x19d0	; 0x19d0 <__bad_interrupt>
      5c:	0c 94 e8 0c 	jmp	0x19d0	; 0x19d0 <__bad_interrupt>
      60:	0c 94 e8 0c 	jmp	0x19d0	; 0x19d0 <__bad_interrupt>
      64:	0c 94 e8 0c 	jmp	0x19d0	; 0x19d0 <__bad_interrupt>

00000068 <Font_32_Segment_7_Num_Plus>:
      68:	ca 00 6f 00 2e 3a 32                                ..o..:2

0000006f <Font_32_Segment_7_Num_PlusGlyphs>:
      6f:	00 00 07 07 20 0e f5 07 00 00 00 20 00 00 07 00     .... ...... ....
      7f:	1b 2e 20 02 d1 a3 00 06 27 20 17 d4 c1 00 1b 2e     .. .....' ......
      8f:	20 02 d1 5d 01 19 2e 20 04 d1 ed 01 1b 27 20 02      ..]... .....' .
      9f:	d4 71 02 1b 2e 20 02 d1 0d 03 1b 2e 20 02 d1 a9     .q... ...... ...
      af:	03 17 2a 20 06 d1 22 04 1b 2e 20 02 d1 be 04 1b     ..* .."... .....
      bf:	2e 20 02 d1 5a 05 07 1c 20 0e db                    . ..Z... ..

000000ca <Font_32_Segment_7_Num_PlusBitmaps>:
      ca:	38 fb ff ff ef 8e 00 03 ff f8 00 ff ff 80 3f ff     8.............?.
      da:	f8 03 ff fe c3 3f ff bc f0 00 0f ff 00 01 ff e0     .....?..........
      ea:	00 3f fc 00 07 ff 80 00 ff f0 00 1f fe 00 03 ff     .?..............
      fa:	c0 00 7f f8 00 0f ff 00 01 ff e0 00 3f fc 00 07     ............?...
     10a:	ff 80 00 ff f0 00 1f fc 00 00 fe 00 00 07 00 00     ................
     11a:	00 40 00 00 04 00 00 00 e0 00 00 7f 00 00 3f f0     .@............?.
     12a:	00 1f fe 00 03 ff c0 00 7f f8 00 0f ff 00 01 ff     ................
     13a:	e0 00 3f fc 00 07 ff 80 00 ff f0 00 1f fe 00 03     ..?.............
     14a:	ff c0 00 7f f8 00 0f ff 00 01 ff e0 00 3f 78 00     .............?x.
     15a:	03 c6 7f ff 30 1f ff f0 07 ff ff 00 7f ff c0 07     ....0...........
     16a:	ff f0 00 31 ef ff ff ff ff ff ff ff ff ff ff 3c     ...1...........<
     17a:	30 40 00 33 ff ff ff ff ff ff ff ff ff ff fd e3     0@.3............
     18a:	00 03 ff f8 00 ff ff 80 3f ff f8 03 ff fe c0 3f     ........?......?
     19a:	ff bc 00 00 0f c0 00 01 f8 00 00 3f 00 00 07 e0     ...........?....
     1aa:	00 00 fc 00 00 1f 80 00 03 f0 00 00 7e 00 00 0f     ............~...
     1ba:	c0 00 01 f8 00 00 3f 00 00 07 e0 00 00 fc 00 00     ......?.........
     1ca:	1f 80 00 00 f0 7f ff 86 1f ff fc 4f ff ff e4 ff     ...........O....
     1da:	ff f8 e7 ff fc 1f 00 00 03 f0 00 00 7e 00 00 0f     ............~...
     1ea:	c0 00 01 f8 00 00 3f 00 00 07 e0 00 00 fc 00 00     ......?.........
     1fa:	1f 80 00 03 f0 00 00 7e 00 00 0f c0 00 01 f8 00     .......~........
     20a:	00 3f 00 00 07 e0 00 00 78 00 00 06 7f ff 00 1f     .?......x.......
     21a:	ff f0 07 ff ff 00 7f ff c0 07 ff f0 00 0f ff e0     ................
     22a:	0f ff f8 0f ff fe 03 ff fe c0 ff fe f0 00 00 fc     ................
     23a:	00 00 7e 00 00 3f 00 00 1f 80 00 0f c0 00 07 e0     ..~..?..........
     24a:	00 03 f0 00 01 f8 00 00 fc 00 00 7e 00 00 3f 00     ...........~..?.
     25a:	00 1f 80 00 0f c0 00 07 e0 00 00 f1 ff fe 19 ff     ................
     26a:	ff c7 ff ff f8 ff ff f8 1f ff f1 80 00 03 c0 00     ................
     27a:	07 e0 00 03 f0 00 01 f8 00 00 fc 00 00 7e 00 00     .............~..
     28a:	3f 00 00 1f 80 00 0f c0 00 07 e0 00 03 f0 00 01     ?...............
     29a:	f8 00 00 fc 00 00 7e 00 00 3f 00 00 0f 07 ff f3     ......~..?......
     2aa:	07 ff fc 07 ff ff 01 ff ff 00 7f ff 00 00 00 01     ................
     2ba:	86 00 00 79 e0 00 1f fe 00 03 ff c0 00 7f f8 00     ...y............
     2ca:	0f ff 00 01 ff e0 00 3f fc 00 07 ff 80 00 ff f0     .......?........
     2da:	00 1f fe 00 03 ff c0 00 7f f8 00 0f ff 00 01 ff     ................
     2ea:	e0 00 3f f8 00 01 fc ff ff 0e 3f ff f8 9f ff ff     ..?.......?.....
     2fa:	c1 ff ff f0 0f ff f8 c0 00 00 78 00 00 3f 00 00     ..........x..?..
     30a:	07 e0 00 00 fc 00 00 1f 80 00 03 f0 00 00 7e 00     ..............~.
     31a:	00 0f c0 00 01 f8 00 00 3f 00 00 07 e0 00 00 fc     ........?.......
     32a:	00 00 1f 80 00 03 f0 00 00 7e 00 00 07 80 00 00     .........~......
     33a:	60 03 ff f8 00 ff ff 80 3f ff f8 03 ff fe 03 3f     `.......?......?
     34a:	ff 80 f0 00 00 3f 00 00 07 e0 00 00 fc 00 00 1f     .....?..........
     35a:	80 00 03 f0 00 00 7e 00 00 0f c0 00 01 f8 00 00     ......~.........
     36a:	3f 00 00 07 e0 00 00 fc 00 00 1f 80 00 03 f0 00     ?...............
     37a:	00 7c 00 00 0e 7f ff 81 1f ff fc 0f ff ff e0 ff     .|..............
     38a:	ff f8 07 ff fc 60 00 00 3c 00 00 1f 80 00 03 f0     .....`..<.......
     39a:	00 00 7e 00 00 0f c0 00 01 f8 00 00 3f 00 00 07     ..~.........?...
     3aa:	e0 00 00 fc 00 00 1f 80 00 03 f0 00 00 7e 00 00     .............~..
     3ba:	0f c0 00 01 f8 00 00 3f 00 00 03 c0 7f ff 30 1f     .......?......0.
     3ca:	ff f0 07 ff ff 00 7f ff c0 07 ff f0 00 03 ff f8     ................
     3da:	00 ff ff 80 3f ff f8 03 ff fe 03 3f ff 80 f0 00     ....?......?....
     3ea:	00 3f 00 00 07 e0 00 00 fc 00 00 1f 80 00 03 f0     .?..............
     3fa:	00 00 7e 00 00 0f c0 00 01 f8 00 00 3f 00 00 07     ..~.........?...
     40a:	e0 00 00 fc 00 00 1f 80 00 03 f0 00 00 7c 00 00     .............|..
     41a:	0e 7f ff 81 1f ff fc 0f ff ff e4 ff ff f8 e7 ff     ................
     42a:	fc 7f 00 00 3f f0 00 1f fe 00 03 ff c0 00 7f f8     ....?...........
     43a:	00 0f ff 00 01 ff e0 00 3f fc 00 07 ff 80 00 ff     ........?.......
     44a:	f0 00 1f fe 00 03 ff c0 00 7f f8 00 0f ff 00 01     ................
     45a:	ff e0 00 3f 78 00 03 c6 7f ff 30 1f ff f0 07 ff     ...?x.....0.....
     46a:	ff 00 7f ff c0 07 ff f0 00 3f ff 80 ff ff 83 ff     .........?......
     47a:	ff 83 ff fe c3 ff fb c0 00 0f c0 00 1f 80 00 3f     ...............?
     48a:	00 00 7e 00 00 fc 00 01 f8 00 03 f0 00 07 e0 00     ..~.............
     49a:	0f c0 00 1f 80 00 3f 00 00 7e 00 00 fc 00 01 f8     ......?..~......
     4aa:	00 00 f0 00 00 60 00 00 40 00 00 00 00 00 00 00     .....`..@.......
     4ba:	06 00 00 3c 00 01 f8 00 03 f0 00 07 e0 00 0f c0     ...<............
     4ca:	00 1f 80 00 3f 00 00 7e 00 00 fc 00 01 f8 00 03     ....?..~........
     4da:	f0 00 07 e0 00 0f c0 00 1f 80 00 3f 00 00 3c 00     ...........?..<.
     4ea:	00 30 03 ff f8 00 ff ff 80 3f ff f8 03 ff fe c3     .0.......?......
     4fa:	3f ff bc f0 00 0f ff 00 01 ff e0 00 3f fc 00 07     ?...........?...
     50a:	ff 80 00 ff f0 00 1f fe 00 03 ff c0 00 7f f8 00     ................
     51a:	0f ff 00 01 ff e0 00 3f fc 00 07 ff 80 00 ff f0     .......?........
     52a:	00 1f fc 00 00 fe 7f ff 87 1f ff fc 4f ff ff e4     ............O...
     53a:	ff ff f8 e7 ff fc 7f 00 00 3f f0 00 1f fe 00 03     .........?......
     54a:	ff c0 00 7f f8 00 0f ff 00 01 ff e0 00 3f fc 00     .............?..
     55a:	07 ff 80 00 ff f0 00 1f fe 00 03 ff c0 00 7f f8     ................
     56a:	00 0f ff 00 01 ff e0 00 3f 78 00 03 c6 7f ff 30     ........?x.....0
     57a:	1f ff f0 07 ff ff 00 7f ff c0 07 ff f0 00 03 ff     ................
     58a:	f8 00 ff ff 80 3f ff f8 03 ff fe c3 3f ff bc f0     .....?......?...
     59a:	00 0f ff 00 01 ff e0 00 3f fc 00 07 ff 80 00 ff     ........?.......
     5aa:	f0 00 1f fe 00 03 ff c0 00 7f f8 00 0f ff 00 01     ................
     5ba:	ff e0 00 3f fc 00 07 ff 80 00 ff f0 00 1f fc 00     ...?............
     5ca:	00 fe 7f ff 87 1f ff fc 4f ff ff e0 ff ff f8 07     ........O.......
     5da:	ff fc 60 00 00 3c 00 00 1f 80 00 03 f0 00 00 7e     ..`..<.........~
     5ea:	00 00 0f c0 00 01 f8 00 00 3f 00 00 07 e0 00 00     .........?......
     5fa:	fc 00 00 1f 80 00 03 f0 00 00 7e 00 00 0f c0 00     ..........~.....
     60a:	01 f8 00 00 3f 00 00 03 c0 7f ff 30 1f ff f0 07     ....?......0....
     61a:	ff ff 00 7f ff c0 07 ff f0 00 38 fb ff ff ef 8e     ..........8.....
	...
     636:	07 1f 7f ff fd f1 c0                                .......

0000063d <Font_9_Serif_Bold>:
     63d:	dd 08 44 06 20 7e 16                                ..D. ~.

00000644 <Font_9_Serif_BoldGlyphs>:
     644:	00 00 00 00 05 00 01 00 00 03 0c 06 01 f5 05 00     ................
     654:	06 05 0a 02 f5 09 00 09 0d 09 00 f4 18 00 08 0e     ................
     664:	09 01 f4 26 00 0e 0c 12 02 f5 3b 00 0d 0c 0f 01     ...&......;.....
     674:	f5 4f 00 02 05 05 01 f5 51 00 04 0f 06 01 f5 59     .O......Q......Y
     684:	00 04 0f 06 01 f5 61 00 07 07 09 02 f5 68 00 09     ......a......h..
     694:	09 0c 01 f8 73 00 03 06 04 01 fe 76 00 04 02 06     ....s......v....
     6a4:	01 fc 77 00 03 03 04 01 fe 79 00 06 0d 05 00 f5     ..w......y......
     6b4:	83 00 09 0c 09 00 f5 91 00 06 0c 09 01 f5 9a 00     ................
     6c4:	09 0c 09 00 f5 a8 00 08 0c 09 00 f5 b4 00 08 0c     ................
     6d4:	09 01 f5 c0 00 08 0c 09 01 f5 cc 00 08 0c 09 01     ................
     6e4:	f5 d8 00 09 0c 09 00 f5 e6 00 08 0c 09 01 f5 f2     ................
     6f4:	00 09 0c 09 00 f5 00 01 03 09 06 01 f8 04 01 03     ................
     704:	0c 06 02 f8 09 01 0a 0a 0c 01 f7 16 01 0a 05 0c     ................
     714:	01 fa 1d 01 0a 0a 0c 01 f8 2a 01 07 0c 09 01 f5     .........*......
     724:	35 01 0d 0c 11 02 f5 49 01 0d 0c 0d 00 f5 5d 01     5......I......].
     734:	0b 0c 0c 00 f5 6e 01 0b 0c 0d 01 f5 7f 01 0b 0c     .....n..........
     744:	0d 01 f5 90 01 0b 0c 0c 01 f5 a1 01 0a 0c 0b 01     ................
     754:	f5 b0 01 0c 0c 0e 01 f5 c2 01 0c 0c 0e 01 f5 d4     ................
     764:	01 05 0c 07 01 f5 dc 01 08 0e 09 00 f5 ea 01 0d     ................
     774:	0c 0e 01 f5 fe 01 0b 0c 0c 01 f5 0f 02 10 0c 11     ................
     784:	00 f5 27 02 0b 0c 0d 01 f5 38 02 0c 0c 0e 01 f5     ..'......8......
     794:	4a 02 0a 0c 0b 01 f5 59 02 0c 0f 0e 01 f5 70 02     J......Y......p.
     7a4:	0c 0c 0d 01 f5 82 02 08 0c 0a 01 f5 8e 02 0c 0c     ................
     7b4:	0c 00 f5 a0 02 0b 0c 0d 01 f5 b1 02 0d 0d 0d 00     ................
     7c4:	f5 c7 02 12 0c 12 00 f5 e2 02 0d 0c 0d 00 f5 f6     ................
     7d4:	02 0d 0c 0d 00 f5 0a 03 0b 0c 0c 01 f5 1b 03 04     ................
     7e4:	0f 06 01 f5 23 03 06 0d 05 00 f5 2d 03 04 0f 06     ....#......-....
     7f4:	01 f5 35 03 08 07 0a 01 f5 3c 03 09 01 09 00 03     ..5......<......
     804:	3e 03 04 03 06 00 f4 40 03 09 09 09 00 f8 4b 03     >......@......K.
     814:	0a 0c 0a 00 f5 5a 03 07 09 08 00 f8 62 03 0a 0c     .....Z......b...
     824:	0a 00 f5 71 03 08 09 08 00 f8 7a 03 07 0c 07 00     ...q......z.....
     834:	f5 85 03 07 0d 09 01 f8 91 03 0a 0c 0a 00 f5 a0     ................
     844:	03 05 0c 05 00 f5 a8 03 06 10 07 00 f5 b4 03 0a     ................
     854:	0c 0a 00 f5 c3 03 05 0c 05 00 f5 cb 03 0f 09 0f     ................
     864:	00 f8 dc 03 0a 09 0a 00 f8 e8 03 09 09 09 00 f8     ................
     874:	f3 03 0a 0d 0a 00 f8 04 04 0a 0d 0a 00 f8 15 04     ................
     884:	08 09 08 00 f8 1e 04 05 09 07 01 f8 24 04 06 0b     ............$...
     894:	06 00 f6 2d 04 0a 09 0a 00 f8 39 04 09 09 09 00     ...-......9.....
     8a4:	f8 44 04 0c 09 0d 00 f8 52 04 09 09 09 00 f8 5d     .D......R......]
     8b4:	04 08 0d 09 00 f8 6a 04 07 09 08 01 f8 72 04 05     ......j......r..
     8c4:	10 07 00 f4 7c 04 01 0d 04 01 f5 7e 04 05 10 07     ....|......~....
     8d4:	02 f4 88 04 08 02 09 01 fc                          .........

000008dd <Font_9_Serif_BoldBitmaps>:
     8dd:	ff f4 92 1f f0 cf 3c e3 88 13 09 84 c2 47 f9 90     ......<......G..
     8ed:	c8 4c ff 13 09 0c 86 40 10 38 d6 92 d2 f0 7c 3e     .L.....@.8....|>
     8fd:	17 93 93 d6 7c 10 3c 21 cf 0e 24 30 a0 c5 03 34     ....|.<!..$0...4
     90d:	e7 26 40 b9 04 c4 23 30 8c 84 1c 0f 00 cc 06 60     .&@...#0.......`
     91d:	3e 00 e7 8f 18 9c 8c e4 e3 c7 9e 3c 72 fd e0 ff     >..........<r...
     92d:	80 32 44 cc cc cc c4 62 10 84 22 33 33 33 32 64     .2D....b.."3332d
     93d:	80 31 6b b1 8e d6 8c 00 08 04 02 01 0f f8 40 20     .1k...........@ 
     94d:	10 08 00 df 95 00 ff ff 80 0c 21 86 10 c3 08 61     ..........!....a
     95d:	84 30 c0 1c 33 98 dc 7e 3f 1f 8f c7 e3 b1 98 c3     .0..3..~?.......
     96d:	80 08 e3 8e 38 e3 8e 38 e3 bf 3c 3f 23 c0 e0 70     ....8..8..<?#..p
     97d:	30 38 18 18 18 5f df e0 7c 8e 0e 0e 0c 1e 07 03     08..._..|.......
     98d:	03 02 e6 f8 06 0e 0e 3e 2e 4e 8e 8e ff ff 0e 0e     .......>.N......
     99d:	3f 7e 40 40 f8 fc 1e 06 02 02 e4 f8 07 1c 30 70     ?~@@..........0p
     9ad:	fc e6 e7 e7 e7 67 66 3c 7f 3f a0 d0 40 60 30 10     .....gf<.?..@`0.
     9bd:	18 0c 04 06 03 00 3c c6 c6 c6 fc 7c 3e cf c7 c7     ......<....|>...
     9cd:	c6 7c 3e 33 b8 dc 7e 3f 1d ce 7f 07 07 0f 1c 00     .|>3..~?........
     9dd:	ff 80 3f e0 ff 80 37 e5 40 00 00 70 78 78 78 38     ..?...7.@..pxxx8
     9ed:	03 80 3c 03 c0 30 ff c0 00 00 00 ff c0 c0 3c 03     ..<..0........<.
     9fd:	c0 1c 01 c1 e1 e1 e0 e0 00 00 3d 9f 3e 70 e1 04     ..........=.>p..
     a0d:	08 00 70 e1 c0 0f 81 83 18 c4 89 9c 4c e4 67 22     ..p.........L.g"
     a1d:	39 22 4f e3 00 0c 10 1f 00 02 00 30 01 c0 0e 00     9"O........0....
     a2d:	b8 05 c0 4f 02 38 3f e1 07 18 3d e3 f0 ff 87 1c     ...O.8?...=.....
     a3d:	e3 9c 73 9c 7f 0e 71 c7 38 e7 1c e7 7f c0 1f 26     ..s...q.8......&
     a4d:	1d c1 b0 1e 01 c0 38 07 00 e0 0e 04 e1 0f c0 ff     ......8.........
     a5d:	0e 71 c7 38 77 0e e1 dc 3b 87 70 ce 39 c6 7f 80     .q.8w...;.p.9...
     a6d:	ff ce 19 c1 38 87 30 fe 1c c3 88 70 2e 0d c3 7f     ....8.0....p....
     a7d:	e0 ff dc 37 05 c4 73 1f c7 31 c4 70 1c 07 03 e0     ...7..s..1.p....
     a8d:	1f 23 0e 70 6e 02 e0 0e 00 e1 fe 0e 60 e7 0e 38     .#.pn.......`..8
     a9d:	e0 f8 f9 f7 0e 70 e7 0e 70 e7 fe 70 e7 0e 70 e7     .....p..p..p..p.
     aad:	0e 70 ef 9f fb 9c e7 39 ce 73 9d f0 1f 0e 0e 0e     .p.....9.s......
     abd:	0e 0e 0e 0e 0e 0e 0e ce cc 78 f9 f3 82 1c 20 e2     .........x.... .
     acd:	07 20 3f 01 dc 0e 70 73 c3 8f 1c 3d f3 f0 f8 0e     . ?...ps...=....
     add:	01 c0 38 07 00 e0 1c 03 80 70 2e 09 c3 7f e0 f8     ..8......p......
     aed:	0f 3c 1e 3c 1e 2e 2e 2e 2e 26 4e 27 4e 27 4e 23     .<.<.....&N'N'N#
     afd:	8e 23 8e 21 0e 71 1f f0 ee 09 e1 3e 25 e4 9e 91     .#.!.q.....>%...
     b0d:	d2 1e 43 c8 39 03 70 20 1f 83 0c 70 ee 07 e0 7e     ..C.9.p ...p...~
     b1d:	07 e0 7e 07 e0 77 0e 30 c1 f8 ff 1c e7 1d c7 71     ..~..w.0.......q
     b2d:	dc e7 f1 c0 70 1c 07 03 e0 0f 83 9c 70 e6 06 e0     ....p.......p...
     b3d:	7e 07 e0 7e 07 e0 76 06 30 c1 98 0f 00 78 03 e0     ~..~..v.0....x..
     b4d:	ff 07 38 71 c7 1c 71 c7 38 7e 07 70 77 87 3c 71     ..8q..q.8~.pw.<q
     b5d:	ef 8f 39 47 c1 c0 f0 7c 3e 0f 83 c3 c6 bc ff fc     ..9G...|>.......
     b6d:	e3 8e 10 e0 0e 00 e0 0e 00 e0 0e 00 e0 0e 01 f0     ................
     b7d:	f8 ee 09 c1 38 27 04 e0 9c 13 82 70 4e 08 e2 0f     ....8'.....pN...
     b8d:	80 fc 7b c1 0e 08 70 81 c4 0e 20 7a 01 d0 0e 80     ..{...p... z....
     b9d:	38 01 c0 04 00 20 00 fd fb dc 38 43 87 10 e1 c4     8.... ....8C....
     bad:	38 f2 07 2e 81 d3 a0 34 70 0e 1c 03 87 00 60 80     8......4p.....`.
     bbd:	10 20 fe f3 c3 0f 10 39 00 f0 03 80 1e 01 70 09     . .....9......p.
     bcd:	c0 8f 08 3d f3 f0 fc 7b c1 8e 08 38 81 e8 07 40     ...=...{...8...@
     bdd:	1c 00 e0 07 00 38 01 c0 1f 00 ff d8 72 1e 43 80     .....8......r.C.
     bed:	e0 1c 07 01 c0 38 2e 0f 83 7f e0 fc cc cc cc cc     .....8..........
     bfd:	cc cc f0 c1 06 18 20 c3 04 18 60 83 0c f3 33 33     ...... ...`...33
     c0d:	33 33 33 33 f0 18 1c 34 26 62 43 c1 ff 80 c6 30     3333...4&bC....0
     c1d:	7c 63 b1 c0 e1 f3 3b 9d ce ff 80 f0 1c 07 01 dc     |c....;.........
     c2d:	7b 9c 77 1d c7 71 dc 77 39 3c 3c ed 9f 0e 1c 38     {.w..q.w9<<....8
     c3d:	39 3c 07 80 e0 38 ee 77 b8 ee 3b 8e e3 b8 e7 78     9<...8.w..;....x
     c4d:	ef 3c 66 e6 fe e0 e0 e0 72 3c 3e ed c7 c7 0e 1c     .<f.....r<>.....
     c5d:	38 70 e1 c7 c0 31 df bf 7e e7 90 60 fc fe 0c 17     8p...1..~..`....
     c6d:	c0 f0 1c 07 01 dc 7b 9c e7 39 ce 73 9c e7 3b ff     ......{..9.s..;.
     c7d:	73 9d e7 39 ce 73 9d f0 1c 71 cf 1c 71 c7 1c 71     s..9.s...q..q..q
     c8d:	c7 1c 7d be f0 1c 07 01 ce 71 1c 87 41 f8 77 1c     ..}......q..A.w.
     c9d:	e7 1b ef f3 9c e7 39 ce 73 9d f0 f7 38 f7 b9 ce     ......9.s...8...
     cad:	73 9c e7 39 ce 73 9c e7 39 ce ff fe f7 1e e7 39     s..9.s..9......9
     cbd:	ce 73 9c e7 39 ce ff c0 3e 31 b8 fc 7e 3f 1f 8e     .s..9...>1..~?..
     ccd:	c6 3e 00 f7 1e e7 1d c7 71 dc 77 1d ce 7f 1c 07     .>......q.w.....
     cdd:	01 c0 f8 00 3c 9c ee 3b 8e e3 b8 ee 39 ce 3f 80     ....<..;....9.?.
     ced:	e0 38 0e 07 c0 f7 7b 70 70 70 70 70 70 f8 7e 73     .8....{pppppp.~s
     cfd:	c7 8e 39 b0 10 cf 9c 71 c7 1c 71 d3 80 f7 9c e7     ..9....q..q.....
     d0d:	39 ce 73 9c e7 39 ce 3f c0 fb b8 8c 87 43 c0 e0     9.s..9.?.....C..
     d1d:	70 10 08 00 f7 b6 31 73 a3 3a 3d a3 dc 18 c1 88     p.....1s.:=.....
     d2d:	10 80 fb b8 8e 83 81 c0 f0 98 ce ef 80 f7 62 72     ..............br
     d3d:	34 34 3c 18 18 10 10 10 e0 e0 ff 1c 70 e3 87 1c     44<.........p...
     d4d:	71 fe 19 8c 63 18 cc 61 8c 63 18 c3 ff f8 c3 18     q...c..a.c......
     d5d:	c6 31 86 33 18 c6 31 98 f0 8e                       .1.3..1...

00000d67 <Font_8_Default>:
     d67:	07 10 6e 0d 20 7e 0c                                ..n. ~.

00000d6e <Font_8_DefaultGlyphs>:
     d6e:	00 00 00 00 08 00 00 00 00 01 08 08 02 f7 01 00     ................
     d7e:	04 03 08 01 f6 03 00 06 08 08 00 f7 09 00 05 0a     ................
     d8e:	08 00 f6 10 00 06 08 08 00 f7 16 00 06 08 08 00     ................
     d9e:	f7 1c 00 02 03 08 00 f6 1d 00 03 0a 08 03 f6 21     ...............!
     dae:	00 03 0a 08 01 f6 25 00 05 06 08 00 f8 29 00 05     ......%......)..
     dbe:	07 08 00 f7 2e 00 02 03 08 00 fe 2f 00 05 01 08     .........../....
     dce:	00 fa 30 00 01 01 08 01 fe 31 00 05 0a 08 00 f6     ..0......1......
     dde:	38 00 05 08 08 00 f7 3d 00 03 08 08 01 f7 40 00     8......=......@.
     dee:	05 08 08 00 f7 45 00 05 08 08 00 f7 4a 00 05 08     .....E......J...
     dfe:	08 00 f7 4f 00 05 08 08 00 f7 54 00 05 08 08 00     ...O......T.....
     e0e:	f7 59 00 05 08 08 00 f7 5e 00 05 08 08 00 f7 63     .Y......^......c
     e1e:	00 05 08 08 00 f7 68 00 01 06 08 02 f9 69 00 01     ......h......i..
     e2e:	06 08 02 fa 6a 00 05 09 08 01 f6 70 00 05 04 08     ....j......p....
     e3e:	00 f9 73 00 05 09 08 01 f6 79 00 05 08 08 00 f7     ..s......y......
     e4e:	7e 00 05 08 08 00 f7 83 00 06 08 08 00 f7 89 00     ~...............
     e5e:	05 08 08 00 f7 8e 00 05 08 08 00 f7 93 00 05 08     ................
     e6e:	08 00 f7 98 00 05 08 08 00 f7 9d 00 05 08 08 00     ................
     e7e:	f7 a2 00 06 08 08 00 f7 a8 00 06 08 08 00 f7 ae     ................
     e8e:	00 05 08 08 00 f7 b3 00 06 09 08 00 f7 ba 00 06     ................
     e9e:	08 08 00 f7 c0 00 06 08 08 00 f7 c6 00 05 08 08     ................
     eae:	00 f7 cb 00 06 08 08 00 f7 d1 00 05 08 08 00 f7     ................
     ebe:	d6 00 05 08 08 00 f7 db 00 05 09 08 00 f7 e1 00     ................
     ece:	06 08 08 00 f7 e7 00 05 08 08 00 f7 ec 00 05 08     ................
     ede:	08 00 f7 f1 00 06 08 08 00 f7 f7 00 06 08 08 00     ................
     eee:	f7 fd 00 05 08 08 00 f7 02 01 05 08 08 00 f7 07     ................
     efe:	01 05 08 08 00 f7 0c 01 05 08 08 00 f7 11 01 03     ................
     f0e:	0a 08 02 f6 15 01 04 09 08 01 f6 1a 01 03 0a 08     ................
     f1e:	01 f6 1e 01 03 02 08 01 f6 1f 01 06 01 08 00 00     ................
     f2e:	20 01 01 01 08 02 f6 21 01 05 05 08 01 fa 25 01      ......!......%.
     f3e:	05 08 08 00 f7 2a 01 04 05 08 01 fa 2d 01 05 08     .....*......-...
     f4e:	08 01 f7 32 01 04 05 08 01 fa 35 01 05 08 08 01     ...2......5.....
     f5e:	f7 3a 01 05 07 08 01 fa 3f 01 06 08 08 00 f7 45     .:......?......E
     f6e:	01 03 08 08 01 f7 48 01 04 0a 08 00 f7 4d 01 06     ......H......M..
     f7e:	08 08 00 f7 53 01 05 08 08 00 f7 58 01 05 05 08     ....S......X....
     f8e:	00 fa 5c 01 06 05 08 00 fa 60 01 04 05 08 01 fa     ..\......`......
     f9e:	63 01 05 07 08 00 fa 68 01 05 07 08 01 fa 6d 01     c......h......m.
     fae:	05 05 08 00 fa 71 01 04 05 08 01 fa 74 01 04 07     .....q......t...
     fbe:	08 01 f8 78 01 06 05 08 00 fa 7c 01 06 05 08 00     ...x......|.....
     fce:	fa 80 01 05 05 08 00 fa 84 01 05 05 08 00 fa 88     ................
     fde:	01 06 07 08 00 fa 8e 01 04 05 08 01 fa 91 01 03     ................
     fee:	0a 08 02 f6 95 01 01 0c 08 03 f5 97 01 03 0a 08     ................
     ffe:	01 f6 9b 01 06 03 08 00 f5                          .........

00001007 <Font_8_DefaultBitmaps>:
    1007:	fd 5a a0 28 af ca 53 f5 14 23 eb 46 18 b5 f1 00     .Z.(..S..#.F....
    1017:	4a ab 14 28 d5 52 21 45 1e aa a9 1b 58 2a 49 24     J..(.R!E....X*I$
    1027:	44 88 92 49 50 25 5c ea 90 21 09 f2 10 80 58 f8     D..IP%\..!....X.
    1037:	80 08 84 22 11 08 44 00 74 63 18 c6 2e 59 24 97     ..."..D.tc...Y$.
    1047:	74 62 22 22 1f 74 42 60 86 2e 11 94 a9 3c 43 fc     tb"".tB`.....<C.
    1057:	21 e0 86 2e 74 a1 e8 c6 2e fc 84 42 10 84 74 62     !...t......B..tb
    1067:	e8 c6 2e 74 63 17 85 2e 84 8c 08 88 88 20 82 08     ...tc........ ..
    1077:	f8 01 f0 82 08 20 88 88 80 74 62 22 10 04 74 67     ..... ...tb"..tg
    1087:	5a de 0f 20 83 14 51 e4 b3 f2 52 e4 a5 3e 7c 61     Z.. ..Q...R..>|a
    1097:	08 42 2e f2 52 94 a5 3e fa 54 e5 21 3f fa 54 e5     .B..R..>.T.!?.T.
    10a7:	21 1c 39 28 20 9e 24 8c cd 24 9e 49 24 b3 f9 08     !.9( .$..$.I$...
    10b7:	42 10 9f 7c 41 04 10 41 24 e0 ed 25 18 51 44 bb     B..|A..A$..%.QD.
    10c7:	e1 04 10 41 04 7f de f7 ba d6 b5 dd 26 9a 59 64     ...A........&.Yd
    10d7:	ba 74 63 18 c6 2e f2 52 e4 21 1c 74 63 18 f6 6e     .tc....R.!.tc..n
    10e7:	18 f1 24 9c 51 24 bb 7c 60 c1 06 3e fd 48 42 10     ..$.Q$.|`..>.HB.
    10f7:	8e cd 24 92 49 24 8c cd 24 94 50 c2 08 ad 6a e5     ..$.I$..$.P...j.
    1107:	29 4a da 94 42 29 5b da 94 42 10 8e fc 84 42 21     )J..B)[..B....B!
    1117:	3f f2 49 24 9c 88 84 42 22 10 e4 92 49 3c 54 fc     ?.I$...B"...I<T.
    1127:	80 64 9d 27 80 c2 10 e4 a5 2e 79 88 70 30 84 e9     .d.'......y.p0..
    1137:	4a 4f 69 f8 70 3a 11 e4 21 1e 7c 99 0f 45 c0 c1     JOi.p:..!.|..E..
    1147:	04 1c 49 24 bb 40 64 97 10 03 11 11 1e c1 04 17     ..I$.@d.........
    1157:	51 c4 bb e1 08 42 10 9f f5 6b 5a 80 f1 24 92 ec     Q....B...kZ..$..
    1167:	69 99 60 f2 52 97 23 80 74 a5 27 08 e0 db 10 8e     i.`.R.#.t.'.....
    1177:	00 f8 61 f0 44 e4 44 30 d9 24 92 3c ed 25 0c 20     ..a.D.D0.$.<.%. 
    1187:	ad 5c a5 00 da 88 ad 80 ed 25 0c 20 8c 00 f2 44     .\.......%. ...D
    1197:	f0 69 28 92 4c ff f0 c9 22 92 58 42 91 80           .i(.L...".XB..

000011a5 <Font_5_Org>:
    11a5:	45 14 ac 11 20 7e 07                                E... ~.

000011ac <Font_5_OrgGlyphs>:
    11ac:	00 00 00 00 06 00 01 00 00 01 05 02 00 fc 01 00     ................
    11bc:	03 01 04 00 fc 02 00 05 05 06 00 fc 06 00 05 05     ................
    11cc:	06 00 fc 0a 00 05 05 06 00 fc 0e 00 05 05 06 00     ................
    11dc:	fc 12 00 01 01 02 00 fc 13 00 02 05 03 00 fc 15     ................
    11ec:	00 02 05 03 00 fc 17 00 03 03 04 00 fd 19 00 03     ................
    11fc:	03 04 00 fd 1b 00 01 02 02 00 00 1c 00 04 01 05     ................
    120c:	00 fe 1d 00 01 01 02 00 00 1e 00 05 05 06 00 fc     ................
    121c:	22 00 05 05 06 00 fc 26 00 01 05 02 00 fc 27 00     "......&......'.
    122c:	05 05 06 00 fc 2b 00 05 05 06 00 fc 2f 00 05 05     .....+....../...
    123c:	06 00 fc 33 00 05 05 06 00 fc 37 00 05 05 06 00     ...3......7.....
    124c:	fc 3b 00 05 05 06 00 fc 3f 00 05 05 06 00 fc 43     .;......?......C
    125c:	00 05 05 06 00 fc 47 00 01 04 02 00 fd 48 00 01     ......G......H..
    126c:	04 02 00 fd 49 00 03 05 04 00 fc 4b 00 04 03 05     ....I......K....
    127c:	00 fd 4d 00 03 05 04 00 fc 4f 00 05 05 06 00 fc     ..M......O......
    128c:	53 00 05 05 06 00 fc 57 00 05 05 06 00 fc 5b 00     S......W......[.
    129c:	05 05 06 00 fc 5f 00 05 05 06 00 fc 63 00 05 05     ....._......c...
    12ac:	06 00 fc 67 00 05 05 06 00 fc 6b 00 05 05 06 00     ...g......k.....
    12bc:	fc 6f 00 05 05 06 00 fc 73 00 05 05 06 00 fc 77     .o......s......w
    12cc:	00 05 05 06 00 fc 7b 00 05 05 06 00 fc 7f 00 05     ......{.........
    12dc:	05 06 00 fc 83 00 05 05 06 00 fc 87 00 05 05 06     ................
    12ec:	00 fc 8b 00 05 05 06 00 fc 8f 00 05 05 06 00 fc     ................
    12fc:	93 00 05 05 06 00 fc 97 00 05 05 06 00 fc 9b 00     ................
    130c:	05 05 06 00 fc 9f 00 05 05 06 00 fc a3 00 05 05     ................
    131c:	06 00 fc a7 00 05 05 06 00 fc ab 00 05 05 06 00     ................
    132c:	fc af 00 05 05 06 00 fc b3 00 05 05 06 00 fc b7     ................
    133c:	00 05 05 06 00 fc bb 00 05 05 06 00 fc bf 00 02     ................
    134c:	05 03 00 fc c1 00 05 05 06 00 fc c5 00 02 05 03     ................
    135c:	00 fc c7 00 03 02 04 00 fc c8 00 05 01 06 00 01     ................
    136c:	c9 00 01 01 02 00 fc ca 00 04 04 05 00 fd cc 00     ................
    137c:	04 05 05 00 fc cf 00 04 04 05 00 fd d1 00 04 05     ................
    138c:	05 00 fc d4 00 04 04 05 00 fd d6 00 03 05 04 00     ................
    139c:	fc d8 00 04 05 05 00 fd db 00 04 05 05 00 fc de     ................
    13ac:	00 01 04 02 00 fd df 00 02 05 03 00 fd e1 00 04     ................
    13bc:	05 05 00 fc e4 00 01 05 02 00 fc e5 00 05 04 06     ................
    13cc:	00 fd e8 00 04 04 05 00 fd ea 00 04 04 05 00 fd     ................
    13dc:	ec 00 04 05 05 00 fd ef 00 04 05 05 00 fd f2 00     ................
    13ec:	04 04 05 00 fd f4 00 04 04 05 00 fd f6 00 05 05     ................
    13fc:	06 00 fc fa 00 04 04 05 00 fd fc 00 04 04 05 00     ................
    140c:	fd fe 00 05 04 06 00 fd 01 01 04 04 05 00 fd 03     ................
    141c:	01 04 05 05 00 fd 06 01 04 04 05 00 fd 08 01 03     ................
    142c:	05 04 00 fc 0a 01 01 05 02 00 fc 0b 01 03 05 04     ................
    143c:	00 fc 0d 01 05 03 06 00 fd                          .........

00001445 <Font_5_OrgBitmaps>:
    1445:	e8 a0 57 d5 f5 00 fd 3e 5f 80 88 88 88 80 f4 bf     ..W....>_.......
    1455:	2e 80 80 6a 40 95 80 aa 80 5d 00 c0 f0 80 08 88     ...j@....]......
    1465:	88 00 fc 63 1f 80 f8 f8 7f 0f 80 f8 7e 1f 80 8c     ...c........~...
    1475:	7e 10 80 fc 3e 1f 80 fc 3f 1f 80 f8 42 10 80 fc     ~...>...?...B...
    1485:	7f 1f 80 fc 7e 1f 80 90 b0 2a 22 f0 f0 88 a8 f8     ....~....*".....
    1495:	4e 02 00 fd 6f 0f 80 fc 7f 18 80 f4 7d 1f 00 fc     N...o.......}...
    14a5:	21 0f 80 f4 63 1f 00 fc 3f 0f 80 fc 3f 08 00 fc     !...c...?...?...
    14b5:	2f 1f 80 8c 7f 18 80 f9 08 4f 80 78 85 2f 80 8d     /........O.x./..
    14c5:	b1 68 80 84 21 0f 80 fd 6b 5a 80 fc 63 18 80 fc     .h..!...kZ..c...
    14d5:	63 1f 80 fc 7f 08 00 fc 63 3f 80 fc 7f 29 00 fc     c.......c?...)..
    14e5:	3e 1f 80 f9 08 42 00 8c 63 1f 80 8c 62 a2 00 ad     >....B..c...b...
    14f5:	6b 5f 80 8a 88 a8 80 8c 54 42 00 f8 7f 0f 80 ea     k_......TB......
    1505:	c0 82 08 20 80 d5 c0 54 f8 80 f1 ff 8f 99 f0 f8     ... ...T........
    1515:	8f 1f 99 f0 ff 8f 6b a4 f9 9f 10 8f 99 90 f0 55     ......k........U
    1525:	c0 8a f9 90 f8 fd 63 10 f9 99 f9 9f f9 9f 80 f9     ......c.........
    1535:	9f 20 f8 88 47 1f 27 c8 42 00 99 9f 99 97 8c 6b     . ..G.'.B......k
    1545:	f0 96 69 99 9f 10 2e 8f 2b 22 f8 89 a8 0f e0        ..i.....+".....

00001554 <Font_3_TomThumb_Extended>:
    1554:	f4 17 5b 15 20 7e 06                                ..[. ~.

0000155b <Font_3_TomThumb_ExtendedGlyphs>:
    155b:	00 00 08 01 02 00 fb 01 00 08 05 02 00 fb 06 00     ................
    156b:	08 02 04 00 fb 08 00 08 05 04 00 fb 0d 00 08 05     ................
    157b:	04 00 fb 12 00 08 05 04 00 fb 17 00 08 05 04 00     ................
    158b:	fb 1c 00 08 02 02 00 fb 1e 00 08 05 03 00 fb 23     ...............#
    159b:	00 08 05 03 00 fb 28 00 08 03 04 00 fb 2b 00 08     ......(......+..
    15ab:	03 04 00 fc 2e 00 08 02 03 00 fe 30 00 08 01 04     ...........0....
    15bb:	00 fd 31 00 08 01 02 00 ff 32 00 08 05 04 00 fb     ..1......2......
    15cb:	37 00 08 05 04 00 fb 3c 00 08 05 03 00 fb 41 00     7......<......A.
    15db:	08 05 04 00 fb 46 00 08 05 04 00 fb 4b 00 08 05     .....F......K...
    15eb:	04 00 fb 50 00 08 05 04 00 fb 55 00 08 05 04 00     ...P......U.....
    15fb:	fb 5a 00 08 05 04 00 fb 5f 00 08 05 04 00 fb 64     .Z......_......d
    160b:	00 08 05 04 00 fb 69 00 08 03 02 00 fc 6c 00 08     ......i......l..
    161b:	04 03 00 fc 70 00 08 05 04 00 fb 75 00 08 03 04     ....p......u....
    162b:	00 fc 78 00 08 05 04 00 fb 7d 00 08 05 04 00 fb     ..x......}......
    163b:	82 00 08 05 04 00 fb 87 00 08 05 04 00 fb 8c 00     ................
    164b:	08 05 04 00 fb 91 00 08 05 04 00 fb 96 00 08 05     ................
    165b:	04 00 fb 9b 00 08 05 04 00 fb a0 00 08 05 04 00     ................
    166b:	fb a5 00 08 05 04 00 fb aa 00 08 05 04 00 fb af     ................
    167b:	00 08 05 04 00 fb b4 00 08 05 04 00 fb b9 00 08     ................
    168b:	05 04 00 fb be 00 08 05 04 00 fb c3 00 08 05 04     ................
    169b:	00 fb c8 00 08 05 04 00 fb cd 00 08 05 04 00 fb     ................
    16ab:	d2 00 08 05 04 00 fb d7 00 08 05 04 00 fb dc 00     ................
    16bb:	08 05 04 00 fb e1 00 08 05 04 00 fb e6 00 08 05     ................
    16cb:	04 00 fb eb 00 08 05 04 00 fb f0 00 08 05 04 00     ................
    16db:	fb f5 00 08 05 04 00 fb fa 00 08 05 04 00 fb ff     ................
    16eb:	00 08 05 04 00 fb 04 01 08 05 04 00 fb 09 01 08     ................
    16fb:	05 04 00 fb 0e 01 08 03 04 00 fc 11 01 08 05 04     ................
    170b:	00 fb 16 01 08 02 04 00 fb 18 01 08 01 04 00 ff     ................
    171b:	19 01 08 02 03 00 fb 1b 01 08 04 04 00 fc 1f 01     ................
    172b:	08 05 04 00 fb 24 01 08 04 04 00 fc 28 01 08 05     .....$......(...
    173b:	04 00 fb 2d 01 08 04 04 00 fc 31 01 08 05 04 00     ...-......1.....
    174b:	fb 36 01 08 05 04 00 fc 3b 01 08 05 04 00 fb 40     .6......;......@
    175b:	01 08 05 02 00 fb 45 01 08 06 04 00 fb 4b 01 08     ......E......K..
    176b:	05 04 00 fb 50 01 08 05 04 00 fb 55 01 08 04 04     ....P......U....
    177b:	00 fc 59 01 08 04 04 00 fc 5d 01 08 04 04 00 fc     ..Y......]......
    178b:	61 01 08 05 04 00 fc 66 01 08 05 04 00 fc 6b 01     a......f......k.
    179b:	08 04 04 00 fc 6f 01 08 04 04 00 fc 73 01 08 05     .....o......s...
    17ab:	04 00 fb 78 01 08 04 04 00 fc 7c 01 08 04 04 00     ...x......|.....
    17bb:	fc 80 01 08 04 04 00 fc 84 01 08 04 04 00 fc 88     ................
    17cb:	01 08 05 04 00 fc 8d 01 08 04 04 00 fc 91 01 08     ................
    17db:	05 04 00 fb 96 01 08 05 02 00 fb 9b 01 08 05 04     ................
    17eb:	00 fb a0 01 08 02 04 00 fb                          .........

000017f4 <Font_3_TomThumb_ExtendedBitmaps>:
    17f4:	00 80 80 80 00 80 a0 a0 a0 e0 a0 e0 a0 60 c0 60     .............`.`
    1804:	c0 40 80 20 40 80 20 c0 c0 e0 a0 60 80 80 40 80     .@. @. ....`..@.
    1814:	80 80 40 80 40 40 40 80 a0 40 a0 40 e0 40 40 80     ..@.@@@..@.@.@@.
    1824:	e0 80 20 20 40 80 80 60 a0 a0 a0 c0 40 c0 40 40     ..  @..`....@.@@
    1834:	40 c0 20 40 80 e0 c0 20 40 20 c0 a0 a0 e0 20 20     @. @... @ ....  
    1844:	e0 80 c0 20 c0 60 80 e0 a0 e0 e0 20 40 80 80 e0     ... .`..... @...
    1854:	a0 e0 a0 e0 e0 a0 e0 20 c0 80 00 80 40 00 40 80     ....... ....@.@.
    1864:	20 40 80 40 20 e0 00 e0 80 40 20 40 80 e0 20 40      @.@ ....@ @.. @
    1874:	00 40 40 a0 e0 80 60 40 a0 e0 a0 a0 c0 a0 c0 a0     .@@...`@........
    1884:	c0 60 80 80 80 60 c0 a0 a0 a0 c0 e0 80 e0 80 e0     .`...`..........
    1894:	e0 80 e0 80 80 60 80 e0 a0 60 a0 a0 e0 a0 a0 e0     .....`...`......
    18a4:	40 40 40 e0 20 20 20 a0 40 a0 a0 c0 a0 a0 80 80     @@@.   .@.......
    18b4:	80 80 e0 a0 e0 e0 a0 a0 a0 e0 e0 e0 a0 40 a0 a0     .............@..
    18c4:	a0 40 c0 a0 c0 80 80 40 a0 a0 e0 60 c0 a0 e0 c0     .@.....@...`....
    18d4:	a0 60 80 40 20 c0 e0 40 40 40 40 a0 a0 a0 a0 60     .`.@ ..@@@@....`
    18e4:	a0 a0 a0 40 40 a0 a0 e0 e0 a0 a0 a0 40 a0 a0 a0     ...@@.......@...
    18f4:	a0 40 40 40 e0 20 40 80 e0 e0 80 80 80 e0 80 40     .@@@. @........@
    1904:	20 e0 20 20 20 e0 40 a0 e0 80 40 c0 60 a0 e0 80      .   .@...@.`...
    1914:	c0 a0 a0 c0 60 80 80 60 20 60 a0 a0 60 60 a0 c0     ....`..` `..``..
    1924:	60 20 40 e0 40 40 60 a0 e0 20 40 80 c0 a0 a0 a0     ` @.@@`.. @.....
    1934:	80 00 80 80 80 20 00 20 20 a0 40 80 a0 c0 c0 a0     ..... .  .@.....
    1944:	c0 40 40 40 e0 e0 e0 e0 a0 c0 a0 a0 a0 40 a0 a0     .@@@.........@..
    1954:	40 c0 a0 a0 c0 80 60 a0 a0 60 20 60 80 80 80 60     @.....`..` `...`
    1964:	c0 60 c0 40 e0 40 40 60 a0 a0 a0 60 a0 a0 e0 40     .`.@.@@`...`...@
    1974:	a0 e0 e0 e0 a0 40 40 a0 a0 a0 60 20 40 e0 60 c0     .....@@...` @.`.
    1984:	e0 60 40 80 40 60 80 80 00 80 80 c0 40 20 40 c0     .`@.@`......@ @.
    1994:	60 c0                                               `.

00001996 <__ctors_end>:
    1996:	11 24       	eor	r1, r1
    1998:	1f be       	out	0x3f, r1	; 63
    199a:	cf ef       	ldi	r28, 0xFF	; 255
    199c:	d8 e0       	ldi	r29, 0x08	; 8
    199e:	de bf       	out	0x3e, r29	; 62
    19a0:	cd bf       	out	0x3d, r28	; 61

000019a2 <__do_copy_data>:
    19a2:	11 e0       	ldi	r17, 0x01	; 1
    19a4:	a0 e0       	ldi	r26, 0x00	; 0
    19a6:	b1 e0       	ldi	r27, 0x01	; 1
    19a8:	e0 e2       	ldi	r30, 0x20	; 32
    19aa:	f5 e3       	ldi	r31, 0x35	; 53
    19ac:	02 c0       	rjmp	.+4      	; 0x19b2 <__do_copy_data+0x10>
    19ae:	05 90       	lpm	r0, Z+
    19b0:	0d 92       	st	X+, r0
    19b2:	a2 36       	cpi	r26, 0x62	; 98
    19b4:	b1 07       	cpc	r27, r17
    19b6:	d9 f7       	brne	.-10     	; 0x19ae <__do_copy_data+0xc>

000019b8 <__do_clear_bss>:
    19b8:	21 e0       	ldi	r18, 0x01	; 1
    19ba:	a2 e6       	ldi	r26, 0x62	; 98
    19bc:	b1 e0       	ldi	r27, 0x01	; 1
    19be:	01 c0       	rjmp	.+2      	; 0x19c2 <.do_clear_bss_start>

000019c0 <.do_clear_bss_loop>:
    19c0:	1d 92       	st	X+, r1

000019c2 <.do_clear_bss_start>:
    19c2:	a6 36       	cpi	r26, 0x66	; 102
    19c4:	b2 07       	cpc	r27, r18
    19c6:	e1 f7       	brne	.-8      	; 0x19c0 <.do_clear_bss_loop>
    19c8:	0e 94 df 18 	call	0x31be	; 0x31be <main>
    19cc:	0c 94 8e 1a 	jmp	0x351c	; 0x351c <_exit>

000019d0 <__bad_interrupt>:
    19d0:	0c 94 00 00 	jmp	0	; 0x0 <__vectors>

000019d4 <LCD_Rect_Fill>:
	LCD_Rect_Fill(0, yStart, LCD_Width, TEXT_HEIGHT, BLACK); // fill remaining space
	yStart += TEXT_HEIGHT; // Change the top of the scroll area
	if (yStart >= 320 - BOT_FIXED_AREA) yStart = TOP_FIXED_AREA + (yStart - 320 + BOT_FIXED_AREA); // The value must wrap around as the screen memory is a circular buffer
	LCD_scrollAddress(yStart); // Now we can scroll the display
	return yTemp;
}
    19d4:	8f 92       	push	r8
    19d6:	9f 92       	push	r9
    19d8:	af 92       	push	r10
    19da:	bf 92       	push	r11
    19dc:	cf 92       	push	r12
    19de:	df 92       	push	r13
    19e0:	ef 92       	push	r14
    19e2:	ff 92       	push	r15
    19e4:	0f 93       	push	r16
    19e6:	1f 93       	push	r17
    19e8:	cf 93       	push	r28
    19ea:	df 93       	push	r29
    19ec:	6c 01       	movw	r12, r24
    19ee:	eb 01       	movw	r28, r22
    19f0:	f9 01       	movw	r30, r18
    19f2:	9a 01       	movw	r18, r20
    19f4:	df 01       	movw	r26, r30
    19f6:	0e 94 66 1a 	call	0x34cc	; 0x34cc <__umulhisi3>
    19fa:	4b 01       	movw	r8, r22
    19fc:	5c 01       	movw	r10, r24
    19fe:	c6 01       	movw	r24, r12
    1a00:	01 97       	sbiw	r24, 0x01	; 1
    1a02:	48 0f       	add	r20, r24
    1a04:	59 1f       	adc	r21, r25
    1a06:	ce 01       	movw	r24, r28
    1a08:	01 97       	sbiw	r24, 0x01	; 1
    1a0a:	e8 0f       	add	r30, r24
    1a0c:	f9 1f       	adc	r31, r25
    1a0e:	2c 98       	cbi	0x05, 4	; 5
    1a10:	2b 98       	cbi	0x05, 3	; 5
    1a12:	8a e2       	ldi	r24, 0x2A	; 42
    1a14:	8e bd       	out	0x2e, r24	; 46
    1a16:	0d b4       	in	r0, 0x2d	; 45
    1a18:	07 fe       	sbrs	r0, 7
    1a1a:	fd cf       	rjmp	.-6      	; 0x1a16 <LCD_Rect_Fill+0x42>
    1a1c:	2c 9a       	sbi	0x05, 4	; 5
    1a1e:	2c 98       	cbi	0x05, 4	; 5
    1a20:	2b 9a       	sbi	0x05, 3	; 5
    1a22:	de bc       	out	0x2e, r13	; 46
    1a24:	0d b4       	in	r0, 0x2d	; 45
    1a26:	07 fe       	sbrs	r0, 7
    1a28:	fd cf       	rjmp	.-6      	; 0x1a24 <LCD_Rect_Fill+0x50>
    1a2a:	ce bc       	out	0x2e, r12	; 46
    1a2c:	0d b4       	in	r0, 0x2d	; 45
    1a2e:	07 fe       	sbrs	r0, 7
    1a30:	fd cf       	rjmp	.-6      	; 0x1a2c <LCD_Rect_Fill+0x58>
    1a32:	2c 9a       	sbi	0x05, 4	; 5
    1a34:	2c 98       	cbi	0x05, 4	; 5
    1a36:	2b 9a       	sbi	0x05, 3	; 5
    1a38:	5e bd       	out	0x2e, r21	; 46
    1a3a:	0d b4       	in	r0, 0x2d	; 45
    1a3c:	07 fe       	sbrs	r0, 7
    1a3e:	fd cf       	rjmp	.-6      	; 0x1a3a <LCD_Rect_Fill+0x66>
    1a40:	4e bd       	out	0x2e, r20	; 46
    1a42:	0d b4       	in	r0, 0x2d	; 45
    1a44:	07 fe       	sbrs	r0, 7
    1a46:	fd cf       	rjmp	.-6      	; 0x1a42 <LCD_Rect_Fill+0x6e>
    1a48:	2c 9a       	sbi	0x05, 4	; 5
    1a4a:	2c 98       	cbi	0x05, 4	; 5
    1a4c:	2b 98       	cbi	0x05, 3	; 5
    1a4e:	8b e2       	ldi	r24, 0x2B	; 43
    1a50:	8e bd       	out	0x2e, r24	; 46
    1a52:	0d b4       	in	r0, 0x2d	; 45
    1a54:	07 fe       	sbrs	r0, 7
    1a56:	fd cf       	rjmp	.-6      	; 0x1a52 <LCD_Rect_Fill+0x7e>
    1a58:	2c 9a       	sbi	0x05, 4	; 5
    1a5a:	2c 98       	cbi	0x05, 4	; 5
    1a5c:	2b 9a       	sbi	0x05, 3	; 5
    1a5e:	de bd       	out	0x2e, r29	; 46
    1a60:	0d b4       	in	r0, 0x2d	; 45
    1a62:	07 fe       	sbrs	r0, 7
    1a64:	fd cf       	rjmp	.-6      	; 0x1a60 <LCD_Rect_Fill+0x8c>
    1a66:	ce bd       	out	0x2e, r28	; 46
    1a68:	0d b4       	in	r0, 0x2d	; 45
    1a6a:	07 fe       	sbrs	r0, 7
    1a6c:	fd cf       	rjmp	.-6      	; 0x1a68 <LCD_Rect_Fill+0x94>
    1a6e:	2c 9a       	sbi	0x05, 4	; 5
    1a70:	2c 98       	cbi	0x05, 4	; 5
    1a72:	2b 9a       	sbi	0x05, 3	; 5
    1a74:	fe bd       	out	0x2e, r31	; 46
    1a76:	0d b4       	in	r0, 0x2d	; 45
    1a78:	07 fe       	sbrs	r0, 7
    1a7a:	fd cf       	rjmp	.-6      	; 0x1a76 <LCD_Rect_Fill+0xa2>
    1a7c:	ee bd       	out	0x2e, r30	; 46
    1a7e:	0d b4       	in	r0, 0x2d	; 45
    1a80:	07 fe       	sbrs	r0, 7
    1a82:	fd cf       	rjmp	.-6      	; 0x1a7e <LCD_Rect_Fill+0xaa>
    1a84:	2c 9a       	sbi	0x05, 4	; 5
    1a86:	2c 98       	cbi	0x05, 4	; 5
    1a88:	2b 98       	cbi	0x05, 3	; 5
    1a8a:	8c e2       	ldi	r24, 0x2C	; 44
    1a8c:	8e bd       	out	0x2e, r24	; 46
    1a8e:	0d b4       	in	r0, 0x2d	; 45
    1a90:	07 fe       	sbrs	r0, 7
    1a92:	fd cf       	rjmp	.-6      	; 0x1a8e <LCD_Rect_Fill+0xba>
    1a94:	2c 9a       	sbi	0x05, 4	; 5
    1a96:	81 14       	cp	r8, r1
    1a98:	91 04       	cpc	r9, r1
    1a9a:	a1 04       	cpc	r10, r1
    1a9c:	b1 04       	cpc	r11, r1
    1a9e:	71 f1       	breq	.+92     	; 0x1afc <LCD_Rect_Fill+0x128>
    1aa0:	06 95       	lsr	r16
    1aa2:	06 95       	lsr	r16
    1aa4:	06 95       	lsr	r16
    1aa6:	80 2f       	mov	r24, r16
    1aa8:	90 e0       	ldi	r25, 0x00	; 0
    1aaa:	98 2f       	mov	r25, r24
    1aac:	88 27       	eor	r24, r24
    1aae:	99 0f       	add	r25, r25
    1ab0:	99 0f       	add	r25, r25
    1ab2:	99 0f       	add	r25, r25
    1ab4:	f6 94       	lsr	r15
    1ab6:	f6 94       	lsr	r15
    1ab8:	40 e2       	ldi	r20, 0x20	; 32
    1aba:	f4 9e       	mul	r15, r20
    1abc:	90 01       	movw	r18, r0
    1abe:	11 24       	eor	r1, r1
    1ac0:	82 2b       	or	r24, r18
    1ac2:	93 2b       	or	r25, r19
    1ac4:	e6 94       	lsr	r14
    1ac6:	e6 94       	lsr	r14
    1ac8:	e6 94       	lsr	r14
    1aca:	8e 29       	or	r24, r14
    1acc:	39 2f       	mov	r19, r25
    1ace:	28 2f       	mov	r18, r24
    1ad0:	80 e0       	ldi	r24, 0x00	; 0
    1ad2:	90 e0       	ldi	r25, 0x00	; 0
    1ad4:	dc 01       	movw	r26, r24
    1ad6:	2c 98       	cbi	0x05, 4	; 5
    1ad8:	2b 9a       	sbi	0x05, 3	; 5
    1ada:	3e bd       	out	0x2e, r19	; 46
    1adc:	0d b4       	in	r0, 0x2d	; 45
    1ade:	07 fe       	sbrs	r0, 7
    1ae0:	fd cf       	rjmp	.-6      	; 0x1adc <LCD_Rect_Fill+0x108>
    1ae2:	2e bd       	out	0x2e, r18	; 46
    1ae4:	0d b4       	in	r0, 0x2d	; 45
    1ae6:	07 fe       	sbrs	r0, 7
    1ae8:	fd cf       	rjmp	.-6      	; 0x1ae4 <LCD_Rect_Fill+0x110>
    1aea:	2c 9a       	sbi	0x05, 4	; 5
    1aec:	01 96       	adiw	r24, 0x01	; 1
    1aee:	a1 1d       	adc	r26, r1
    1af0:	b1 1d       	adc	r27, r1
    1af2:	88 16       	cp	r8, r24
    1af4:	99 06       	cpc	r9, r25
    1af6:	aa 06       	cpc	r10, r26
    1af8:	bb 06       	cpc	r11, r27
    1afa:	69 f7       	brne	.-38     	; 0x1ad6 <LCD_Rect_Fill+0x102>
    1afc:	df 91       	pop	r29
    1afe:	cf 91       	pop	r28
    1b00:	1f 91       	pop	r17
    1b02:	0f 91       	pop	r16
    1b04:	ff 90       	pop	r15
    1b06:	ef 90       	pop	r14
    1b08:	df 90       	pop	r13
    1b0a:	cf 90       	pop	r12
    1b0c:	bf 90       	pop	r11
    1b0e:	af 90       	pop	r10
    1b10:	9f 90       	pop	r9
    1b12:	8f 90       	pop	r8
    1b14:	08 95       	ret

00001b16 <LCD_Line>:
    1b16:	2f 92       	push	r2
    1b18:	3f 92       	push	r3
    1b1a:	4f 92       	push	r4
    1b1c:	5f 92       	push	r5
    1b1e:	6f 92       	push	r6
    1b20:	7f 92       	push	r7
    1b22:	8f 92       	push	r8
    1b24:	9f 92       	push	r9
    1b26:	af 92       	push	r10
    1b28:	bf 92       	push	r11
    1b2a:	cf 92       	push	r12
    1b2c:	df 92       	push	r13
    1b2e:	ef 92       	push	r14
    1b30:	ff 92       	push	r15
    1b32:	0f 93       	push	r16
    1b34:	1f 93       	push	r17
    1b36:	cf 93       	push	r28
    1b38:	df 93       	push	r29
    1b3a:	cd b7       	in	r28, 0x3d	; 61
    1b3c:	de b7       	in	r29, 0x3e	; 62
    1b3e:	2e 97       	sbiw	r28, 0x0e	; 14
    1b40:	0f b6       	in	r0, 0x3f	; 63
    1b42:	f8 94       	cli
    1b44:	de bf       	out	0x3e, r29	; 62
    1b46:	0f be       	out	0x3f, r0	; 63
    1b48:	cd bf       	out	0x3d, r28	; 61
    1b4a:	9e 87       	std	Y+14, r25	; 0x0e
    1b4c:	8d 87       	std	Y+13, r24	; 0x0d
    1b4e:	4b 01       	movw	r8, r22
    1b50:	2a 01       	movw	r4, r20
    1b52:	3c 87       	std	Y+12, r19	; 0x0c
    1b54:	2b 87       	std	Y+11, r18	; 0x0b
    1b56:	cb 82       	std	Y+3, r12	; 0x03
    1b58:	dc 82       	std	Y+4, r13	; 0x04
    1b5a:	ed 82       	std	Y+5, r14	; 0x05
    1b5c:	fe 82       	std	Y+6, r15	; 0x06
    1b5e:	ca 01       	movw	r24, r20
    1b60:	2d 85       	ldd	r18, Y+13	; 0x0d
    1b62:	3e 85       	ldd	r19, Y+14	; 0x0e
    1b64:	82 1b       	sub	r24, r18
    1b66:	93 0b       	sbc	r25, r19
    1b68:	6c 01       	movw	r12, r24
    1b6a:	22 f4       	brpl	.+8      	; 0x1b74 <LCD_Line+0x5e>
    1b6c:	cc 24       	eor	r12, r12
    1b6e:	dd 24       	eor	r13, r13
    1b70:	c8 1a       	sub	r12, r24
    1b72:	d9 0a       	sbc	r13, r25
    1b74:	2b 85       	ldd	r18, Y+11	; 0x0b
    1b76:	3c 85       	ldd	r19, Y+12	; 0x0c
    1b78:	28 19       	sub	r18, r8
    1b7a:	39 09       	sbc	r19, r9
    1b7c:	c9 01       	movw	r24, r18
    1b7e:	99 23       	and	r25, r25
    1b80:	24 f4       	brge	.+8      	; 0x1b8a <LCD_Line+0x74>
    1b82:	88 27       	eor	r24, r24
    1b84:	99 27       	eor	r25, r25
    1b86:	82 1b       	sub	r24, r18
    1b88:	93 0b       	sbc	r25, r19
    1b8a:	98 87       	std	Y+8, r25	; 0x08
    1b8c:	8f 83       	std	Y+7, r24	; 0x07
    1b8e:	4d 85       	ldd	r20, Y+13	; 0x0d
    1b90:	5e 85       	ldd	r21, Y+14	; 0x0e
    1b92:	44 15       	cp	r20, r4
    1b94:	55 05       	cpc	r21, r5
    1b96:	28 f0       	brcs	.+10     	; 0x1ba2 <LCD_Line+0x8c>
    1b98:	8f ef       	ldi	r24, 0xFF	; 255
    1b9a:	9f ef       	ldi	r25, 0xFF	; 255
    1b9c:	9a 87       	std	Y+10, r25	; 0x0a
    1b9e:	89 87       	std	Y+9, r24	; 0x09
    1ba0:	04 c0       	rjmp	.+8      	; 0x1baa <LCD_Line+0x94>
    1ba2:	21 e0       	ldi	r18, 0x01	; 1
    1ba4:	30 e0       	ldi	r19, 0x00	; 0
    1ba6:	3a 87       	std	Y+10, r19	; 0x0a
    1ba8:	29 87       	std	Y+9, r18	; 0x09
    1baa:	4b 85       	ldd	r20, Y+11	; 0x0b
    1bac:	5c 85       	ldd	r21, Y+12	; 0x0c
    1bae:	84 16       	cp	r8, r20
    1bb0:	95 06       	cpc	r9, r21
    1bb2:	20 f0       	brcs	.+8      	; 0x1bbc <LCD_Line+0xa6>
    1bb4:	22 24       	eor	r2, r2
    1bb6:	2a 94       	dec	r2
    1bb8:	32 2c       	mov	r3, r2
    1bba:	03 c0       	rjmp	.+6      	; 0x1bc2 <LCD_Line+0xac>
    1bbc:	22 24       	eor	r2, r2
    1bbe:	23 94       	inc	r2
    1bc0:	31 2c       	mov	r3, r1
    1bc2:	56 01       	movw	r10, r12
    1bc4:	8f 81       	ldd	r24, Y+7	; 0x07
    1bc6:	98 85       	ldd	r25, Y+8	; 0x08
    1bc8:	a8 1a       	sub	r10, r24
    1bca:	b9 0a       	sbc	r11, r25
    1bcc:	20 2f       	mov	r18, r16
    1bce:	30 e0       	ldi	r19, 0x00	; 0
    1bd0:	3a 83       	std	Y+2, r19	; 0x02
    1bd2:	29 83       	std	Y+1, r18	; 0x01
    1bd4:	3c 01       	movw	r6, r24
    1bd6:	71 94       	neg	r7
    1bd8:	61 94       	neg	r6
    1bda:	71 08       	sbc	r7, r1
    1bdc:	eb 80       	ldd	r14, Y+3	; 0x03
    1bde:	fc 80       	ldd	r15, Y+4	; 0x04
    1be0:	0d 81       	ldd	r16, Y+5	; 0x05
    1be2:	1e 81       	ldd	r17, Y+6	; 0x06
    1be4:	29 81       	ldd	r18, Y+1	; 0x01
    1be6:	3a 81       	ldd	r19, Y+2	; 0x02
    1be8:	a9 01       	movw	r20, r18
    1bea:	b4 01       	movw	r22, r8
    1bec:	8d 85       	ldd	r24, Y+13	; 0x0d
    1bee:	9e 85       	ldd	r25, Y+14	; 0x0e
    1bf0:	f1 de       	rcall	.-542    	; 0x19d4 <LCD_Rect_Fill>
    1bf2:	8d 85       	ldd	r24, Y+13	; 0x0d
    1bf4:	9e 85       	ldd	r25, Y+14	; 0x0e
    1bf6:	84 15       	cp	r24, r4
    1bf8:	95 05       	cpc	r25, r5
    1bfa:	29 f4       	brne	.+10     	; 0x1c06 <LCD_Line+0xf0>
    1bfc:	2b 85       	ldd	r18, Y+11	; 0x0b
    1bfe:	3c 85       	ldd	r19, Y+12	; 0x0c
    1c00:	82 16       	cp	r8, r18
    1c02:	93 06       	cpc	r9, r19
    1c04:	d1 f0       	breq	.+52     	; 0x1c3a <LCD_Line+0x124>
    1c06:	c5 01       	movw	r24, r10
    1c08:	88 0f       	add	r24, r24
    1c0a:	99 1f       	adc	r25, r25
    1c0c:	68 16       	cp	r6, r24
    1c0e:	79 06       	cpc	r7, r25
    1c10:	64 f4       	brge	.+24     	; 0x1c2a <LCD_Line+0x114>
    1c12:	4f 81       	ldd	r20, Y+7	; 0x07
    1c14:	58 85       	ldd	r21, Y+8	; 0x08
    1c16:	a4 1a       	sub	r10, r20
    1c18:	b5 0a       	sbc	r11, r21
    1c1a:	2d 85       	ldd	r18, Y+13	; 0x0d
    1c1c:	3e 85       	ldd	r19, Y+14	; 0x0e
    1c1e:	49 85       	ldd	r20, Y+9	; 0x09
    1c20:	5a 85       	ldd	r21, Y+10	; 0x0a
    1c22:	24 0f       	add	r18, r20
    1c24:	35 1f       	adc	r19, r21
    1c26:	3e 87       	std	Y+14, r19	; 0x0e
    1c28:	2d 87       	std	Y+13, r18	; 0x0d
    1c2a:	8c 15       	cp	r24, r12
    1c2c:	9d 05       	cpc	r25, r13
    1c2e:	b4 f6       	brge	.-84     	; 0x1bdc <LCD_Line+0xc6>
    1c30:	ac 0c       	add	r10, r12
    1c32:	bd 1c       	adc	r11, r13
    1c34:	82 0c       	add	r8, r2
    1c36:	93 1c       	adc	r9, r3
    1c38:	d1 cf       	rjmp	.-94     	; 0x1bdc <LCD_Line+0xc6>
    1c3a:	2e 96       	adiw	r28, 0x0e	; 14
    1c3c:	0f b6       	in	r0, 0x3f	; 63
    1c3e:	f8 94       	cli
    1c40:	de bf       	out	0x3e, r29	; 62
    1c42:	0f be       	out	0x3f, r0	; 63
    1c44:	cd bf       	out	0x3d, r28	; 61
    1c46:	df 91       	pop	r29
    1c48:	cf 91       	pop	r28
    1c4a:	1f 91       	pop	r17
    1c4c:	0f 91       	pop	r16
    1c4e:	ff 90       	pop	r15
    1c50:	ef 90       	pop	r14
    1c52:	df 90       	pop	r13
    1c54:	cf 90       	pop	r12
    1c56:	bf 90       	pop	r11
    1c58:	af 90       	pop	r10
    1c5a:	9f 90       	pop	r9
    1c5c:	8f 90       	pop	r8
    1c5e:	7f 90       	pop	r7
    1c60:	6f 90       	pop	r6
    1c62:	5f 90       	pop	r5
    1c64:	4f 90       	pop	r4
    1c66:	3f 90       	pop	r3
    1c68:	2f 90       	pop	r2
    1c6a:	08 95       	ret

00001c6c <LCD_Rect>:
    1c6c:	2f 92       	push	r2
    1c6e:	3f 92       	push	r3
    1c70:	4f 92       	push	r4
    1c72:	5f 92       	push	r5
    1c74:	6f 92       	push	r6
    1c76:	7f 92       	push	r7
    1c78:	8f 92       	push	r8
    1c7a:	9f 92       	push	r9
    1c7c:	af 92       	push	r10
    1c7e:	bf 92       	push	r11
    1c80:	cf 92       	push	r12
    1c82:	df 92       	push	r13
    1c84:	ef 92       	push	r14
    1c86:	ff 92       	push	r15
    1c88:	0f 93       	push	r16
    1c8a:	1f 93       	push	r17
    1c8c:	cf 93       	push	r28
    1c8e:	df 93       	push	r29
    1c90:	5c 01       	movw	r10, r24
    1c92:	eb 01       	movw	r28, r22
    1c94:	49 01       	movw	r8, r18
    1c96:	1c 01       	movw	r2, r24
    1c98:	24 0e       	add	r2, r20
    1c9a:	35 1e       	adc	r3, r21
    1c9c:	9b 01       	movw	r18, r22
    1c9e:	a1 01       	movw	r20, r2
    1ca0:	3a df       	rcall	.-396    	; 0x1b16 <LCD_Line>
    1ca2:	8c 0e       	add	r8, r28
    1ca4:	9d 1e       	adc	r9, r29
    1ca6:	94 01       	movw	r18, r8
    1ca8:	a1 01       	movw	r20, r2
    1caa:	b4 01       	movw	r22, r8
    1cac:	c5 01       	movw	r24, r10
    1cae:	33 df       	rcall	.-410    	; 0x1b16 <LCD_Line>
    1cb0:	94 01       	movw	r18, r8
    1cb2:	a5 01       	movw	r20, r10
    1cb4:	be 01       	movw	r22, r28
    1cb6:	c5 01       	movw	r24, r10
    1cb8:	2e df       	rcall	.-420    	; 0x1b16 <LCD_Line>
    1cba:	94 01       	movw	r18, r8
    1cbc:	a1 01       	movw	r20, r2
    1cbe:	be 01       	movw	r22, r28
    1cc0:	c1 01       	movw	r24, r2
    1cc2:	29 df       	rcall	.-430    	; 0x1b16 <LCD_Line>
    1cc4:	df 91       	pop	r29
    1cc6:	cf 91       	pop	r28
    1cc8:	1f 91       	pop	r17
    1cca:	0f 91       	pop	r16
    1ccc:	ff 90       	pop	r15
    1cce:	ef 90       	pop	r14
    1cd0:	df 90       	pop	r13
    1cd2:	cf 90       	pop	r12
    1cd4:	bf 90       	pop	r11
    1cd6:	af 90       	pop	r10
    1cd8:	9f 90       	pop	r9
    1cda:	8f 90       	pop	r8
    1cdc:	7f 90       	pop	r7
    1cde:	6f 90       	pop	r6
    1ce0:	5f 90       	pop	r5
    1ce2:	4f 90       	pop	r4
    1ce4:	3f 90       	pop	r3
    1ce6:	2f 90       	pop	r2
    1ce8:	08 95       	ret

00001cea <LCD_Triangle>:
    1cea:	2f 92       	push	r2
    1cec:	3f 92       	push	r3
    1cee:	4f 92       	push	r4
    1cf0:	5f 92       	push	r5
    1cf2:	6f 92       	push	r6
    1cf4:	7f 92       	push	r7
    1cf6:	8f 92       	push	r8
    1cf8:	9f 92       	push	r9
    1cfa:	af 92       	push	r10
    1cfc:	bf 92       	push	r11
    1cfe:	cf 92       	push	r12
    1d00:	df 92       	push	r13
    1d02:	ef 92       	push	r14
    1d04:	ff 92       	push	r15
    1d06:	0f 93       	push	r16
    1d08:	1f 93       	push	r17
    1d0a:	cf 93       	push	r28
    1d0c:	df 93       	push	r29
    1d0e:	00 d0       	rcall	.+0      	; 0x1d10 <LCD_Triangle+0x26>
    1d10:	00 d0       	rcall	.+0      	; 0x1d12 <LCD_Triangle+0x28>
    1d12:	00 d0       	rcall	.+0      	; 0x1d14 <LCD_Triangle+0x2a>
    1d14:	cd b7       	in	r28, 0x3d	; 61
    1d16:	de b7       	in	r29, 0x3e	; 62
    1d18:	9a 83       	std	Y+2, r25	; 0x02
    1d1a:	89 83       	std	Y+1, r24	; 0x01
    1d1c:	1b 01       	movw	r2, r22
    1d1e:	3a 01       	movw	r6, r20
    1d20:	29 01       	movw	r4, r18
    1d22:	1c 83       	std	Y+4, r17	; 0x04
    1d24:	0b 83       	std	Y+3, r16	; 0x03
    1d26:	fe 82       	std	Y+6, r15	; 0x06
    1d28:	ed 82       	std	Y+5, r14	; 0x05
    1d2a:	1c 2d       	mov	r17, r12
    1d2c:	75 01       	movw	r14, r10
    1d2e:	64 01       	movw	r12, r8
    1d30:	01 2f       	mov	r16, r17
    1d32:	f1 de       	rcall	.-542    	; 0x1b16 <LCD_Line>
    1d34:	2d 81       	ldd	r18, Y+5	; 0x05
    1d36:	3e 81       	ldd	r19, Y+6	; 0x06
    1d38:	4b 81       	ldd	r20, Y+3	; 0x03
    1d3a:	5c 81       	ldd	r21, Y+4	; 0x04
    1d3c:	b2 01       	movw	r22, r4
    1d3e:	c3 01       	movw	r24, r6
    1d40:	ea de       	rcall	.-556    	; 0x1b16 <LCD_Line>
    1d42:	91 01       	movw	r18, r2
    1d44:	49 81       	ldd	r20, Y+1	; 0x01
    1d46:	5a 81       	ldd	r21, Y+2	; 0x02
    1d48:	6d 81       	ldd	r22, Y+5	; 0x05
    1d4a:	7e 81       	ldd	r23, Y+6	; 0x06
    1d4c:	8b 81       	ldd	r24, Y+3	; 0x03
    1d4e:	9c 81       	ldd	r25, Y+4	; 0x04
    1d50:	e2 de       	rcall	.-572    	; 0x1b16 <LCD_Line>
    1d52:	26 96       	adiw	r28, 0x06	; 6
    1d54:	0f b6       	in	r0, 0x3f	; 63
    1d56:	f8 94       	cli
    1d58:	de bf       	out	0x3e, r29	; 62
    1d5a:	0f be       	out	0x3f, r0	; 63
    1d5c:	cd bf       	out	0x3d, r28	; 61
    1d5e:	df 91       	pop	r29
    1d60:	cf 91       	pop	r28
    1d62:	1f 91       	pop	r17
    1d64:	0f 91       	pop	r16
    1d66:	ff 90       	pop	r15
    1d68:	ef 90       	pop	r14
    1d6a:	df 90       	pop	r13
    1d6c:	cf 90       	pop	r12
    1d6e:	bf 90       	pop	r11
    1d70:	af 90       	pop	r10
    1d72:	9f 90       	pop	r9
    1d74:	8f 90       	pop	r8
    1d76:	7f 90       	pop	r7
    1d78:	6f 90       	pop	r6
    1d7a:	5f 90       	pop	r5
    1d7c:	4f 90       	pop	r4
    1d7e:	3f 90       	pop	r3
    1d80:	2f 90       	pop	r2
    1d82:	08 95       	ret

00001d84 <LCD_Ellipse>:
    1d84:	2f 92       	push	r2
    1d86:	3f 92       	push	r3
    1d88:	4f 92       	push	r4
    1d8a:	5f 92       	push	r5
    1d8c:	6f 92       	push	r6
    1d8e:	7f 92       	push	r7
    1d90:	8f 92       	push	r8
    1d92:	9f 92       	push	r9
    1d94:	af 92       	push	r10
    1d96:	bf 92       	push	r11
    1d98:	cf 92       	push	r12
    1d9a:	df 92       	push	r13
    1d9c:	ef 92       	push	r14
    1d9e:	ff 92       	push	r15
    1da0:	0f 93       	push	r16
    1da2:	1f 93       	push	r17
    1da4:	cf 93       	push	r28
    1da6:	df 93       	push	r29
    1da8:	cd b7       	in	r28, 0x3d	; 61
    1daa:	de b7       	in	r29, 0x3e	; 62
    1dac:	a5 97       	sbiw	r28, 0x25	; 37
    1dae:	0f b6       	in	r0, 0x3f	; 63
    1db0:	f8 94       	cli
    1db2:	de bf       	out	0x3e, r29	; 62
    1db4:	0f be       	out	0x3f, r0	; 63
    1db6:	cd bf       	out	0x3d, r28	; 61
    1db8:	3c 01       	movw	r6, r24
    1dba:	4b 01       	movw	r8, r22
    1dbc:	2a 01       	movw	r4, r20
    1dbe:	3a 83       	std	Y+2, r19	; 0x02
    1dc0:	29 83       	std	Y+1, r18	; 0x01
    1dc2:	eb a2       	std	Y+35, r14	; 0x23
    1dc4:	ab 86       	std	Y+11, r10	; 0x0b
    1dc6:	bc 86       	std	Y+12, r11	; 0x0c
    1dc8:	cd 86       	std	Y+13, r12	; 0x0d
    1dca:	de 86       	std	Y+14, r13	; 0x0e
    1dcc:	44 9f       	mul	r20, r20
    1dce:	c0 01       	movw	r24, r0
    1dd0:	45 9f       	mul	r20, r21
    1dd2:	90 0d       	add	r25, r0
    1dd4:	90 0d       	add	r25, r0
    1dd6:	11 24       	eor	r1, r1
    1dd8:	9c 01       	movw	r18, r24
    1dda:	99 0f       	add	r25, r25
    1ddc:	44 0b       	sbc	r20, r20
    1dde:	55 0b       	sbc	r21, r21
    1de0:	29 8b       	std	Y+17, r18	; 0x11
    1de2:	3a 8b       	std	Y+18, r19	; 0x12
    1de4:	4b 8b       	std	Y+19, r20	; 0x13
    1de6:	5c 8b       	std	Y+20, r21	; 0x14
    1de8:	49 81       	ldd	r20, Y+1	; 0x01
    1dea:	5a 81       	ldd	r21, Y+2	; 0x02
    1dec:	44 9f       	mul	r20, r20
    1dee:	c0 01       	movw	r24, r0
    1df0:	45 9f       	mul	r20, r21
    1df2:	90 0d       	add	r25, r0
    1df4:	90 0d       	add	r25, r0
    1df6:	11 24       	eor	r1, r1
    1df8:	9c 01       	movw	r18, r24
    1dfa:	99 0f       	add	r25, r25
    1dfc:	44 0b       	sbc	r20, r20
    1dfe:	55 0b       	sbc	r21, r21
    1e00:	2d 8b       	std	Y+21, r18	; 0x15
    1e02:	3e 8b       	std	Y+22, r19	; 0x16
    1e04:	4f 8b       	std	Y+23, r20	; 0x17
    1e06:	58 8f       	std	Y+24, r21	; 0x18
    1e08:	49 89       	ldd	r20, Y+17	; 0x11
    1e0a:	5a 89       	ldd	r21, Y+18	; 0x12
    1e0c:	6b 89       	ldd	r22, Y+19	; 0x13
    1e0e:	7c 89       	ldd	r23, Y+20	; 0x14
    1e10:	44 0f       	add	r20, r20
    1e12:	55 1f       	adc	r21, r21
    1e14:	66 1f       	adc	r22, r22
    1e16:	77 1f       	adc	r23, r23
    1e18:	44 0f       	add	r20, r20
    1e1a:	55 1f       	adc	r21, r21
    1e1c:	66 1f       	adc	r22, r22
    1e1e:	77 1f       	adc	r23, r23
    1e20:	4b 8f       	std	Y+27, r20	; 0x1b
    1e22:	5c 8f       	std	Y+28, r21	; 0x1c
    1e24:	6d 8f       	std	Y+29, r22	; 0x1d
    1e26:	7e 8f       	std	Y+30, r23	; 0x1e
    1e28:	6d 89       	ldd	r22, Y+21	; 0x15
    1e2a:	7e 89       	ldd	r23, Y+22	; 0x16
    1e2c:	8f 89       	ldd	r24, Y+23	; 0x17
    1e2e:	98 8d       	ldd	r25, Y+24	; 0x18
    1e30:	66 0f       	add	r22, r22
    1e32:	77 1f       	adc	r23, r23
    1e34:	88 1f       	adc	r24, r24
    1e36:	99 1f       	adc	r25, r25
    1e38:	66 0f       	add	r22, r22
    1e3a:	77 1f       	adc	r23, r23
    1e3c:	88 1f       	adc	r24, r24
    1e3e:	99 1f       	adc	r25, r25
    1e40:	6f 8f       	std	Y+31, r22	; 0x1f
    1e42:	78 a3       	std	Y+32, r23	; 0x20
    1e44:	89 a3       	std	Y+33, r24	; 0x21
    1e46:	9a a3       	std	Y+34, r25	; 0x22
    1e48:	00 23       	and	r16, r16
    1e4a:	09 f4       	brne	.+2      	; 0x1e4e <LCD_Ellipse+0xca>
    1e4c:	66 c1       	rjmp	.+716    	; 0x211a <LCD_Ellipse+0x396>
    1e4e:	89 81       	ldd	r24, Y+1	; 0x01
    1e50:	9a 81       	ldd	r25, Y+2	; 0x02
    1e52:	88 0f       	add	r24, r24
    1e54:	99 1f       	adc	r25, r25
    1e56:	a1 e0       	ldi	r26, 0x01	; 1
    1e58:	b0 e0       	ldi	r27, 0x00	; 0
    1e5a:	a8 1b       	sub	r26, r24
    1e5c:	b9 0b       	sbc	r27, r25
    1e5e:	29 89       	ldd	r18, Y+17	; 0x11
    1e60:	3a 89       	ldd	r19, Y+18	; 0x12
    1e62:	4b 89       	ldd	r20, Y+19	; 0x13
    1e64:	5c 89       	ldd	r21, Y+20	; 0x14
    1e66:	0e 94 75 1a 	call	0x34ea	; 0x34ea <__mulshisi3>
    1e6a:	cd 88       	ldd	r12, Y+21	; 0x15
    1e6c:	de 88       	ldd	r13, Y+22	; 0x16
    1e6e:	ef 88       	ldd	r14, Y+23	; 0x17
    1e70:	f8 8c       	ldd	r15, Y+24	; 0x18
    1e72:	cc 0c       	add	r12, r12
    1e74:	dd 1c       	adc	r13, r13
    1e76:	ee 1c       	adc	r14, r14
    1e78:	ff 1c       	adc	r15, r15
    1e7a:	9b 01       	movw	r18, r22
    1e7c:	ac 01       	movw	r20, r24
    1e7e:	2c 0d       	add	r18, r12
    1e80:	3d 1d       	adc	r19, r13
    1e82:	4e 1d       	adc	r20, r14
    1e84:	5f 1d       	adc	r21, r15
    1e86:	2f 83       	std	Y+7, r18	; 0x07
    1e88:	38 87       	std	Y+8, r19	; 0x08
    1e8a:	49 87       	std	Y+9, r20	; 0x09
    1e8c:	5a 87       	std	Y+10, r21	; 0x0a
    1e8e:	a9 81       	ldd	r26, Y+1	; 0x01
    1e90:	ba 81       	ldd	r27, Y+2	; 0x02
    1e92:	29 89       	ldd	r18, Y+17	; 0x11
    1e94:	3a 89       	ldd	r19, Y+18	; 0x12
    1e96:	4b 89       	ldd	r20, Y+19	; 0x13
    1e98:	5c 89       	ldd	r21, Y+20	; 0x14
    1e9a:	0e 94 75 1a 	call	0x34ea	; 0x34ea <__mulshisi3>
    1e9e:	99 23       	and	r25, r25
    1ea0:	0c f4       	brge	.+2      	; 0x1ea4 <LCD_Ellipse+0x120>
    1ea2:	8d c0       	rjmp	.+282    	; 0x1fbe <LCD_Ellipse+0x23a>
    1ea4:	0f 2e       	mov	r0, r31
    1ea6:	f6 e0       	ldi	r31, 0x06	; 6
    1ea8:	af 2e       	mov	r10, r31
    1eaa:	b1 2c       	mov	r11, r1
    1eac:	f0 2d       	mov	r31, r0
    1eae:	21 2c       	mov	r2, r1
    1eb0:	31 2c       	mov	r3, r1
    1eb2:	c3 01       	movw	r24, r6
    1eb4:	3b a1       	ldd	r19, Y+35	; 0x23
    1eb6:	83 1b       	sub	r24, r19
    1eb8:	91 09       	sbc	r25, r1
    1eba:	ac 01       	movw	r20, r24
    1ebc:	4f 5f       	subi	r20, 0xFF	; 255
    1ebe:	5f 4f       	sbci	r21, 0xFF	; 255
    1ec0:	5a 8f       	std	Y+26, r21	; 0x1a
    1ec2:	49 8f       	std	Y+25, r20	; 0x19
    1ec4:	b8 8b       	std	Y+16, r27	; 0x10
    1ec6:	af 87       	std	Y+15, r26	; 0x0f
    1ec8:	13 2f       	mov	r17, r19
    1eca:	cb 84       	ldd	r12, Y+11	; 0x0b
    1ecc:	dc 84       	ldd	r13, Y+12	; 0x0c
    1ece:	ed 84       	ldd	r14, Y+13	; 0x0d
    1ed0:	fe 84       	ldd	r15, Y+14	; 0x0e
    1ed2:	01 2f       	mov	r16, r17
    1ed4:	b4 01       	movw	r22, r8
    1ed6:	8f 85       	ldd	r24, Y+15	; 0x0f
    1ed8:	98 89       	ldd	r25, Y+16	; 0x10
    1eda:	68 1b       	sub	r22, r24
    1edc:	79 0b       	sbc	r23, r25
    1ede:	9b 01       	movw	r18, r22
    1ee0:	a9 8d       	ldd	r26, Y+25	; 0x19
    1ee2:	ba 8d       	ldd	r27, Y+26	; 0x1a
    1ee4:	a2 0d       	add	r26, r2
    1ee6:	b3 1d       	adc	r27, r3
    1ee8:	ba 83       	std	Y+2, r27	; 0x02
    1eea:	a9 83       	std	Y+1, r26	; 0x01
    1eec:	ad 01       	movw	r20, r26
    1eee:	c3 01       	movw	r24, r6
    1ef0:	82 19       	sub	r24, r2
    1ef2:	93 09       	sbc	r25, r3
    1ef4:	9e 83       	std	Y+6, r25	; 0x06
    1ef6:	8d 83       	std	Y+5, r24	; 0x05
    1ef8:	0e de       	rcall	.-996    	; 0x1b16 <LCD_Line>
    1efa:	cb 84       	ldd	r12, Y+11	; 0x0b
    1efc:	dc 84       	ldd	r13, Y+12	; 0x0c
    1efe:	ed 84       	ldd	r14, Y+13	; 0x0d
    1f00:	fe 84       	ldd	r15, Y+14	; 0x0e
    1f02:	6f 85       	ldd	r22, Y+15	; 0x0f
    1f04:	78 89       	ldd	r23, Y+16	; 0x10
    1f06:	68 0d       	add	r22, r8
    1f08:	79 1d       	adc	r23, r9
    1f0a:	9b 01       	movw	r18, r22
    1f0c:	49 81       	ldd	r20, Y+1	; 0x01
    1f0e:	5a 81       	ldd	r21, Y+2	; 0x02
    1f10:	8d 81       	ldd	r24, Y+5	; 0x05
    1f12:	9e 81       	ldd	r25, Y+6	; 0x06
    1f14:	00 de       	rcall	.-1024   	; 0x1b16 <LCD_Line>
    1f16:	2f 81       	ldd	r18, Y+7	; 0x07
    1f18:	38 85       	ldd	r19, Y+8	; 0x08
    1f1a:	49 85       	ldd	r20, Y+9	; 0x09
    1f1c:	5a 85       	ldd	r21, Y+10	; 0x0a
    1f1e:	55 23       	and	r21, r21
    1f20:	f4 f0       	brlt	.+60     	; 0x1f5e <LCD_Ellipse+0x1da>
    1f22:	a1 e0       	ldi	r26, 0x01	; 1
    1f24:	b0 e0       	ldi	r27, 0x00	; 0
    1f26:	4f 85       	ldd	r20, Y+15	; 0x0f
    1f28:	58 89       	ldd	r21, Y+16	; 0x10
    1f2a:	a4 1b       	sub	r26, r20
    1f2c:	b5 0b       	sbc	r27, r21
    1f2e:	2b 8d       	ldd	r18, Y+27	; 0x1b
    1f30:	3c 8d       	ldd	r19, Y+28	; 0x1c
    1f32:	4d 8d       	ldd	r20, Y+29	; 0x1d
    1f34:	5e 8d       	ldd	r21, Y+30	; 0x1e
    1f36:	0e 94 75 1a 	call	0x34ea	; 0x34ea <__mulshisi3>
    1f3a:	2f 81       	ldd	r18, Y+7	; 0x07
    1f3c:	38 85       	ldd	r19, Y+8	; 0x08
    1f3e:	49 85       	ldd	r20, Y+9	; 0x09
    1f40:	5a 85       	ldd	r21, Y+10	; 0x0a
    1f42:	26 0f       	add	r18, r22
    1f44:	37 1f       	adc	r19, r23
    1f46:	48 1f       	adc	r20, r24
    1f48:	59 1f       	adc	r21, r25
    1f4a:	2f 83       	std	Y+7, r18	; 0x07
    1f4c:	38 87       	std	Y+8, r19	; 0x08
    1f4e:	49 87       	std	Y+9, r20	; 0x09
    1f50:	5a 87       	std	Y+10, r21	; 0x0a
    1f52:	4f 85       	ldd	r20, Y+15	; 0x0f
    1f54:	58 89       	ldd	r21, Y+16	; 0x10
    1f56:	41 50       	subi	r20, 0x01	; 1
    1f58:	51 09       	sbc	r21, r1
    1f5a:	58 8b       	std	Y+16, r21	; 0x10
    1f5c:	4f 87       	std	Y+15, r20	; 0x0f
    1f5e:	d5 01       	movw	r26, r10
    1f60:	2d 89       	ldd	r18, Y+21	; 0x15
    1f62:	3e 89       	ldd	r19, Y+22	; 0x16
    1f64:	4f 89       	ldd	r20, Y+23	; 0x17
    1f66:	58 8d       	ldd	r21, Y+24	; 0x18
    1f68:	0e 94 75 1a 	call	0x34ea	; 0x34ea <__mulshisi3>
    1f6c:	2f 81       	ldd	r18, Y+7	; 0x07
    1f6e:	38 85       	ldd	r19, Y+8	; 0x08
    1f70:	49 85       	ldd	r20, Y+9	; 0x09
    1f72:	5a 85       	ldd	r21, Y+10	; 0x0a
    1f74:	26 0f       	add	r18, r22
    1f76:	37 1f       	adc	r19, r23
    1f78:	48 1f       	adc	r20, r24
    1f7a:	59 1f       	adc	r21, r25
    1f7c:	2f 83       	std	Y+7, r18	; 0x07
    1f7e:	38 87       	std	Y+8, r19	; 0x08
    1f80:	49 87       	std	Y+9, r20	; 0x09
    1f82:	5a 87       	std	Y+10, r21	; 0x0a
    1f84:	3f ef       	ldi	r19, 0xFF	; 255
    1f86:	23 1a       	sub	r2, r19
    1f88:	33 0a       	sbc	r3, r19
    1f8a:	44 e0       	ldi	r20, 0x04	; 4
    1f8c:	a4 0e       	add	r10, r20
    1f8e:	b1 1c       	adc	r11, r1
    1f90:	d1 01       	movw	r26, r2
    1f92:	2d 89       	ldd	r18, Y+21	; 0x15
    1f94:	3e 89       	ldd	r19, Y+22	; 0x16
    1f96:	4f 89       	ldd	r20, Y+23	; 0x17
    1f98:	58 8d       	ldd	r21, Y+24	; 0x18
    1f9a:	0e 94 75 1a 	call	0x34ea	; 0x34ea <__mulshisi3>
    1f9e:	6b 01       	movw	r12, r22
    1fa0:	7c 01       	movw	r14, r24
    1fa2:	af 85       	ldd	r26, Y+15	; 0x0f
    1fa4:	b8 89       	ldd	r27, Y+16	; 0x10
    1fa6:	29 89       	ldd	r18, Y+17	; 0x11
    1fa8:	3a 89       	ldd	r19, Y+18	; 0x12
    1faa:	4b 89       	ldd	r20, Y+19	; 0x13
    1fac:	5c 89       	ldd	r21, Y+20	; 0x14
    1fae:	0e 94 75 1a 	call	0x34ea	; 0x34ea <__mulshisi3>
    1fb2:	6c 15       	cp	r22, r12
    1fb4:	7d 05       	cpc	r23, r13
    1fb6:	8e 05       	cpc	r24, r14
    1fb8:	9f 05       	cpc	r25, r15
    1fba:	0c f0       	brlt	.+2      	; 0x1fbe <LCD_Ellipse+0x23a>
    1fbc:	86 cf       	rjmp	.-244    	; 0x1eca <LCD_Ellipse+0x146>
    1fbe:	c2 01       	movw	r24, r4
    1fc0:	88 0f       	add	r24, r24
    1fc2:	99 1f       	adc	r25, r25
    1fc4:	a1 e0       	ldi	r26, 0x01	; 1
    1fc6:	b0 e0       	ldi	r27, 0x00	; 0
    1fc8:	a8 1b       	sub	r26, r24
    1fca:	b9 0b       	sbc	r27, r25
    1fcc:	2d 89       	ldd	r18, Y+21	; 0x15
    1fce:	3e 89       	ldd	r19, Y+22	; 0x16
    1fd0:	4f 89       	ldd	r20, Y+23	; 0x17
    1fd2:	58 8d       	ldd	r21, Y+24	; 0x18
    1fd4:	0e 94 75 1a 	call	0x34ea	; 0x34ea <__mulshisi3>
    1fd8:	c9 88       	ldd	r12, Y+17	; 0x11
    1fda:	da 88       	ldd	r13, Y+18	; 0x12
    1fdc:	eb 88       	ldd	r14, Y+19	; 0x13
    1fde:	fc 88       	ldd	r15, Y+20	; 0x14
    1fe0:	cc 0c       	add	r12, r12
    1fe2:	dd 1c       	adc	r13, r13
    1fe4:	ee 1c       	adc	r14, r14
    1fe6:	ff 1c       	adc	r15, r15
    1fe8:	9b 01       	movw	r18, r22
    1fea:	ac 01       	movw	r20, r24
    1fec:	2c 0d       	add	r18, r12
    1fee:	3d 1d       	adc	r19, r13
    1ff0:	4e 1d       	adc	r20, r14
    1ff2:	5f 1d       	adc	r21, r15
    1ff4:	29 83       	std	Y+1, r18	; 0x01
    1ff6:	3a 83       	std	Y+2, r19	; 0x02
    1ff8:	4b 83       	std	Y+3, r20	; 0x03
    1ffa:	5c 83       	std	Y+4, r21	; 0x04
    1ffc:	d2 01       	movw	r26, r4
    1ffe:	2d 89       	ldd	r18, Y+21	; 0x15
    2000:	3e 89       	ldd	r19, Y+22	; 0x16
    2002:	4f 89       	ldd	r20, Y+23	; 0x17
    2004:	58 8d       	ldd	r21, Y+24	; 0x18
    2006:	0e 94 75 1a 	call	0x34ea	; 0x34ea <__mulshisi3>
    200a:	99 23       	and	r25, r25
    200c:	0c f4       	brge	.+2      	; 0x2010 <LCD_Ellipse+0x28c>
    200e:	f5 c1       	rjmp	.+1002   	; 0x23fa <LCD_Ellipse+0x676>
    2010:	0f 2e       	mov	r0, r31
    2012:	f6 e0       	ldi	r31, 0x06	; 6
    2014:	af 2e       	mov	r10, r31
    2016:	b1 2c       	mov	r11, r1
    2018:	f0 2d       	mov	r31, r0
    201a:	21 2c       	mov	r2, r1
    201c:	31 2c       	mov	r3, r1
    201e:	5b a1       	ldd	r21, Y+35	; 0x23
    2020:	45 2f       	mov	r20, r21
    2022:	50 e0       	ldi	r21, 0x00	; 0
    2024:	58 8b       	std	Y+16, r21	; 0x10
    2026:	4f 87       	std	Y+15, r20	; 0x0f
    2028:	1b a1       	ldd	r17, Y+35	; 0x23
    202a:	c3 01       	movw	r24, r6
    202c:	84 0d       	add	r24, r4
    202e:	95 1d       	adc	r25, r5
    2030:	01 96       	adiw	r24, 0x01	; 1
    2032:	bc 01       	movw	r22, r24
    2034:	af 85       	ldd	r26, Y+15	; 0x0f
    2036:	b8 89       	ldd	r27, Y+16	; 0x10
    2038:	6a 1b       	sub	r22, r26
    203a:	7b 0b       	sbc	r23, r27
    203c:	78 87       	std	Y+8, r23	; 0x08
    203e:	6f 83       	std	Y+7, r22	; 0x07
    2040:	cb 84       	ldd	r12, Y+11	; 0x0b
    2042:	dc 84       	ldd	r13, Y+12	; 0x0c
    2044:	ed 84       	ldd	r14, Y+13	; 0x0d
    2046:	fe 84       	ldd	r15, Y+14	; 0x0e
    2048:	01 2f       	mov	r16, r17
    204a:	b4 01       	movw	r22, r8
    204c:	62 19       	sub	r22, r2
    204e:	73 09       	sbc	r23, r3
    2050:	9b 01       	movw	r18, r22
    2052:	4f 81       	ldd	r20, Y+7	; 0x07
    2054:	58 85       	ldd	r21, Y+8	; 0x08
    2056:	c3 01       	movw	r24, r6
    2058:	84 19       	sub	r24, r4
    205a:	95 09       	sbc	r25, r5
    205c:	9e 83       	std	Y+6, r25	; 0x06
    205e:	8d 83       	std	Y+5, r24	; 0x05
    2060:	5a dd       	rcall	.-1356   	; 0x1b16 <LCD_Line>
    2062:	cb 84       	ldd	r12, Y+11	; 0x0b
    2064:	dc 84       	ldd	r13, Y+12	; 0x0c
    2066:	ed 84       	ldd	r14, Y+13	; 0x0d
    2068:	fe 84       	ldd	r15, Y+14	; 0x0e
    206a:	b4 01       	movw	r22, r8
    206c:	62 0d       	add	r22, r2
    206e:	73 1d       	adc	r23, r3
    2070:	9b 01       	movw	r18, r22
    2072:	4f 81       	ldd	r20, Y+7	; 0x07
    2074:	58 85       	ldd	r21, Y+8	; 0x08
    2076:	8d 81       	ldd	r24, Y+5	; 0x05
    2078:	9e 81       	ldd	r25, Y+6	; 0x06
    207a:	4d dd       	rcall	.-1382   	; 0x1b16 <LCD_Line>
    207c:	29 81       	ldd	r18, Y+1	; 0x01
    207e:	3a 81       	ldd	r19, Y+2	; 0x02
    2080:	4b 81       	ldd	r20, Y+3	; 0x03
    2082:	5c 81       	ldd	r21, Y+4	; 0x04
    2084:	55 23       	and	r21, r21
    2086:	cc f0       	brlt	.+50     	; 0x20ba <LCD_Ellipse+0x336>
    2088:	a1 e0       	ldi	r26, 0x01	; 1
    208a:	b0 e0       	ldi	r27, 0x00	; 0
    208c:	a4 19       	sub	r26, r4
    208e:	b5 09       	sbc	r27, r5
    2090:	2f 8d       	ldd	r18, Y+31	; 0x1f
    2092:	38 a1       	ldd	r19, Y+32	; 0x20
    2094:	49 a1       	ldd	r20, Y+33	; 0x21
    2096:	5a a1       	ldd	r21, Y+34	; 0x22
    2098:	0e 94 75 1a 	call	0x34ea	; 0x34ea <__mulshisi3>
    209c:	29 81       	ldd	r18, Y+1	; 0x01
    209e:	3a 81       	ldd	r19, Y+2	; 0x02
    20a0:	4b 81       	ldd	r20, Y+3	; 0x03
    20a2:	5c 81       	ldd	r21, Y+4	; 0x04
    20a4:	26 0f       	add	r18, r22
    20a6:	37 1f       	adc	r19, r23
    20a8:	48 1f       	adc	r20, r24
    20aa:	59 1f       	adc	r21, r25
    20ac:	29 83       	std	Y+1, r18	; 0x01
    20ae:	3a 83       	std	Y+2, r19	; 0x02
    20b0:	4b 83       	std	Y+3, r20	; 0x03
    20b2:	5c 83       	std	Y+4, r21	; 0x04
    20b4:	31 e0       	ldi	r19, 0x01	; 1
    20b6:	43 1a       	sub	r4, r19
    20b8:	51 08       	sbc	r5, r1
    20ba:	d5 01       	movw	r26, r10
    20bc:	29 89       	ldd	r18, Y+17	; 0x11
    20be:	3a 89       	ldd	r19, Y+18	; 0x12
    20c0:	4b 89       	ldd	r20, Y+19	; 0x13
    20c2:	5c 89       	ldd	r21, Y+20	; 0x14
    20c4:	0e 94 75 1a 	call	0x34ea	; 0x34ea <__mulshisi3>
    20c8:	29 81       	ldd	r18, Y+1	; 0x01
    20ca:	3a 81       	ldd	r19, Y+2	; 0x02
    20cc:	4b 81       	ldd	r20, Y+3	; 0x03
    20ce:	5c 81       	ldd	r21, Y+4	; 0x04
    20d0:	26 0f       	add	r18, r22
    20d2:	37 1f       	adc	r19, r23
    20d4:	48 1f       	adc	r20, r24
    20d6:	59 1f       	adc	r21, r25
    20d8:	29 83       	std	Y+1, r18	; 0x01
    20da:	3a 83       	std	Y+2, r19	; 0x02
    20dc:	4b 83       	std	Y+3, r20	; 0x03
    20de:	5c 83       	std	Y+4, r21	; 0x04
    20e0:	3f ef       	ldi	r19, 0xFF	; 255
    20e2:	23 1a       	sub	r2, r19
    20e4:	33 0a       	sbc	r3, r19
    20e6:	44 e0       	ldi	r20, 0x04	; 4
    20e8:	a4 0e       	add	r10, r20
    20ea:	b1 1c       	adc	r11, r1
    20ec:	d1 01       	movw	r26, r2
    20ee:	29 89       	ldd	r18, Y+17	; 0x11
    20f0:	3a 89       	ldd	r19, Y+18	; 0x12
    20f2:	4b 89       	ldd	r20, Y+19	; 0x13
    20f4:	5c 89       	ldd	r21, Y+20	; 0x14
    20f6:	0e 94 75 1a 	call	0x34ea	; 0x34ea <__mulshisi3>
    20fa:	6b 01       	movw	r12, r22
    20fc:	7c 01       	movw	r14, r24
    20fe:	d2 01       	movw	r26, r4
    2100:	2d 89       	ldd	r18, Y+21	; 0x15
    2102:	3e 89       	ldd	r19, Y+22	; 0x16
    2104:	4f 89       	ldd	r20, Y+23	; 0x17
    2106:	58 8d       	ldd	r21, Y+24	; 0x18
    2108:	0e 94 75 1a 	call	0x34ea	; 0x34ea <__mulshisi3>
    210c:	6c 15       	cp	r22, r12
    210e:	7d 05       	cpc	r23, r13
    2110:	8e 05       	cpc	r24, r14
    2112:	9f 05       	cpc	r25, r15
    2114:	0c f0       	brlt	.+2      	; 0x2118 <LCD_Ellipse+0x394>
    2116:	89 cf       	rjmp	.-238    	; 0x202a <LCD_Ellipse+0x2a6>
    2118:	70 c1       	rjmp	.+736    	; 0x23fa <LCD_Ellipse+0x676>
    211a:	89 81       	ldd	r24, Y+1	; 0x01
    211c:	9a 81       	ldd	r25, Y+2	; 0x02
    211e:	88 0f       	add	r24, r24
    2120:	99 1f       	adc	r25, r25
    2122:	a1 e0       	ldi	r26, 0x01	; 1
    2124:	b0 e0       	ldi	r27, 0x00	; 0
    2126:	a8 1b       	sub	r26, r24
    2128:	b9 0b       	sbc	r27, r25
    212a:	29 89       	ldd	r18, Y+17	; 0x11
    212c:	3a 89       	ldd	r19, Y+18	; 0x12
    212e:	4b 89       	ldd	r20, Y+19	; 0x13
    2130:	5c 89       	ldd	r21, Y+20	; 0x14
    2132:	0e 94 75 1a 	call	0x34ea	; 0x34ea <__mulshisi3>
    2136:	cd 88       	ldd	r12, Y+21	; 0x15
    2138:	de 88       	ldd	r13, Y+22	; 0x16
    213a:	ef 88       	ldd	r14, Y+23	; 0x17
    213c:	f8 8c       	ldd	r15, Y+24	; 0x18
    213e:	cc 0c       	add	r12, r12
    2140:	dd 1c       	adc	r13, r13
    2142:	ee 1c       	adc	r14, r14
    2144:	ff 1c       	adc	r15, r15
    2146:	56 01       	movw	r10, r12
    2148:	67 01       	movw	r12, r14
    214a:	a6 0e       	add	r10, r22
    214c:	b7 1e       	adc	r11, r23
    214e:	c8 1e       	adc	r12, r24
    2150:	d9 1e       	adc	r13, r25
    2152:	a9 81       	ldd	r26, Y+1	; 0x01
    2154:	ba 81       	ldd	r27, Y+2	; 0x02
    2156:	0e 94 75 1a 	call	0x34ea	; 0x34ea <__mulshisi3>
    215a:	99 23       	and	r25, r25
    215c:	0c f4       	brge	.+2      	; 0x2160 <LCD_Ellipse+0x3dc>
    215e:	91 c0       	rjmp	.+290    	; 0x2282 <LCD_Ellipse+0x4fe>
    2160:	66 e0       	ldi	r22, 0x06	; 6
    2162:	70 e0       	ldi	r23, 0x00	; 0
    2164:	7a 8f       	std	Y+26, r23	; 0x1a
    2166:	69 8f       	std	Y+25, r22	; 0x19
    2168:	21 2c       	mov	r2, r1
    216a:	31 2c       	mov	r3, r1
    216c:	9b a1       	ldd	r25, Y+35	; 0x23
    216e:	89 2f       	mov	r24, r25
    2170:	90 e0       	ldi	r25, 0x00	; 0
    2172:	9e 83       	std	Y+6, r25	; 0x06
    2174:	8d 83       	std	Y+5, r24	; 0x05
    2176:	bd a3       	std	Y+37, r27	; 0x25
    2178:	ac a3       	std	Y+36, r26	; 0x24
    217a:	eb 84       	ldd	r14, Y+11	; 0x0b
    217c:	fc 84       	ldd	r15, Y+12	; 0x0c
    217e:	0d 85       	ldd	r16, Y+13	; 0x0d
    2180:	1e 85       	ldd	r17, Y+14	; 0x0e
    2182:	2d 81       	ldd	r18, Y+5	; 0x05
    2184:	3e 81       	ldd	r19, Y+6	; 0x06
    2186:	a9 01       	movw	r20, r18
    2188:	ac a1       	ldd	r26, Y+36	; 0x24
    218a:	bd a1       	ldd	r27, Y+37	; 0x25
    218c:	a8 0d       	add	r26, r8
    218e:	b9 1d       	adc	r27, r9
    2190:	ba 83       	std	Y+2, r27	; 0x02
    2192:	a9 83       	std	Y+1, r26	; 0x01
    2194:	bd 01       	movw	r22, r26
    2196:	c1 01       	movw	r24, r2
    2198:	86 0d       	add	r24, r6
    219a:	97 1d       	adc	r25, r7
    219c:	98 87       	std	Y+8, r25	; 0x08
    219e:	8f 83       	std	Y+7, r24	; 0x07
    21a0:	19 dc       	rcall	.-1998   	; 0x19d4 <LCD_Rect_Fill>
    21a2:	eb 84       	ldd	r14, Y+11	; 0x0b
    21a4:	fc 84       	ldd	r15, Y+12	; 0x0c
    21a6:	0d 85       	ldd	r16, Y+13	; 0x0d
    21a8:	1e 85       	ldd	r17, Y+14	; 0x0e
    21aa:	2d 81       	ldd	r18, Y+5	; 0x05
    21ac:	3e 81       	ldd	r19, Y+6	; 0x06
    21ae:	a9 01       	movw	r20, r18
    21b0:	69 81       	ldd	r22, Y+1	; 0x01
    21b2:	7a 81       	ldd	r23, Y+2	; 0x02
    21b4:	d3 01       	movw	r26, r6
    21b6:	a2 19       	sub	r26, r2
    21b8:	b3 09       	sbc	r27, r3
    21ba:	b8 8b       	std	Y+16, r27	; 0x10
    21bc:	af 87       	std	Y+15, r26	; 0x0f
    21be:	cd 01       	movw	r24, r26
    21c0:	09 dc       	rcall	.-2030   	; 0x19d4 <LCD_Rect_Fill>
    21c2:	eb 84       	ldd	r14, Y+11	; 0x0b
    21c4:	fc 84       	ldd	r15, Y+12	; 0x0c
    21c6:	0d 85       	ldd	r16, Y+13	; 0x0d
    21c8:	1e 85       	ldd	r17, Y+14	; 0x0e
    21ca:	2d 81       	ldd	r18, Y+5	; 0x05
    21cc:	3e 81       	ldd	r19, Y+6	; 0x06
    21ce:	a9 01       	movw	r20, r18
    21d0:	b4 01       	movw	r22, r8
    21d2:	8c a1       	ldd	r24, Y+36	; 0x24
    21d4:	9d a1       	ldd	r25, Y+37	; 0x25
    21d6:	68 1b       	sub	r22, r24
    21d8:	79 0b       	sbc	r23, r25
    21da:	7a 83       	std	Y+2, r23	; 0x02
    21dc:	69 83       	std	Y+1, r22	; 0x01
    21de:	8f 81       	ldd	r24, Y+7	; 0x07
    21e0:	98 85       	ldd	r25, Y+8	; 0x08
    21e2:	f8 db       	rcall	.-2064   	; 0x19d4 <LCD_Rect_Fill>
    21e4:	eb 84       	ldd	r14, Y+11	; 0x0b
    21e6:	fc 84       	ldd	r15, Y+12	; 0x0c
    21e8:	0d 85       	ldd	r16, Y+13	; 0x0d
    21ea:	1e 85       	ldd	r17, Y+14	; 0x0e
    21ec:	2d 81       	ldd	r18, Y+5	; 0x05
    21ee:	3e 81       	ldd	r19, Y+6	; 0x06
    21f0:	a9 01       	movw	r20, r18
    21f2:	69 81       	ldd	r22, Y+1	; 0x01
    21f4:	7a 81       	ldd	r23, Y+2	; 0x02
    21f6:	8f 85       	ldd	r24, Y+15	; 0x0f
    21f8:	98 89       	ldd	r25, Y+16	; 0x10
    21fa:	ec db       	rcall	.-2088   	; 0x19d4 <LCD_Rect_Fill>
    21fc:	dd 20       	and	r13, r13
    21fe:	b4 f0       	brlt	.+44     	; 0x222c <LCD_Ellipse+0x4a8>
    2200:	a1 e0       	ldi	r26, 0x01	; 1
    2202:	b0 e0       	ldi	r27, 0x00	; 0
    2204:	2c a1       	ldd	r18, Y+36	; 0x24
    2206:	3d a1       	ldd	r19, Y+37	; 0x25
    2208:	a2 1b       	sub	r26, r18
    220a:	b3 0b       	sbc	r27, r19
    220c:	2b 8d       	ldd	r18, Y+27	; 0x1b
    220e:	3c 8d       	ldd	r19, Y+28	; 0x1c
    2210:	4d 8d       	ldd	r20, Y+29	; 0x1d
    2212:	5e 8d       	ldd	r21, Y+30	; 0x1e
    2214:	0e 94 75 1a 	call	0x34ea	; 0x34ea <__mulshisi3>
    2218:	a6 0e       	add	r10, r22
    221a:	b7 1e       	adc	r11, r23
    221c:	c8 1e       	adc	r12, r24
    221e:	d9 1e       	adc	r13, r25
    2220:	4c a1       	ldd	r20, Y+36	; 0x24
    2222:	5d a1       	ldd	r21, Y+37	; 0x25
    2224:	41 50       	subi	r20, 0x01	; 1
    2226:	51 09       	sbc	r21, r1
    2228:	5d a3       	std	Y+37, r21	; 0x25
    222a:	4c a3       	std	Y+36, r20	; 0x24
    222c:	a9 8d       	ldd	r26, Y+25	; 0x19
    222e:	ba 8d       	ldd	r27, Y+26	; 0x1a
    2230:	2d 89       	ldd	r18, Y+21	; 0x15
    2232:	3e 89       	ldd	r19, Y+22	; 0x16
    2234:	4f 89       	ldd	r20, Y+23	; 0x17
    2236:	58 8d       	ldd	r21, Y+24	; 0x18
    2238:	0e 94 75 1a 	call	0x34ea	; 0x34ea <__mulshisi3>
    223c:	a6 0e       	add	r10, r22
    223e:	b7 1e       	adc	r11, r23
    2240:	c8 1e       	adc	r12, r24
    2242:	d9 1e       	adc	r13, r25
    2244:	5f ef       	ldi	r21, 0xFF	; 255
    2246:	25 1a       	sub	r2, r21
    2248:	35 0a       	sbc	r3, r21
    224a:	bd 01       	movw	r22, r26
    224c:	6c 5f       	subi	r22, 0xFC	; 252
    224e:	7f 4f       	sbci	r23, 0xFF	; 255
    2250:	7a 8f       	std	Y+26, r23	; 0x1a
    2252:	69 8f       	std	Y+25, r22	; 0x19
    2254:	d1 01       	movw	r26, r2
    2256:	2d 89       	ldd	r18, Y+21	; 0x15
    2258:	3e 89       	ldd	r19, Y+22	; 0x16
    225a:	4f 89       	ldd	r20, Y+23	; 0x17
    225c:	58 8d       	ldd	r21, Y+24	; 0x18
    225e:	0e 94 75 1a 	call	0x34ea	; 0x34ea <__mulshisi3>
    2262:	7b 01       	movw	r14, r22
    2264:	8c 01       	movw	r16, r24
    2266:	ac a1       	ldd	r26, Y+36	; 0x24
    2268:	bd a1       	ldd	r27, Y+37	; 0x25
    226a:	29 89       	ldd	r18, Y+17	; 0x11
    226c:	3a 89       	ldd	r19, Y+18	; 0x12
    226e:	4b 89       	ldd	r20, Y+19	; 0x13
    2270:	5c 89       	ldd	r21, Y+20	; 0x14
    2272:	0e 94 75 1a 	call	0x34ea	; 0x34ea <__mulshisi3>
    2276:	6e 15       	cp	r22, r14
    2278:	7f 05       	cpc	r23, r15
    227a:	80 07       	cpc	r24, r16
    227c:	91 07       	cpc	r25, r17
    227e:	0c f0       	brlt	.+2      	; 0x2282 <LCD_Ellipse+0x4fe>
    2280:	7c cf       	rjmp	.-264    	; 0x217a <LCD_Ellipse+0x3f6>
    2282:	c2 01       	movw	r24, r4
    2284:	88 0f       	add	r24, r24
    2286:	99 1f       	adc	r25, r25
    2288:	a1 e0       	ldi	r26, 0x01	; 1
    228a:	b0 e0       	ldi	r27, 0x00	; 0
    228c:	a8 1b       	sub	r26, r24
    228e:	b9 0b       	sbc	r27, r25
    2290:	2d 89       	ldd	r18, Y+21	; 0x15
    2292:	3e 89       	ldd	r19, Y+22	; 0x16
    2294:	4f 89       	ldd	r20, Y+23	; 0x17
    2296:	58 8d       	ldd	r21, Y+24	; 0x18
    2298:	0e 94 75 1a 	call	0x34ea	; 0x34ea <__mulshisi3>
    229c:	c9 88       	ldd	r12, Y+17	; 0x11
    229e:	da 88       	ldd	r13, Y+18	; 0x12
    22a0:	eb 88       	ldd	r14, Y+19	; 0x13
    22a2:	fc 88       	ldd	r15, Y+20	; 0x14
    22a4:	cc 0c       	add	r12, r12
    22a6:	dd 1c       	adc	r13, r13
    22a8:	ee 1c       	adc	r14, r14
    22aa:	ff 1c       	adc	r15, r15
    22ac:	9b 01       	movw	r18, r22
    22ae:	ac 01       	movw	r20, r24
    22b0:	2c 0d       	add	r18, r12
    22b2:	3d 1d       	adc	r19, r13
    22b4:	4e 1d       	adc	r20, r14
    22b6:	5f 1d       	adc	r21, r15
    22b8:	2f 83       	std	Y+7, r18	; 0x07
    22ba:	38 87       	std	Y+8, r19	; 0x08
    22bc:	49 87       	std	Y+9, r20	; 0x09
    22be:	5a 87       	std	Y+10, r21	; 0x0a
    22c0:	d2 01       	movw	r26, r4
    22c2:	2d 89       	ldd	r18, Y+21	; 0x15
    22c4:	3e 89       	ldd	r19, Y+22	; 0x16
    22c6:	4f 89       	ldd	r20, Y+23	; 0x17
    22c8:	58 8d       	ldd	r21, Y+24	; 0x18
    22ca:	0e 94 75 1a 	call	0x34ea	; 0x34ea <__mulshisi3>
    22ce:	99 23       	and	r25, r25
    22d0:	0c f4       	brge	.+2      	; 0x22d4 <LCD_Ellipse+0x550>
    22d2:	93 c0       	rjmp	.+294    	; 0x23fa <LCD_Ellipse+0x676>
    22d4:	0f 2e       	mov	r0, r31
    22d6:	f6 e0       	ldi	r31, 0x06	; 6
    22d8:	af 2e       	mov	r10, r31
    22da:	b1 2c       	mov	r11, r1
    22dc:	f0 2d       	mov	r31, r0
    22de:	21 2c       	mov	r2, r1
    22e0:	31 2c       	mov	r3, r1
    22e2:	5b a1       	ldd	r21, Y+35	; 0x23
    22e4:	45 2f       	mov	r20, r21
    22e6:	50 e0       	ldi	r21, 0x00	; 0
    22e8:	58 8b       	std	Y+16, r21	; 0x10
    22ea:	4f 87       	std	Y+15, r20	; 0x0f
    22ec:	eb 84       	ldd	r14, Y+11	; 0x0b
    22ee:	fc 84       	ldd	r15, Y+12	; 0x0c
    22f0:	0d 85       	ldd	r16, Y+13	; 0x0d
    22f2:	1e 85       	ldd	r17, Y+14	; 0x0e
    22f4:	2f 85       	ldd	r18, Y+15	; 0x0f
    22f6:	38 89       	ldd	r19, Y+16	; 0x10
    22f8:	a9 01       	movw	r20, r18
    22fa:	61 01       	movw	r12, r2
    22fc:	c8 0c       	add	r12, r8
    22fe:	d9 1c       	adc	r13, r9
    2300:	b6 01       	movw	r22, r12
    2302:	c3 01       	movw	r24, r6
    2304:	84 0d       	add	r24, r4
    2306:	95 1d       	adc	r25, r5
    2308:	9e 83       	std	Y+6, r25	; 0x06
    230a:	8d 83       	std	Y+5, r24	; 0x05
    230c:	63 db       	rcall	.-2362   	; 0x19d4 <LCD_Rect_Fill>
    230e:	eb 84       	ldd	r14, Y+11	; 0x0b
    2310:	fc 84       	ldd	r15, Y+12	; 0x0c
    2312:	0d 85       	ldd	r16, Y+13	; 0x0d
    2314:	1e 85       	ldd	r17, Y+14	; 0x0e
    2316:	2f 85       	ldd	r18, Y+15	; 0x0f
    2318:	38 89       	ldd	r19, Y+16	; 0x10
    231a:	a9 01       	movw	r20, r18
    231c:	b6 01       	movw	r22, r12
    231e:	d3 01       	movw	r26, r6
    2320:	a4 19       	sub	r26, r4
    2322:	b5 09       	sbc	r27, r5
    2324:	ba 83       	std	Y+2, r27	; 0x02
    2326:	a9 83       	std	Y+1, r26	; 0x01
    2328:	cd 01       	movw	r24, r26
    232a:	54 db       	rcall	.-2392   	; 0x19d4 <LCD_Rect_Fill>
    232c:	eb 84       	ldd	r14, Y+11	; 0x0b
    232e:	fc 84       	ldd	r15, Y+12	; 0x0c
    2330:	0d 85       	ldd	r16, Y+13	; 0x0d
    2332:	1e 85       	ldd	r17, Y+14	; 0x0e
    2334:	2f 85       	ldd	r18, Y+15	; 0x0f
    2336:	38 89       	ldd	r19, Y+16	; 0x10
    2338:	a9 01       	movw	r20, r18
    233a:	64 01       	movw	r12, r8
    233c:	c2 18       	sub	r12, r2
    233e:	d3 08       	sbc	r13, r3
    2340:	b6 01       	movw	r22, r12
    2342:	8d 81       	ldd	r24, Y+5	; 0x05
    2344:	9e 81       	ldd	r25, Y+6	; 0x06
    2346:	46 db       	rcall	.-2420   	; 0x19d4 <LCD_Rect_Fill>
    2348:	eb 84       	ldd	r14, Y+11	; 0x0b
    234a:	fc 84       	ldd	r15, Y+12	; 0x0c
    234c:	0d 85       	ldd	r16, Y+13	; 0x0d
    234e:	1e 85       	ldd	r17, Y+14	; 0x0e
    2350:	2f 85       	ldd	r18, Y+15	; 0x0f
    2352:	38 89       	ldd	r19, Y+16	; 0x10
    2354:	a9 01       	movw	r20, r18
    2356:	b6 01       	movw	r22, r12
    2358:	89 81       	ldd	r24, Y+1	; 0x01
    235a:	9a 81       	ldd	r25, Y+2	; 0x02
    235c:	3b db       	rcall	.-2442   	; 0x19d4 <LCD_Rect_Fill>
    235e:	2f 81       	ldd	r18, Y+7	; 0x07
    2360:	38 85       	ldd	r19, Y+8	; 0x08
    2362:	49 85       	ldd	r20, Y+9	; 0x09
    2364:	5a 85       	ldd	r21, Y+10	; 0x0a
    2366:	55 23       	and	r21, r21
    2368:	cc f0       	brlt	.+50     	; 0x239c <LCD_Ellipse+0x618>
    236a:	a1 e0       	ldi	r26, 0x01	; 1
    236c:	b0 e0       	ldi	r27, 0x00	; 0
    236e:	a4 19       	sub	r26, r4
    2370:	b5 09       	sbc	r27, r5
    2372:	2f 8d       	ldd	r18, Y+31	; 0x1f
    2374:	38 a1       	ldd	r19, Y+32	; 0x20
    2376:	49 a1       	ldd	r20, Y+33	; 0x21
    2378:	5a a1       	ldd	r21, Y+34	; 0x22
    237a:	0e 94 75 1a 	call	0x34ea	; 0x34ea <__mulshisi3>
    237e:	2f 81       	ldd	r18, Y+7	; 0x07
    2380:	38 85       	ldd	r19, Y+8	; 0x08
    2382:	49 85       	ldd	r20, Y+9	; 0x09
    2384:	5a 85       	ldd	r21, Y+10	; 0x0a
    2386:	26 0f       	add	r18, r22
    2388:	37 1f       	adc	r19, r23
    238a:	48 1f       	adc	r20, r24
    238c:	59 1f       	adc	r21, r25
    238e:	2f 83       	std	Y+7, r18	; 0x07
    2390:	38 87       	std	Y+8, r19	; 0x08
    2392:	49 87       	std	Y+9, r20	; 0x09
    2394:	5a 87       	std	Y+10, r21	; 0x0a
    2396:	31 e0       	ldi	r19, 0x01	; 1
    2398:	43 1a       	sub	r4, r19
    239a:	51 08       	sbc	r5, r1
    239c:	d5 01       	movw	r26, r10
    239e:	29 89       	ldd	r18, Y+17	; 0x11
    23a0:	3a 89       	ldd	r19, Y+18	; 0x12
    23a2:	4b 89       	ldd	r20, Y+19	; 0x13
    23a4:	5c 89       	ldd	r21, Y+20	; 0x14
    23a6:	0e 94 75 1a 	call	0x34ea	; 0x34ea <__mulshisi3>
    23aa:	2f 81       	ldd	r18, Y+7	; 0x07
    23ac:	38 85       	ldd	r19, Y+8	; 0x08
    23ae:	49 85       	ldd	r20, Y+9	; 0x09
    23b0:	5a 85       	ldd	r21, Y+10	; 0x0a
    23b2:	26 0f       	add	r18, r22
    23b4:	37 1f       	adc	r19, r23
    23b6:	48 1f       	adc	r20, r24
    23b8:	59 1f       	adc	r21, r25
    23ba:	2f 83       	std	Y+7, r18	; 0x07
    23bc:	38 87       	std	Y+8, r19	; 0x08
    23be:	49 87       	std	Y+9, r20	; 0x09
    23c0:	5a 87       	std	Y+10, r21	; 0x0a
    23c2:	3f ef       	ldi	r19, 0xFF	; 255
    23c4:	23 1a       	sub	r2, r19
    23c6:	33 0a       	sbc	r3, r19
    23c8:	44 e0       	ldi	r20, 0x04	; 4
    23ca:	a4 0e       	add	r10, r20
    23cc:	b1 1c       	adc	r11, r1
    23ce:	d1 01       	movw	r26, r2
    23d0:	29 89       	ldd	r18, Y+17	; 0x11
    23d2:	3a 89       	ldd	r19, Y+18	; 0x12
    23d4:	4b 89       	ldd	r20, Y+19	; 0x13
    23d6:	5c 89       	ldd	r21, Y+20	; 0x14
    23d8:	0e 94 75 1a 	call	0x34ea	; 0x34ea <__mulshisi3>
    23dc:	6b 01       	movw	r12, r22
    23de:	7c 01       	movw	r14, r24
    23e0:	d2 01       	movw	r26, r4
    23e2:	2d 89       	ldd	r18, Y+21	; 0x15
    23e4:	3e 89       	ldd	r19, Y+22	; 0x16
    23e6:	4f 89       	ldd	r20, Y+23	; 0x17
    23e8:	58 8d       	ldd	r21, Y+24	; 0x18
    23ea:	0e 94 75 1a 	call	0x34ea	; 0x34ea <__mulshisi3>
    23ee:	6c 15       	cp	r22, r12
    23f0:	7d 05       	cpc	r23, r13
    23f2:	8e 05       	cpc	r24, r14
    23f4:	9f 05       	cpc	r25, r15
    23f6:	0c f0       	brlt	.+2      	; 0x23fa <LCD_Ellipse+0x676>
    23f8:	79 cf       	rjmp	.-270    	; 0x22ec <LCD_Ellipse+0x568>
    23fa:	a5 96       	adiw	r28, 0x25	; 37
    23fc:	0f b6       	in	r0, 0x3f	; 63
    23fe:	f8 94       	cli
    2400:	de bf       	out	0x3e, r29	; 62
    2402:	0f be       	out	0x3f, r0	; 63
    2404:	cd bf       	out	0x3d, r28	; 61
    2406:	df 91       	pop	r29
    2408:	cf 91       	pop	r28
    240a:	1f 91       	pop	r17
    240c:	0f 91       	pop	r16
    240e:	ff 90       	pop	r15
    2410:	ef 90       	pop	r14
    2412:	df 90       	pop	r13
    2414:	cf 90       	pop	r12
    2416:	bf 90       	pop	r11
    2418:	af 90       	pop	r10
    241a:	9f 90       	pop	r9
    241c:	8f 90       	pop	r8
    241e:	7f 90       	pop	r7
    2420:	6f 90       	pop	r6
    2422:	5f 90       	pop	r5
    2424:	4f 90       	pop	r4
    2426:	3f 90       	pop	r3
    2428:	2f 90       	pop	r2
    242a:	08 95       	ret

0000242c <LCD_Circle>:
    242c:	2f 92       	push	r2
    242e:	3f 92       	push	r3
    2430:	4f 92       	push	r4
    2432:	5f 92       	push	r5
    2434:	6f 92       	push	r6
    2436:	7f 92       	push	r7
    2438:	8f 92       	push	r8
    243a:	9f 92       	push	r9
    243c:	af 92       	push	r10
    243e:	bf 92       	push	r11
    2440:	cf 92       	push	r12
    2442:	df 92       	push	r13
    2444:	ef 92       	push	r14
    2446:	ff 92       	push	r15
    2448:	0f 93       	push	r16
    244a:	1f 93       	push	r17
    244c:	cf 93       	push	r28
    244e:	df 93       	push	r29
    2450:	cd b7       	in	r28, 0x3d	; 61
    2452:	de b7       	in	r29, 0x3e	; 62
    2454:	65 97       	sbiw	r28, 0x15	; 21
    2456:	0f b6       	in	r0, 0x3f	; 63
    2458:	f8 94       	cli
    245a:	de bf       	out	0x3e, r29	; 62
    245c:	0f be       	out	0x3f, r0	; 63
    245e:	cd bf       	out	0x3d, r28	; 61
    2460:	5c 01       	movw	r10, r24
    2462:	2b 01       	movw	r4, r22
    2464:	2b 8b       	std	Y+19, r18	; 0x13
    2466:	cf 82       	std	Y+7, r12	; 0x07
    2468:	d8 86       	std	Y+8, r13	; 0x08
    246a:	e9 86       	std	Y+9, r14	; 0x09
    246c:	fa 86       	std	Y+10, r15	; 0x0a
    246e:	24 2e       	mov	r2, r20
    2470:	31 2c       	mov	r3, r1
    2472:	81 e0       	ldi	r24, 0x01	; 1
    2474:	90 e0       	ldi	r25, 0x00	; 0
    2476:	3c 01       	movw	r6, r24
    2478:	62 18       	sub	r6, r2
    247a:	73 08       	sbc	r7, r3
    247c:	21 e0       	ldi	r18, 0x01	; 1
    247e:	30 e0       	ldi	r19, 0x00	; 0
    2480:	38 8b       	std	Y+16, r19	; 0x10
    2482:	2f 87       	std	Y+15, r18	; 0x0f
    2484:	9e 87       	std	Y+14, r25	; 0x0e
    2486:	8d 87       	std	Y+13, r24	; 0x0d
    2488:	c1 2c       	mov	r12, r1
    248a:	d1 2c       	mov	r13, r1
    248c:	80 2e       	mov	r8, r16
    248e:	91 2c       	mov	r9, r1
    2490:	bd 8a       	std	Y+21, r11	; 0x15
    2492:	ac 8a       	std	Y+20, r10	; 0x14
    2494:	da 8a       	std	Y+18, r13	; 0x12
    2496:	c9 8a       	std	Y+17, r12	; 0x11
    2498:	9b 89       	ldd	r25, Y+19	; 0x13
    249a:	91 30       	cpi	r25, 0x01	; 1
    249c:	21 f5       	brne	.+72     	; 0x24e6 <LCD_Circle+0xba>
    249e:	c1 01       	movw	r24, r2
    24a0:	88 0f       	add	r24, r24
    24a2:	99 1f       	adc	r25, r25
    24a4:	9c 01       	movw	r18, r24
    24a6:	2f 5f       	subi	r18, 0xFF	; 255
    24a8:	3f 4f       	sbci	r19, 0xFF	; 255
    24aa:	3c 83       	std	Y+4, r19	; 0x04
    24ac:	2b 83       	std	Y+3, r18	; 0x03
    24ae:	ef 80       	ldd	r14, Y+7	; 0x07
    24b0:	f8 84       	ldd	r15, Y+8	; 0x08
    24b2:	09 85       	ldd	r16, Y+9	; 0x09
    24b4:	1a 85       	ldd	r17, Y+10	; 0x0a
    24b6:	4f 85       	ldd	r20, Y+15	; 0x0f
    24b8:	58 89       	ldd	r21, Y+16	; 0x10
    24ba:	b2 01       	movw	r22, r4
    24bc:	62 19       	sub	r22, r2
    24be:	73 09       	sbc	r23, r3
    24c0:	8c 89       	ldd	r24, Y+20	; 0x14
    24c2:	9d 89       	ldd	r25, Y+21	; 0x15
    24c4:	87 da       	rcall	.-2802   	; 0x19d4 <LCD_Rect_Fill>
    24c6:	ef 80       	ldd	r14, Y+7	; 0x07
    24c8:	f8 84       	ldd	r15, Y+8	; 0x08
    24ca:	09 85       	ldd	r16, Y+9	; 0x09
    24cc:	1a 85       	ldd	r17, Y+10	; 0x0a
    24ce:	2f 85       	ldd	r18, Y+15	; 0x0f
    24d0:	38 89       	ldd	r19, Y+16	; 0x10
    24d2:	4b 81       	ldd	r20, Y+3	; 0x03
    24d4:	5c 81       	ldd	r21, Y+4	; 0x04
    24d6:	b2 01       	movw	r22, r4
    24d8:	6c 19       	sub	r22, r12
    24da:	7d 09       	sbc	r23, r13
    24dc:	c5 01       	movw	r24, r10
    24de:	82 19       	sub	r24, r2
    24e0:	93 09       	sbc	r25, r3
    24e2:	78 da       	rcall	.-2832   	; 0x19d4 <LCD_Rect_Fill>
    24e4:	71 c0       	rjmp	.+226    	; 0x25c8 <LCD_Circle+0x19c>
    24e6:	ef 80       	ldd	r14, Y+7	; 0x07
    24e8:	f8 84       	ldd	r15, Y+8	; 0x08
    24ea:	09 85       	ldd	r16, Y+9	; 0x09
    24ec:	1a 85       	ldd	r17, Y+10	; 0x0a
    24ee:	94 01       	movw	r18, r8
    24f0:	a4 01       	movw	r20, r8
    24f2:	c2 01       	movw	r24, r4
    24f4:	82 0d       	add	r24, r2
    24f6:	93 1d       	adc	r25, r3
    24f8:	9c 83       	std	Y+4, r25	; 0x04
    24fa:	8b 83       	std	Y+3, r24	; 0x03
    24fc:	bc 01       	movw	r22, r24
    24fe:	c5 01       	movw	r24, r10
    2500:	8c 0d       	add	r24, r12
    2502:	9d 1d       	adc	r25, r13
    2504:	9c 87       	std	Y+12, r25	; 0x0c
    2506:	8b 87       	std	Y+11, r24	; 0x0b
    2508:	65 da       	rcall	.-2870   	; 0x19d4 <LCD_Rect_Fill>
    250a:	ef 80       	ldd	r14, Y+7	; 0x07
    250c:	f8 84       	ldd	r15, Y+8	; 0x08
    250e:	09 85       	ldd	r16, Y+9	; 0x09
    2510:	1a 85       	ldd	r17, Y+10	; 0x0a
    2512:	94 01       	movw	r18, r8
    2514:	a4 01       	movw	r20, r8
    2516:	c2 01       	movw	r24, r4
    2518:	8c 0d       	add	r24, r12
    251a:	9d 1d       	adc	r25, r13
    251c:	9e 83       	std	Y+6, r25	; 0x06
    251e:	8d 83       	std	Y+5, r24	; 0x05
    2520:	bc 01       	movw	r22, r24
    2522:	c5 01       	movw	r24, r10
    2524:	82 0d       	add	r24, r2
    2526:	93 1d       	adc	r25, r3
    2528:	9a 83       	std	Y+2, r25	; 0x02
    252a:	89 83       	std	Y+1, r24	; 0x01
    252c:	53 da       	rcall	.-2906   	; 0x19d4 <LCD_Rect_Fill>
    252e:	ef 80       	ldd	r14, Y+7	; 0x07
    2530:	f8 84       	ldd	r15, Y+8	; 0x08
    2532:	09 85       	ldd	r16, Y+9	; 0x09
    2534:	1a 85       	ldd	r17, Y+10	; 0x0a
    2536:	94 01       	movw	r18, r8
    2538:	a4 01       	movw	r20, r8
    253a:	6b 81       	ldd	r22, Y+3	; 0x03
    253c:	7c 81       	ldd	r23, Y+4	; 0x04
    253e:	8c 89       	ldd	r24, Y+20	; 0x14
    2540:	9d 89       	ldd	r25, Y+21	; 0x15
    2542:	48 da       	rcall	.-2928   	; 0x19d4 <LCD_Rect_Fill>
    2544:	ef 80       	ldd	r14, Y+7	; 0x07
    2546:	f8 84       	ldd	r15, Y+8	; 0x08
    2548:	09 85       	ldd	r16, Y+9	; 0x09
    254a:	1a 85       	ldd	r17, Y+10	; 0x0a
    254c:	94 01       	movw	r18, r8
    254e:	a4 01       	movw	r20, r8
    2550:	6d 81       	ldd	r22, Y+5	; 0x05
    2552:	7e 81       	ldd	r23, Y+6	; 0x06
    2554:	c5 01       	movw	r24, r10
    2556:	82 19       	sub	r24, r2
    2558:	93 09       	sbc	r25, r3
    255a:	9c 83       	std	Y+4, r25	; 0x04
    255c:	8b 83       	std	Y+3, r24	; 0x03
    255e:	3a da       	rcall	.-2956   	; 0x19d4 <LCD_Rect_Fill>
    2560:	ef 80       	ldd	r14, Y+7	; 0x07
    2562:	f8 84       	ldd	r15, Y+8	; 0x08
    2564:	09 85       	ldd	r16, Y+9	; 0x09
    2566:	1a 85       	ldd	r17, Y+10	; 0x0a
    2568:	94 01       	movw	r18, r8
    256a:	a4 01       	movw	r20, r8
    256c:	c2 01       	movw	r24, r4
    256e:	8c 19       	sub	r24, r12
    2570:	9d 09       	sbc	r25, r13
    2572:	9e 83       	std	Y+6, r25	; 0x06
    2574:	8d 83       	std	Y+5, r24	; 0x05
    2576:	bc 01       	movw	r22, r24
    2578:	89 81       	ldd	r24, Y+1	; 0x01
    257a:	9a 81       	ldd	r25, Y+2	; 0x02
    257c:	2b da       	rcall	.-2986   	; 0x19d4 <LCD_Rect_Fill>
    257e:	ef 80       	ldd	r14, Y+7	; 0x07
    2580:	f8 84       	ldd	r15, Y+8	; 0x08
    2582:	09 85       	ldd	r16, Y+9	; 0x09
    2584:	1a 85       	ldd	r17, Y+10	; 0x0a
    2586:	94 01       	movw	r18, r8
    2588:	a4 01       	movw	r20, r8
    258a:	c2 01       	movw	r24, r4
    258c:	82 19       	sub	r24, r2
    258e:	93 09       	sbc	r25, r3
    2590:	9a 83       	std	Y+2, r25	; 0x02
    2592:	89 83       	std	Y+1, r24	; 0x01
    2594:	bc 01       	movw	r22, r24
    2596:	8b 85       	ldd	r24, Y+11	; 0x0b
    2598:	9c 85       	ldd	r25, Y+12	; 0x0c
    259a:	1c da       	rcall	.-3016   	; 0x19d4 <LCD_Rect_Fill>
    259c:	ef 80       	ldd	r14, Y+7	; 0x07
    259e:	f8 84       	ldd	r15, Y+8	; 0x08
    25a0:	09 85       	ldd	r16, Y+9	; 0x09
    25a2:	1a 85       	ldd	r17, Y+10	; 0x0a
    25a4:	94 01       	movw	r18, r8
    25a6:	a4 01       	movw	r20, r8
    25a8:	69 81       	ldd	r22, Y+1	; 0x01
    25aa:	7a 81       	ldd	r23, Y+2	; 0x02
    25ac:	8c 89       	ldd	r24, Y+20	; 0x14
    25ae:	9d 89       	ldd	r25, Y+21	; 0x15
    25b0:	11 da       	rcall	.-3038   	; 0x19d4 <LCD_Rect_Fill>
    25b2:	ef 80       	ldd	r14, Y+7	; 0x07
    25b4:	f8 84       	ldd	r15, Y+8	; 0x08
    25b6:	09 85       	ldd	r16, Y+9	; 0x09
    25b8:	1a 85       	ldd	r17, Y+10	; 0x0a
    25ba:	94 01       	movw	r18, r8
    25bc:	a4 01       	movw	r20, r8
    25be:	6d 81       	ldd	r22, Y+5	; 0x05
    25c0:	7e 81       	ldd	r23, Y+6	; 0x06
    25c2:	8b 81       	ldd	r24, Y+3	; 0x03
    25c4:	9c 81       	ldd	r25, Y+4	; 0x04
    25c6:	06 da       	rcall	.-3060   	; 0x19d4 <LCD_Rect_Fill>
    25c8:	77 20       	and	r7, r7
    25ca:	5c f4       	brge	.+22     	; 0x25e2 <LCD_Circle+0x1b6>
    25cc:	93 e0       	ldi	r25, 0x03	; 3
    25ce:	69 0e       	add	r6, r25
    25d0:	71 1c       	adc	r7, r1
    25d2:	c6 01       	movw	r24, r12
    25d4:	88 0f       	add	r24, r24
    25d6:	99 1f       	adc	r25, r25
    25d8:	68 0e       	add	r6, r24
    25da:	79 1e       	adc	r7, r25
    25dc:	8d 85       	ldd	r24, Y+13	; 0x0d
    25de:	9e 85       	ldd	r25, Y+14	; 0x0e
    25e0:	10 c0       	rjmp	.+32     	; 0x2602 <LCD_Circle+0x1d6>
    25e2:	25 e0       	ldi	r18, 0x05	; 5
    25e4:	62 0e       	add	r6, r18
    25e6:	71 1c       	adc	r7, r1
    25e8:	89 89       	ldd	r24, Y+17	; 0x11
    25ea:	9a 89       	ldd	r25, Y+18	; 0x12
    25ec:	82 19       	sub	r24, r2
    25ee:	93 09       	sbc	r25, r3
    25f0:	88 0f       	add	r24, r24
    25f2:	99 1f       	adc	r25, r25
    25f4:	68 0e       	add	r6, r24
    25f6:	79 1e       	adc	r7, r25
    25f8:	8d 85       	ldd	r24, Y+13	; 0x0d
    25fa:	9e 85       	ldd	r25, Y+14	; 0x0e
    25fc:	31 e0       	ldi	r19, 0x01	; 1
    25fe:	23 1a       	sub	r2, r19
    2600:	31 08       	sbc	r3, r1
    2602:	2f ef       	ldi	r18, 0xFF	; 255
    2604:	c2 1a       	sub	r12, r18
    2606:	d2 0a       	sbc	r13, r18
    2608:	2d 85       	ldd	r18, Y+13	; 0x0d
    260a:	3e 85       	ldd	r19, Y+14	; 0x0e
    260c:	2f 5f       	subi	r18, 0xFF	; 255
    260e:	3f 4f       	sbci	r19, 0xFF	; 255
    2610:	3e 87       	std	Y+14, r19	; 0x0e
    2612:	2d 87       	std	Y+13, r18	; 0x0d
    2614:	2c 89       	ldd	r18, Y+20	; 0x14
    2616:	3d 89       	ldd	r19, Y+21	; 0x15
    2618:	21 50       	subi	r18, 0x01	; 1
    261a:	31 09       	sbc	r19, r1
    261c:	3d 8b       	std	Y+21, r19	; 0x15
    261e:	2c 8b       	std	Y+20, r18	; 0x14
    2620:	2f 85       	ldd	r18, Y+15	; 0x0f
    2622:	38 89       	ldd	r19, Y+16	; 0x10
    2624:	2e 5f       	subi	r18, 0xFE	; 254
    2626:	3f 4f       	sbci	r19, 0xFF	; 255
    2628:	38 8b       	std	Y+16, r19	; 0x10
    262a:	2f 87       	std	Y+15, r18	; 0x0f
    262c:	28 16       	cp	r2, r24
    262e:	39 06       	cpc	r3, r25
    2630:	0c f0       	brlt	.+2      	; 0x2634 <LCD_Circle+0x208>
    2632:	30 cf       	rjmp	.-416    	; 0x2494 <LCD_Circle+0x68>
    2634:	65 96       	adiw	r28, 0x15	; 21
    2636:	0f b6       	in	r0, 0x3f	; 63
    2638:	f8 94       	cli
    263a:	de bf       	out	0x3e, r29	; 62
    263c:	0f be       	out	0x3f, r0	; 63
    263e:	cd bf       	out	0x3d, r28	; 61
    2640:	df 91       	pop	r29
    2642:	cf 91       	pop	r28
    2644:	1f 91       	pop	r17
    2646:	0f 91       	pop	r16
    2648:	ff 90       	pop	r15
    264a:	ef 90       	pop	r14
    264c:	df 90       	pop	r13
    264e:	cf 90       	pop	r12
    2650:	bf 90       	pop	r11
    2652:	af 90       	pop	r10
    2654:	9f 90       	pop	r9
    2656:	8f 90       	pop	r8
    2658:	7f 90       	pop	r7
    265a:	6f 90       	pop	r6
    265c:	5f 90       	pop	r5
    265e:	4f 90       	pop	r4
    2660:	3f 90       	pop	r3
    2662:	2f 90       	pop	r2
    2664:	08 95       	ret

00002666 <LCD_Circle_Helper>:
    2666:	2f 92       	push	r2
    2668:	3f 92       	push	r3
    266a:	4f 92       	push	r4
    266c:	5f 92       	push	r5
    266e:	6f 92       	push	r6
    2670:	7f 92       	push	r7
    2672:	8f 92       	push	r8
    2674:	9f 92       	push	r9
    2676:	af 92       	push	r10
    2678:	bf 92       	push	r11
    267a:	cf 92       	push	r12
    267c:	df 92       	push	r13
    267e:	ef 92       	push	r14
    2680:	ff 92       	push	r15
    2682:	0f 93       	push	r16
    2684:	1f 93       	push	r17
    2686:	cf 93       	push	r28
    2688:	df 93       	push	r29
    268a:	cd b7       	in	r28, 0x3d	; 61
    268c:	de b7       	in	r29, 0x3e	; 62
    268e:	2e 97       	sbiw	r28, 0x0e	; 14
    2690:	0f b6       	in	r0, 0x3f	; 63
    2692:	f8 94       	cli
    2694:	de bf       	out	0x3e, r29	; 62
    2696:	0f be       	out	0x3f, r0	; 63
    2698:	cd bf       	out	0x3d, r28	; 61
    269a:	2c 01       	movw	r4, r24
    269c:	4b 01       	movw	r8, r22
    269e:	5a 01       	movw	r10, r20
    26a0:	cb 82       	std	Y+3, r12	; 0x03
    26a2:	dc 82       	std	Y+4, r13	; 0x04
    26a4:	ed 82       	std	Y+5, r14	; 0x05
    26a6:	fe 82       	std	Y+6, r15	; 0x06
    26a8:	81 e0       	ldi	r24, 0x01	; 1
    26aa:	90 e0       	ldi	r25, 0x00	; 0
    26ac:	6c 01       	movw	r12, r24
    26ae:	c4 1a       	sub	r12, r20
    26b0:	d5 0a       	sbc	r13, r21
    26b2:	88 27       	eor	r24, r24
    26b4:	99 27       	eor	r25, r25
    26b6:	84 1b       	sub	r24, r20
    26b8:	95 0b       	sbc	r25, r21
    26ba:	3c 01       	movw	r6, r24
    26bc:	66 0c       	add	r6, r6
    26be:	77 1c       	adc	r7, r7
    26c0:	14 16       	cp	r1, r20
    26c2:	15 06       	cpc	r1, r21
    26c4:	0c f0       	brlt	.+2      	; 0x26c8 <LCD_Circle_Helper+0x62>
    26c6:	bc c0       	rjmp	.+376    	; 0x2840 <LCD_Circle_Helper+0x1da>
    26c8:	22 24       	eor	r2, r2
    26ca:	23 94       	inc	r2
    26cc:	31 2c       	mov	r3, r1
    26ce:	92 2f       	mov	r25, r18
    26d0:	94 70       	andi	r25, 0x04	; 4
    26d2:	99 87       	std	Y+9, r25	; 0x09
    26d4:	e0 2f       	mov	r30, r16
    26d6:	f0 e0       	ldi	r31, 0x00	; 0
    26d8:	fa 83       	std	Y+2, r31	; 0x02
    26da:	e9 83       	std	Y+1, r30	; 0x01
    26dc:	f2 2f       	mov	r31, r18
    26de:	f2 70       	andi	r31, 0x02	; 2
    26e0:	fa 87       	std	Y+10, r31	; 0x0a
    26e2:	82 2f       	mov	r24, r18
    26e4:	88 70       	andi	r24, 0x08	; 8
    26e6:	8b 87       	std	Y+11, r24	; 0x0b
    26e8:	21 70       	andi	r18, 0x01	; 1
    26ea:	2c 87       	std	Y+12, r18	; 0x0c
    26ec:	e1 e0       	ldi	r30, 0x01	; 1
    26ee:	f0 e0       	ldi	r31, 0x00	; 0
    26f0:	fe 87       	std	Y+14, r31	; 0x0e
    26f2:	ed 87       	std	Y+13, r30	; 0x0d
    26f4:	dd 20       	and	r13, r13
    26f6:	44 f0       	brlt	.+16     	; 0x2708 <LCD_Circle_Helper+0xa2>
    26f8:	f1 e0       	ldi	r31, 0x01	; 1
    26fa:	af 1a       	sub	r10, r31
    26fc:	b1 08       	sbc	r11, r1
    26fe:	82 e0       	ldi	r24, 0x02	; 2
    2700:	68 0e       	add	r6, r24
    2702:	71 1c       	adc	r7, r1
    2704:	c6 0c       	add	r12, r6
    2706:	d7 1c       	adc	r13, r7
    2708:	ed 85       	ldd	r30, Y+13	; 0x0d
    270a:	fe 85       	ldd	r31, Y+14	; 0x0e
    270c:	f8 87       	std	Y+8, r31	; 0x08
    270e:	ef 83       	std	Y+7, r30	; 0x07
    2710:	f2 e0       	ldi	r31, 0x02	; 2
    2712:	2f 0e       	add	r2, r31
    2714:	31 1c       	adc	r3, r1
    2716:	c2 0c       	add	r12, r2
    2718:	d3 1c       	adc	r13, r3
    271a:	89 85       	ldd	r24, Y+9	; 0x09
    271c:	88 23       	and	r24, r24
    271e:	f1 f0       	breq	.+60     	; 0x275c <LCD_Circle_Helper+0xf6>
    2720:	eb 80       	ldd	r14, Y+3	; 0x03
    2722:	fc 80       	ldd	r15, Y+4	; 0x04
    2724:	0d 81       	ldd	r16, Y+5	; 0x05
    2726:	1e 81       	ldd	r17, Y+6	; 0x06
    2728:	29 81       	ldd	r18, Y+1	; 0x01
    272a:	3a 81       	ldd	r19, Y+2	; 0x02
    272c:	a9 01       	movw	r20, r18
    272e:	b5 01       	movw	r22, r10
    2730:	68 0d       	add	r22, r8
    2732:	79 1d       	adc	r23, r9
    2734:	8d 85       	ldd	r24, Y+13	; 0x0d
    2736:	9e 85       	ldd	r25, Y+14	; 0x0e
    2738:	84 0d       	add	r24, r4
    273a:	95 1d       	adc	r25, r5
    273c:	4b d9       	rcall	.-3434   	; 0x19d4 <LCD_Rect_Fill>
    273e:	eb 80       	ldd	r14, Y+3	; 0x03
    2740:	fc 80       	ldd	r15, Y+4	; 0x04
    2742:	0d 81       	ldd	r16, Y+5	; 0x05
    2744:	1e 81       	ldd	r17, Y+6	; 0x06
    2746:	29 81       	ldd	r18, Y+1	; 0x01
    2748:	3a 81       	ldd	r19, Y+2	; 0x02
    274a:	a9 01       	movw	r20, r18
    274c:	6d 85       	ldd	r22, Y+13	; 0x0d
    274e:	7e 85       	ldd	r23, Y+14	; 0x0e
    2750:	68 0d       	add	r22, r8
    2752:	79 1d       	adc	r23, r9
    2754:	c5 01       	movw	r24, r10
    2756:	84 0d       	add	r24, r4
    2758:	95 1d       	adc	r25, r5
    275a:	3c d9       	rcall	.-3464   	; 0x19d4 <LCD_Rect_Fill>
    275c:	9a 85       	ldd	r25, Y+10	; 0x0a
    275e:	99 23       	and	r25, r25
    2760:	f9 f0       	breq	.+62     	; 0x27a0 <LCD_Circle_Helper+0x13a>
    2762:	eb 80       	ldd	r14, Y+3	; 0x03
    2764:	fc 80       	ldd	r15, Y+4	; 0x04
    2766:	0d 81       	ldd	r16, Y+5	; 0x05
    2768:	1e 81       	ldd	r17, Y+6	; 0x06
    276a:	29 81       	ldd	r18, Y+1	; 0x01
    276c:	3a 81       	ldd	r19, Y+2	; 0x02
    276e:	a9 01       	movw	r20, r18
    2770:	b4 01       	movw	r22, r8
    2772:	6a 19       	sub	r22, r10
    2774:	7b 09       	sbc	r23, r11
    2776:	8d 85       	ldd	r24, Y+13	; 0x0d
    2778:	9e 85       	ldd	r25, Y+14	; 0x0e
    277a:	84 0d       	add	r24, r4
    277c:	95 1d       	adc	r25, r5
    277e:	2a d9       	rcall	.-3500   	; 0x19d4 <LCD_Rect_Fill>
    2780:	eb 80       	ldd	r14, Y+3	; 0x03
    2782:	fc 80       	ldd	r15, Y+4	; 0x04
    2784:	0d 81       	ldd	r16, Y+5	; 0x05
    2786:	1e 81       	ldd	r17, Y+6	; 0x06
    2788:	29 81       	ldd	r18, Y+1	; 0x01
    278a:	3a 81       	ldd	r19, Y+2	; 0x02
    278c:	a9 01       	movw	r20, r18
    278e:	b4 01       	movw	r22, r8
    2790:	ed 85       	ldd	r30, Y+13	; 0x0d
    2792:	fe 85       	ldd	r31, Y+14	; 0x0e
    2794:	6e 1b       	sub	r22, r30
    2796:	7f 0b       	sbc	r23, r31
    2798:	c5 01       	movw	r24, r10
    279a:	84 0d       	add	r24, r4
    279c:	95 1d       	adc	r25, r5
    279e:	1a d9       	rcall	.-3532   	; 0x19d4 <LCD_Rect_Fill>
    27a0:	fb 85       	ldd	r31, Y+11	; 0x0b
    27a2:	ff 23       	and	r31, r31
    27a4:	f9 f0       	breq	.+62     	; 0x27e4 <LCD_Circle_Helper+0x17e>
    27a6:	eb 80       	ldd	r14, Y+3	; 0x03
    27a8:	fc 80       	ldd	r15, Y+4	; 0x04
    27aa:	0d 81       	ldd	r16, Y+5	; 0x05
    27ac:	1e 81       	ldd	r17, Y+6	; 0x06
    27ae:	29 81       	ldd	r18, Y+1	; 0x01
    27b0:	3a 81       	ldd	r19, Y+2	; 0x02
    27b2:	a9 01       	movw	r20, r18
    27b4:	6d 85       	ldd	r22, Y+13	; 0x0d
    27b6:	7e 85       	ldd	r23, Y+14	; 0x0e
    27b8:	68 0d       	add	r22, r8
    27ba:	79 1d       	adc	r23, r9
    27bc:	c2 01       	movw	r24, r4
    27be:	8a 19       	sub	r24, r10
    27c0:	9b 09       	sbc	r25, r11
    27c2:	08 d9       	rcall	.-3568   	; 0x19d4 <LCD_Rect_Fill>
    27c4:	eb 80       	ldd	r14, Y+3	; 0x03
    27c6:	fc 80       	ldd	r15, Y+4	; 0x04
    27c8:	0d 81       	ldd	r16, Y+5	; 0x05
    27ca:	1e 81       	ldd	r17, Y+6	; 0x06
    27cc:	29 81       	ldd	r18, Y+1	; 0x01
    27ce:	3a 81       	ldd	r19, Y+2	; 0x02
    27d0:	a9 01       	movw	r20, r18
    27d2:	b5 01       	movw	r22, r10
    27d4:	68 0d       	add	r22, r8
    27d6:	79 1d       	adc	r23, r9
    27d8:	c2 01       	movw	r24, r4
    27da:	ed 85       	ldd	r30, Y+13	; 0x0d
    27dc:	fe 85       	ldd	r31, Y+14	; 0x0e
    27de:	8e 1b       	sub	r24, r30
    27e0:	9f 0b       	sbc	r25, r31
    27e2:	f8 d8       	rcall	.-3600   	; 0x19d4 <LCD_Rect_Fill>
    27e4:	fc 85       	ldd	r31, Y+12	; 0x0c
    27e6:	ff 23       	and	r31, r31
    27e8:	01 f1       	breq	.+64     	; 0x282a <LCD_Circle_Helper+0x1c4>
    27ea:	eb 80       	ldd	r14, Y+3	; 0x03
    27ec:	fc 80       	ldd	r15, Y+4	; 0x04
    27ee:	0d 81       	ldd	r16, Y+5	; 0x05
    27f0:	1e 81       	ldd	r17, Y+6	; 0x06
    27f2:	29 81       	ldd	r18, Y+1	; 0x01
    27f4:	3a 81       	ldd	r19, Y+2	; 0x02
    27f6:	a9 01       	movw	r20, r18
    27f8:	b4 01       	movw	r22, r8
    27fa:	8d 85       	ldd	r24, Y+13	; 0x0d
    27fc:	9e 85       	ldd	r25, Y+14	; 0x0e
    27fe:	68 1b       	sub	r22, r24
    2800:	79 0b       	sbc	r23, r25
    2802:	c2 01       	movw	r24, r4
    2804:	8a 19       	sub	r24, r10
    2806:	9b 09       	sbc	r25, r11
    2808:	e5 d8       	rcall	.-3638   	; 0x19d4 <LCD_Rect_Fill>
    280a:	eb 80       	ldd	r14, Y+3	; 0x03
    280c:	fc 80       	ldd	r15, Y+4	; 0x04
    280e:	0d 81       	ldd	r16, Y+5	; 0x05
    2810:	1e 81       	ldd	r17, Y+6	; 0x06
    2812:	29 81       	ldd	r18, Y+1	; 0x01
    2814:	3a 81       	ldd	r19, Y+2	; 0x02
    2816:	a9 01       	movw	r20, r18
    2818:	b4 01       	movw	r22, r8
    281a:	6a 19       	sub	r22, r10
    281c:	7b 09       	sbc	r23, r11
    281e:	c2 01       	movw	r24, r4
    2820:	ed 85       	ldd	r30, Y+13	; 0x0d
    2822:	fe 85       	ldd	r31, Y+14	; 0x0e
    2824:	8e 1b       	sub	r24, r30
    2826:	9f 0b       	sbc	r25, r31
    2828:	d5 d8       	rcall	.-3670   	; 0x19d4 <LCD_Rect_Fill>
    282a:	8d 85       	ldd	r24, Y+13	; 0x0d
    282c:	9e 85       	ldd	r25, Y+14	; 0x0e
    282e:	01 96       	adiw	r24, 0x01	; 1
    2830:	9e 87       	std	Y+14, r25	; 0x0e
    2832:	8d 87       	std	Y+13, r24	; 0x0d
    2834:	ef 81       	ldd	r30, Y+7	; 0x07
    2836:	f8 85       	ldd	r31, Y+8	; 0x08
    2838:	ea 15       	cp	r30, r10
    283a:	fb 05       	cpc	r31, r11
    283c:	0c f4       	brge	.+2      	; 0x2840 <LCD_Circle_Helper+0x1da>
    283e:	5a cf       	rjmp	.-332    	; 0x26f4 <LCD_Circle_Helper+0x8e>
    2840:	2e 96       	adiw	r28, 0x0e	; 14
    2842:	0f b6       	in	r0, 0x3f	; 63
    2844:	f8 94       	cli
    2846:	de bf       	out	0x3e, r29	; 62
    2848:	0f be       	out	0x3f, r0	; 63
    284a:	cd bf       	out	0x3d, r28	; 61
    284c:	df 91       	pop	r29
    284e:	cf 91       	pop	r28
    2850:	1f 91       	pop	r17
    2852:	0f 91       	pop	r16
    2854:	ff 90       	pop	r15
    2856:	ef 90       	pop	r14
    2858:	df 90       	pop	r13
    285a:	cf 90       	pop	r12
    285c:	bf 90       	pop	r11
    285e:	af 90       	pop	r10
    2860:	9f 90       	pop	r9
    2862:	8f 90       	pop	r8
    2864:	7f 90       	pop	r7
    2866:	6f 90       	pop	r6
    2868:	5f 90       	pop	r5
    286a:	4f 90       	pop	r4
    286c:	3f 90       	pop	r3
    286e:	2f 90       	pop	r2
    2870:	08 95       	ret

00002872 <LCD_Rect_Round>:
    2872:	2f 92       	push	r2
    2874:	3f 92       	push	r3
    2876:	4f 92       	push	r4
    2878:	5f 92       	push	r5
    287a:	6f 92       	push	r6
    287c:	7f 92       	push	r7
    287e:	8f 92       	push	r8
    2880:	9f 92       	push	r9
    2882:	af 92       	push	r10
    2884:	bf 92       	push	r11
    2886:	cf 92       	push	r12
    2888:	df 92       	push	r13
    288a:	ef 92       	push	r14
    288c:	ff 92       	push	r15
    288e:	0f 93       	push	r16
    2890:	1f 93       	push	r17
    2892:	cf 93       	push	r28
    2894:	df 93       	push	r29
    2896:	cd b7       	in	r28, 0x3d	; 61
    2898:	de b7       	in	r29, 0x3e	; 62
    289a:	2c 97       	sbiw	r28, 0x0c	; 12
    289c:	0f b6       	in	r0, 0x3f	; 63
    289e:	f8 94       	cli
    28a0:	de bf       	out	0x3e, r29	; 62
    28a2:	0f be       	out	0x3f, r0	; 63
    28a4:	cd bf       	out	0x3d, r28	; 61
    28a6:	98 87       	std	Y+8, r25	; 0x08
    28a8:	8f 83       	std	Y+7, r24	; 0x07
    28aa:	7a 87       	std	Y+10, r23	; 0x0a
    28ac:	69 87       	std	Y+9, r22	; 0x09
    28ae:	19 01       	movw	r2, r18
    28b0:	48 01       	movw	r8, r16
    28b2:	1e 2d       	mov	r17, r14
    28b4:	a9 82       	std	Y+1, r10	; 0x01
    28b6:	ba 82       	std	Y+2, r11	; 0x02
    28b8:	cb 82       	std	Y+3, r12	; 0x03
    28ba:	dc 82       	std	Y+4, r13	; 0x04
    28bc:	3c 01       	movw	r6, r24
    28be:	64 0e       	add	r6, r20
    28c0:	75 1e       	adc	r7, r21
    28c2:	4e 2c       	mov	r4, r14
    28c4:	51 2c       	mov	r5, r1
    28c6:	c2 01       	movw	r24, r4
    28c8:	88 19       	sub	r24, r8
    28ca:	99 09       	sbc	r25, r9
    28cc:	86 0d       	add	r24, r6
    28ce:	97 1d       	adc	r25, r7
    28d0:	9c 87       	std	Y+12, r25	; 0x0c
    28d2:	8b 87       	std	Y+11, r24	; 0x0b
    28d4:	8f 81       	ldd	r24, Y+7	; 0x07
    28d6:	98 85       	ldd	r25, Y+8	; 0x08
    28d8:	88 0d       	add	r24, r8
    28da:	99 1d       	adc	r25, r9
    28dc:	9e 83       	std	Y+6, r25	; 0x06
    28de:	8d 83       	std	Y+5, r24	; 0x05
    28e0:	76 01       	movw	r14, r12
    28e2:	65 01       	movw	r12, r10
    28e4:	01 2f       	mov	r16, r17
    28e6:	9b 01       	movw	r18, r22
    28e8:	4b 85       	ldd	r20, Y+11	; 0x0b
    28ea:	5c 85       	ldd	r21, Y+12	; 0x0c
    28ec:	14 d9       	rcall	.-3544   	; 0x1b16 <LCD_Line>
    28ee:	a9 84       	ldd	r10, Y+9	; 0x09
    28f0:	ba 84       	ldd	r11, Y+10	; 0x0a
    28f2:	a2 0c       	add	r10, r2
    28f4:	b3 1c       	adc	r11, r3
    28f6:	15 01       	movw	r2, r10
    28f8:	91 e0       	ldi	r25, 0x01	; 1
    28fa:	29 1a       	sub	r2, r25
    28fc:	31 08       	sbc	r3, r1
    28fe:	c9 80       	ldd	r12, Y+1	; 0x01
    2900:	da 80       	ldd	r13, Y+2	; 0x02
    2902:	eb 80       	ldd	r14, Y+3	; 0x03
    2904:	fc 80       	ldd	r15, Y+4	; 0x04
    2906:	91 01       	movw	r18, r2
    2908:	4b 85       	ldd	r20, Y+11	; 0x0b
    290a:	5c 85       	ldd	r21, Y+12	; 0x0c
    290c:	b1 01       	movw	r22, r2
    290e:	8d 81       	ldd	r24, Y+5	; 0x05
    2910:	9e 81       	ldd	r25, Y+6	; 0x06
    2912:	01 d9       	rcall	.-3582   	; 0x1b16 <LCD_Line>
    2914:	a4 18       	sub	r10, r4
    2916:	b5 08       	sbc	r11, r5
    2918:	a8 18       	sub	r10, r8
    291a:	b9 08       	sbc	r11, r9
    291c:	89 85       	ldd	r24, Y+9	; 0x09
    291e:	9a 85       	ldd	r25, Y+10	; 0x0a
    2920:	88 0d       	add	r24, r8
    2922:	99 1d       	adc	r25, r9
    2924:	9a 87       	std	Y+10, r25	; 0x0a
    2926:	89 87       	std	Y+9, r24	; 0x09
    2928:	c9 80       	ldd	r12, Y+1	; 0x01
    292a:	da 80       	ldd	r13, Y+2	; 0x02
    292c:	eb 80       	ldd	r14, Y+3	; 0x03
    292e:	fc 80       	ldd	r15, Y+4	; 0x04
    2930:	95 01       	movw	r18, r10
    2932:	4f 81       	ldd	r20, Y+7	; 0x07
    2934:	58 85       	ldd	r21, Y+8	; 0x08
    2936:	bc 01       	movw	r22, r24
    2938:	ca 01       	movw	r24, r20
    293a:	ed d8       	rcall	.-3622   	; 0x1b16 <LCD_Line>
    293c:	c3 01       	movw	r24, r6
    293e:	01 97       	sbiw	r24, 0x01	; 1
    2940:	c9 80       	ldd	r12, Y+1	; 0x01
    2942:	da 80       	ldd	r13, Y+2	; 0x02
    2944:	eb 80       	ldd	r14, Y+3	; 0x03
    2946:	fc 80       	ldd	r15, Y+4	; 0x04
    2948:	95 01       	movw	r18, r10
    294a:	ac 01       	movw	r20, r24
    294c:	69 85       	ldd	r22, Y+9	; 0x09
    294e:	7a 85       	ldd	r23, Y+10	; 0x0a
    2950:	e2 d8       	rcall	.-3644   	; 0x1b16 <LCD_Line>
    2952:	c9 80       	ldd	r12, Y+1	; 0x01
    2954:	da 80       	ldd	r13, Y+2	; 0x02
    2956:	eb 80       	ldd	r14, Y+3	; 0x03
    2958:	fc 80       	ldd	r15, Y+4	; 0x04
    295a:	21 e0       	ldi	r18, 0x01	; 1
    295c:	a4 01       	movw	r20, r8
    295e:	69 85       	ldd	r22, Y+9	; 0x09
    2960:	7a 85       	ldd	r23, Y+10	; 0x0a
    2962:	8d 81       	ldd	r24, Y+5	; 0x05
    2964:	9e 81       	ldd	r25, Y+6	; 0x06
    2966:	7f de       	rcall	.-770    	; 0x2666 <LCD_Circle_Helper>
    2968:	54 01       	movw	r10, r8
    296a:	a0 94       	com	r10
    296c:	b0 94       	com	r11
    296e:	a6 0c       	add	r10, r6
    2970:	b7 1c       	adc	r11, r7
    2972:	c9 80       	ldd	r12, Y+1	; 0x01
    2974:	da 80       	ldd	r13, Y+2	; 0x02
    2976:	eb 80       	ldd	r14, Y+3	; 0x03
    2978:	fc 80       	ldd	r15, Y+4	; 0x04
    297a:	22 e0       	ldi	r18, 0x02	; 2
    297c:	a4 01       	movw	r20, r8
    297e:	69 85       	ldd	r22, Y+9	; 0x09
    2980:	7a 85       	ldd	r23, Y+10	; 0x0a
    2982:	c5 01       	movw	r24, r10
    2984:	70 de       	rcall	.-800    	; 0x2666 <LCD_Circle_Helper>
    2986:	c1 01       	movw	r24, r2
    2988:	88 19       	sub	r24, r8
    298a:	99 09       	sbc	r25, r9
    298c:	98 87       	std	Y+8, r25	; 0x08
    298e:	8f 83       	std	Y+7, r24	; 0x07
    2990:	c9 80       	ldd	r12, Y+1	; 0x01
    2992:	da 80       	ldd	r13, Y+2	; 0x02
    2994:	eb 80       	ldd	r14, Y+3	; 0x03
    2996:	fc 80       	ldd	r15, Y+4	; 0x04
    2998:	24 e0       	ldi	r18, 0x04	; 4
    299a:	a4 01       	movw	r20, r8
    299c:	bc 01       	movw	r22, r24
    299e:	c5 01       	movw	r24, r10
    29a0:	62 de       	rcall	.-828    	; 0x2666 <LCD_Circle_Helper>
    29a2:	c9 80       	ldd	r12, Y+1	; 0x01
    29a4:	da 80       	ldd	r13, Y+2	; 0x02
    29a6:	eb 80       	ldd	r14, Y+3	; 0x03
    29a8:	fc 80       	ldd	r15, Y+4	; 0x04
    29aa:	28 e0       	ldi	r18, 0x08	; 8
    29ac:	a4 01       	movw	r20, r8
    29ae:	6f 81       	ldd	r22, Y+7	; 0x07
    29b0:	78 85       	ldd	r23, Y+8	; 0x08
    29b2:	8d 81       	ldd	r24, Y+5	; 0x05
    29b4:	9e 81       	ldd	r25, Y+6	; 0x06
    29b6:	57 de       	rcall	.-850    	; 0x2666 <LCD_Circle_Helper>
    29b8:	2c 96       	adiw	r28, 0x0c	; 12
    29ba:	0f b6       	in	r0, 0x3f	; 63
    29bc:	f8 94       	cli
    29be:	de bf       	out	0x3e, r29	; 62
    29c0:	0f be       	out	0x3f, r0	; 63
    29c2:	cd bf       	out	0x3d, r28	; 61
    29c4:	df 91       	pop	r29
    29c6:	cf 91       	pop	r28
    29c8:	1f 91       	pop	r17
    29ca:	0f 91       	pop	r16
    29cc:	ff 90       	pop	r15
    29ce:	ef 90       	pop	r14
    29d0:	df 90       	pop	r13
    29d2:	cf 90       	pop	r12
    29d4:	bf 90       	pop	r11
    29d6:	af 90       	pop	r10
    29d8:	9f 90       	pop	r9
    29da:	8f 90       	pop	r8
    29dc:	7f 90       	pop	r7
    29de:	6f 90       	pop	r6
    29e0:	5f 90       	pop	r5
    29e2:	4f 90       	pop	r4
    29e4:	3f 90       	pop	r3
    29e6:	2f 90       	pop	r2
    29e8:	08 95       	ret

000029ea <LCD_Circle_Fill_Helper>:
    29ea:	2f 92       	push	r2
    29ec:	3f 92       	push	r3
    29ee:	4f 92       	push	r4
    29f0:	5f 92       	push	r5
    29f2:	6f 92       	push	r6
    29f4:	7f 92       	push	r7
    29f6:	8f 92       	push	r8
    29f8:	9f 92       	push	r9
    29fa:	af 92       	push	r10
    29fc:	bf 92       	push	r11
    29fe:	cf 92       	push	r12
    2a00:	df 92       	push	r13
    2a02:	ef 92       	push	r14
    2a04:	ff 92       	push	r15
    2a06:	0f 93       	push	r16
    2a08:	1f 93       	push	r17
    2a0a:	cf 93       	push	r28
    2a0c:	df 93       	push	r29
    2a0e:	cd b7       	in	r28, 0x3d	; 61
    2a10:	de b7       	in	r29, 0x3e	; 62
    2a12:	2f 97       	sbiw	r28, 0x0f	; 15
    2a14:	0f b6       	in	r0, 0x3f	; 63
    2a16:	f8 94       	cli
    2a18:	de bf       	out	0x3e, r29	; 62
    2a1a:	0f be       	out	0x3f, r0	; 63
    2a1c:	cd bf       	out	0x3d, r28	; 61
    2a1e:	4c 01       	movw	r8, r24
    2a20:	3b 01       	movw	r6, r22
    2a22:	5a 01       	movw	r10, r20
    2a24:	1d 87       	std	Y+13, r17	; 0x0d
    2a26:	0c 87       	std	Y+12, r16	; 0x0c
    2a28:	cf 82       	std	Y+7, r12	; 0x07
    2a2a:	d8 86       	std	Y+8, r13	; 0x08
    2a2c:	e9 86       	std	Y+9, r14	; 0x09
    2a2e:	fa 86       	std	Y+10, r15	; 0x0a
    2a30:	81 e0       	ldi	r24, 0x01	; 1
    2a32:	90 e0       	ldi	r25, 0x00	; 0
    2a34:	1c 01       	movw	r2, r24
    2a36:	24 1a       	sub	r2, r20
    2a38:	35 0a       	sbc	r3, r21
    2a3a:	88 27       	eor	r24, r24
    2a3c:	99 27       	eor	r25, r25
    2a3e:	84 1b       	sub	r24, r20
    2a40:	95 0b       	sbc	r25, r21
    2a42:	ac 01       	movw	r20, r24
    2a44:	44 0f       	add	r20, r20
    2a46:	55 1f       	adc	r21, r21
    2a48:	5c 83       	std	Y+4, r21	; 0x04
    2a4a:	4b 83       	std	Y+3, r20	; 0x03
    2a4c:	1a 14       	cp	r1, r10
    2a4e:	1b 04       	cpc	r1, r11
    2a50:	0c f0       	brlt	.+2      	; 0x2a54 <LCD_Circle_Fill_Helper+0x6a>
    2a52:	84 c0       	rjmp	.+264    	; 0x2b5c <LCD_Circle_Fill_Helper+0x172>
    2a54:	cb 01       	movw	r24, r22
    2a56:	01 97       	sbiw	r24, 0x01	; 1
    2a58:	9a 83       	std	Y+2, r25	; 0x02
    2a5a:	89 83       	std	Y+1, r24	; 0x01
    2a5c:	c8 01       	movw	r24, r16
    2a5e:	01 96       	adiw	r24, 0x01	; 1
    2a60:	2c 01       	movw	r4, r24
    2a62:	46 0e       	add	r4, r22
    2a64:	57 1e       	adc	r5, r23
    2a66:	41 e0       	ldi	r20, 0x01	; 1
    2a68:	50 e0       	ldi	r21, 0x00	; 0
    2a6a:	12 2f       	mov	r17, r18
    2a6c:	11 70       	andi	r17, 0x01	; 1
    2a6e:	22 70       	andi	r18, 0x02	; 2
    2a70:	2b 87       	std	Y+11, r18	; 0x0b
    2a72:	5f 87       	std	Y+15, r21	; 0x0f
    2a74:	4e 87       	std	Y+14, r20	; 0x0e
    2a76:	33 20       	and	r3, r3
    2a78:	54 f0       	brlt	.+20     	; 0x2a8e <LCD_Circle_Fill_Helper+0xa4>
    2a7a:	51 e0       	ldi	r21, 0x01	; 1
    2a7c:	a5 1a       	sub	r10, r21
    2a7e:	b1 08       	sbc	r11, r1
    2a80:	8b 81       	ldd	r24, Y+3	; 0x03
    2a82:	9c 81       	ldd	r25, Y+4	; 0x04
    2a84:	02 96       	adiw	r24, 0x02	; 2
    2a86:	9c 83       	std	Y+4, r25	; 0x04
    2a88:	8b 83       	std	Y+3, r24	; 0x03
    2a8a:	28 0e       	add	r2, r24
    2a8c:	39 1e       	adc	r3, r25
    2a8e:	4e 85       	ldd	r20, Y+14	; 0x0e
    2a90:	5f 85       	ldd	r21, Y+15	; 0x0f
    2a92:	5e 83       	std	Y+6, r21	; 0x06
    2a94:	4d 83       	std	Y+5, r20	; 0x05
    2a96:	ca 01       	movw	r24, r20
    2a98:	88 0f       	add	r24, r24
    2a9a:	99 1f       	adc	r25, r25
    2a9c:	01 96       	adiw	r24, 0x01	; 1
    2a9e:	28 0e       	add	r2, r24
    2aa0:	39 1e       	adc	r3, r25
    2aa2:	11 23       	and	r17, r17
    2aa4:	01 f1       	breq	.+64     	; 0x2ae6 <LCD_Circle_Fill_Helper+0xfc>
    2aa6:	93 01       	movw	r18, r6
    2aa8:	2a 0d       	add	r18, r10
    2aaa:	3b 1d       	adc	r19, r11
    2aac:	8c 85       	ldd	r24, Y+12	; 0x0c
    2aae:	9d 85       	ldd	r25, Y+13	; 0x0d
    2ab0:	28 0f       	add	r18, r24
    2ab2:	39 1f       	adc	r19, r25
    2ab4:	cf 80       	ldd	r12, Y+7	; 0x07
    2ab6:	d8 84       	ldd	r13, Y+8	; 0x08
    2ab8:	e9 84       	ldd	r14, Y+9	; 0x09
    2aba:	fa 84       	ldd	r15, Y+10	; 0x0a
    2abc:	01 e0       	ldi	r16, 0x01	; 1
    2abe:	ca 01       	movw	r24, r20
    2ac0:	88 0d       	add	r24, r8
    2ac2:	99 1d       	adc	r25, r9
    2ac4:	ac 01       	movw	r20, r24
    2ac6:	b3 01       	movw	r22, r6
    2ac8:	6a 19       	sub	r22, r10
    2aca:	7b 09       	sbc	r23, r11
    2acc:	24 d8       	rcall	.-4024   	; 0x1b16 <LCD_Line>
    2ace:	cf 80       	ldd	r12, Y+7	; 0x07
    2ad0:	d8 84       	ldd	r13, Y+8	; 0x08
    2ad2:	e9 84       	ldd	r14, Y+9	; 0x09
    2ad4:	fa 84       	ldd	r15, Y+10	; 0x0a
    2ad6:	92 01       	movw	r18, r4
    2ad8:	c5 01       	movw	r24, r10
    2ada:	88 0d       	add	r24, r8
    2adc:	99 1d       	adc	r25, r9
    2ade:	ac 01       	movw	r20, r24
    2ae0:	69 81       	ldd	r22, Y+1	; 0x01
    2ae2:	7a 81       	ldd	r23, Y+2	; 0x02
    2ae4:	18 d8       	rcall	.-4048   	; 0x1b16 <LCD_Line>
    2ae6:	9b 85       	ldd	r25, Y+11	; 0x0b
    2ae8:	99 23       	and	r25, r25
    2aea:	21 f1       	breq	.+72     	; 0x2b34 <LCD_Circle_Fill_Helper+0x14a>
    2aec:	93 01       	movw	r18, r6
    2aee:	2a 0d       	add	r18, r10
    2af0:	3b 1d       	adc	r19, r11
    2af2:	4c 85       	ldd	r20, Y+12	; 0x0c
    2af4:	5d 85       	ldd	r21, Y+13	; 0x0d
    2af6:	24 0f       	add	r18, r20
    2af8:	35 1f       	adc	r19, r21
    2afa:	cf 80       	ldd	r12, Y+7	; 0x07
    2afc:	d8 84       	ldd	r13, Y+8	; 0x08
    2afe:	e9 84       	ldd	r14, Y+9	; 0x09
    2b00:	fa 84       	ldd	r15, Y+10	; 0x0a
    2b02:	01 e0       	ldi	r16, 0x01	; 1
    2b04:	c4 01       	movw	r24, r8
    2b06:	4e 85       	ldd	r20, Y+14	; 0x0e
    2b08:	5f 85       	ldd	r21, Y+15	; 0x0f
    2b0a:	84 1b       	sub	r24, r20
    2b0c:	95 0b       	sbc	r25, r21
    2b0e:	ac 01       	movw	r20, r24
    2b10:	b3 01       	movw	r22, r6
    2b12:	6a 19       	sub	r22, r10
    2b14:	7b 09       	sbc	r23, r11
    2b16:	0e 94 8b 0d 	call	0x1b16	; 0x1b16 <LCD_Line>
    2b1a:	cf 80       	ldd	r12, Y+7	; 0x07
    2b1c:	d8 84       	ldd	r13, Y+8	; 0x08
    2b1e:	e9 84       	ldd	r14, Y+9	; 0x09
    2b20:	fa 84       	ldd	r15, Y+10	; 0x0a
    2b22:	92 01       	movw	r18, r4
    2b24:	c4 01       	movw	r24, r8
    2b26:	8a 19       	sub	r24, r10
    2b28:	9b 09       	sbc	r25, r11
    2b2a:	ac 01       	movw	r20, r24
    2b2c:	69 81       	ldd	r22, Y+1	; 0x01
    2b2e:	7a 81       	ldd	r23, Y+2	; 0x02
    2b30:	0e 94 8b 0d 	call	0x1b16	; 0x1b16 <LCD_Line>
    2b34:	8e 85       	ldd	r24, Y+14	; 0x0e
    2b36:	9f 85       	ldd	r25, Y+15	; 0x0f
    2b38:	01 96       	adiw	r24, 0x01	; 1
    2b3a:	9f 87       	std	Y+15, r25	; 0x0f
    2b3c:	8e 87       	std	Y+14, r24	; 0x0e
    2b3e:	49 81       	ldd	r20, Y+1	; 0x01
    2b40:	5a 81       	ldd	r21, Y+2	; 0x02
    2b42:	41 50       	subi	r20, 0x01	; 1
    2b44:	51 09       	sbc	r21, r1
    2b46:	5a 83       	std	Y+2, r21	; 0x02
    2b48:	49 83       	std	Y+1, r20	; 0x01
    2b4a:	5f ef       	ldi	r21, 0xFF	; 255
    2b4c:	45 1a       	sub	r4, r21
    2b4e:	55 0a       	sbc	r5, r21
    2b50:	8d 81       	ldd	r24, Y+5	; 0x05
    2b52:	9e 81       	ldd	r25, Y+6	; 0x06
    2b54:	8a 15       	cp	r24, r10
    2b56:	9b 05       	cpc	r25, r11
    2b58:	0c f4       	brge	.+2      	; 0x2b5c <LCD_Circle_Fill_Helper+0x172>
    2b5a:	8d cf       	rjmp	.-230    	; 0x2a76 <LCD_Circle_Fill_Helper+0x8c>
    2b5c:	2f 96       	adiw	r28, 0x0f	; 15
    2b5e:	0f b6       	in	r0, 0x3f	; 63
    2b60:	f8 94       	cli
    2b62:	de bf       	out	0x3e, r29	; 62
    2b64:	0f be       	out	0x3f, r0	; 63
    2b66:	cd bf       	out	0x3d, r28	; 61
    2b68:	df 91       	pop	r29
    2b6a:	cf 91       	pop	r28
    2b6c:	1f 91       	pop	r17
    2b6e:	0f 91       	pop	r16
    2b70:	ff 90       	pop	r15
    2b72:	ef 90       	pop	r14
    2b74:	df 90       	pop	r13
    2b76:	cf 90       	pop	r12
    2b78:	bf 90       	pop	r11
    2b7a:	af 90       	pop	r10
    2b7c:	9f 90       	pop	r9
    2b7e:	8f 90       	pop	r8
    2b80:	7f 90       	pop	r7
    2b82:	6f 90       	pop	r6
    2b84:	5f 90       	pop	r5
    2b86:	4f 90       	pop	r4
    2b88:	3f 90       	pop	r3
    2b8a:	2f 90       	pop	r2
    2b8c:	08 95       	ret

00002b8e <LCD_Rect_Round_Fill>:
    2b8e:	2f 92       	push	r2
    2b90:	3f 92       	push	r3
    2b92:	4f 92       	push	r4
    2b94:	5f 92       	push	r5
    2b96:	6f 92       	push	r6
    2b98:	7f 92       	push	r7
    2b9a:	8f 92       	push	r8
    2b9c:	9f 92       	push	r9
    2b9e:	af 92       	push	r10
    2ba0:	bf 92       	push	r11
    2ba2:	cf 92       	push	r12
    2ba4:	df 92       	push	r13
    2ba6:	ef 92       	push	r14
    2ba8:	ff 92       	push	r15
    2baa:	0f 93       	push	r16
    2bac:	1f 93       	push	r17
    2bae:	cf 93       	push	r28
    2bb0:	df 93       	push	r29
    2bb2:	00 d0       	rcall	.+0      	; 0x2bb4 <LCD_Rect_Round_Fill+0x26>
    2bb4:	00 d0       	rcall	.+0      	; 0x2bb6 <LCD_Rect_Round_Fill+0x28>
    2bb6:	00 d0       	rcall	.+0      	; 0x2bb8 <LCD_Rect_Round_Fill+0x2a>
    2bb8:	cd b7       	in	r28, 0x3d	; 61
    2bba:	de b7       	in	r29, 0x3e	; 62
    2bbc:	5c 01       	movw	r10, r24
    2bbe:	2b 01       	movw	r4, r22
    2bc0:	1a 01       	movw	r2, r20
    2bc2:	49 01       	movw	r8, r18
    2bc4:	1e 83       	std	Y+6, r17	; 0x06
    2bc6:	0d 83       	std	Y+5, r16	; 0x05
    2bc8:	c9 82       	std	Y+1, r12	; 0x01
    2bca:	da 82       	std	Y+2, r13	; 0x02
    2bcc:	eb 82       	std	Y+3, r14	; 0x03
    2bce:	fc 82       	std	Y+4, r15	; 0x04
    2bd0:	68 01       	movw	r12, r16
    2bd2:	cc 0c       	add	r12, r12
    2bd4:	dd 1c       	adc	r13, r13
    2bd6:	38 01       	movw	r6, r16
    2bd8:	68 0e       	add	r6, r24
    2bda:	79 1e       	adc	r7, r25
    2bdc:	4c 19       	sub	r20, r12
    2bde:	5d 09       	sbc	r21, r13
    2be0:	e9 80       	ldd	r14, Y+1	; 0x01
    2be2:	fa 80       	ldd	r15, Y+2	; 0x02
    2be4:	0b 81       	ldd	r16, Y+3	; 0x03
    2be6:	1c 81       	ldd	r17, Y+4	; 0x04
    2be8:	c3 01       	movw	r24, r6
    2bea:	0e 94 ea 0c 	call	0x19d4	; 0x19d4 <LCD_Rect_Fill>
    2bee:	81 e0       	ldi	r24, 0x01	; 1
    2bf0:	88 1a       	sub	r8, r24
    2bf2:	91 08       	sbc	r9, r1
    2bf4:	8c 18       	sub	r8, r12
    2bf6:	9d 08       	sbc	r9, r13
    2bf8:	ed 81       	ldd	r30, Y+5	; 0x05
    2bfa:	fe 81       	ldd	r31, Y+6	; 0x06
    2bfc:	4e 0e       	add	r4, r30
    2bfe:	5f 1e       	adc	r5, r31
    2c00:	c5 01       	movw	r24, r10
    2c02:	01 97       	sbiw	r24, 0x01	; 1
    2c04:	82 0d       	add	r24, r2
    2c06:	93 1d       	adc	r25, r3
    2c08:	c9 80       	ldd	r12, Y+1	; 0x01
    2c0a:	da 80       	ldd	r13, Y+2	; 0x02
    2c0c:	eb 80       	ldd	r14, Y+3	; 0x03
    2c0e:	fc 80       	ldd	r15, Y+4	; 0x04
    2c10:	84 01       	movw	r16, r8
    2c12:	21 e0       	ldi	r18, 0x01	; 1
    2c14:	af 01       	movw	r20, r30
    2c16:	b2 01       	movw	r22, r4
    2c18:	8e 1b       	sub	r24, r30
    2c1a:	9f 0b       	sbc	r25, r31
    2c1c:	e6 de       	rcall	.-564    	; 0x29ea <LCD_Circle_Fill_Helper>
    2c1e:	c9 80       	ldd	r12, Y+1	; 0x01
    2c20:	da 80       	ldd	r13, Y+2	; 0x02
    2c22:	eb 80       	ldd	r14, Y+3	; 0x03
    2c24:	fc 80       	ldd	r15, Y+4	; 0x04
    2c26:	22 e0       	ldi	r18, 0x02	; 2
    2c28:	4d 81       	ldd	r20, Y+5	; 0x05
    2c2a:	5e 81       	ldd	r21, Y+6	; 0x06
    2c2c:	b2 01       	movw	r22, r4
    2c2e:	c3 01       	movw	r24, r6
    2c30:	dc de       	rcall	.-584    	; 0x29ea <LCD_Circle_Fill_Helper>
    2c32:	26 96       	adiw	r28, 0x06	; 6
    2c34:	0f b6       	in	r0, 0x3f	; 63
    2c36:	f8 94       	cli
    2c38:	de bf       	out	0x3e, r29	; 62
    2c3a:	0f be       	out	0x3f, r0	; 63
    2c3c:	cd bf       	out	0x3d, r28	; 61
    2c3e:	df 91       	pop	r29
    2c40:	cf 91       	pop	r28
    2c42:	1f 91       	pop	r17
    2c44:	0f 91       	pop	r16
    2c46:	ff 90       	pop	r15
    2c48:	ef 90       	pop	r14
    2c4a:	df 90       	pop	r13
    2c4c:	cf 90       	pop	r12
    2c4e:	bf 90       	pop	r11
    2c50:	af 90       	pop	r10
    2c52:	9f 90       	pop	r9
    2c54:	8f 90       	pop	r8
    2c56:	7f 90       	pop	r7
    2c58:	6f 90       	pop	r6
    2c5a:	5f 90       	pop	r5
    2c5c:	4f 90       	pop	r4
    2c5e:	3f 90       	pop	r3
    2c60:	2f 90       	pop	r2
    2c62:	08 95       	ret

00002c64 <LCD_Font>:
    2c64:	2f 92       	push	r2
    2c66:	3f 92       	push	r3
    2c68:	4f 92       	push	r4
    2c6a:	5f 92       	push	r5
    2c6c:	6f 92       	push	r6
    2c6e:	7f 92       	push	r7
    2c70:	8f 92       	push	r8
    2c72:	9f 92       	push	r9
    2c74:	af 92       	push	r10
    2c76:	bf 92       	push	r11
    2c78:	cf 92       	push	r12
    2c7a:	df 92       	push	r13
    2c7c:	ef 92       	push	r14
    2c7e:	ff 92       	push	r15
    2c80:	0f 93       	push	r16
    2c82:	1f 93       	push	r17
    2c84:	cf 93       	push	r28
    2c86:	df 93       	push	r29
    2c88:	cd b7       	in	r28, 0x3d	; 61
    2c8a:	de b7       	in	r29, 0x3e	; 62
    2c8c:	a1 97       	sbiw	r28, 0x21	; 33
    2c8e:	0f b6       	in	r0, 0x3f	; 63
    2c90:	f8 94       	cli
    2c92:	de bf       	out	0x3e, r29	; 62
    2c94:	0f be       	out	0x3f, r0	; 63
    2c96:	cd bf       	out	0x3d, r28	; 61
    2c98:	a8 2e       	mov	r10, r24
    2c9a:	b9 2e       	mov	r11, r25
    2c9c:	5d 8b       	std	Y+21, r21	; 0x15
    2c9e:	4c 8b       	std	Y+20, r20	; 0x14
    2ca0:	c8 8e       	std	Y+24, r12	; 0x18
    2ca2:	d9 8e       	std	Y+25, r13	; 0x19
    2ca4:	ea 8e       	std	Y+26, r14	; 0x1a
    2ca6:	fb 8e       	std	Y+27, r15	; 0x1b
    2ca8:	8e 8f       	std	Y+30, r24	; 0x1e
    2caa:	9f 8f       	std	Y+31, r25	; 0x1f
    2cac:	6a 8b       	std	Y+18, r22	; 0x12
    2cae:	7b 8b       	std	Y+19, r23	; 0x13
    2cb0:	47 e0       	ldi	r20, 0x07	; 7
    2cb2:	50 e0       	ldi	r21, 0x00	; 0
    2cb4:	b9 01       	movw	r22, r18
    2cb6:	ce 01       	movw	r24, r28
    2cb8:	01 96       	adiw	r24, 0x01	; 1
    2cba:	27 d4       	rcall	.+2126   	; 0x350a <memcpy_P>
    2cbc:	2c 89       	ldd	r18, Y+20	; 0x14
    2cbe:	3d 89       	ldd	r19, Y+21	; 0x15
    2cc0:	3f 8b       	std	Y+23, r19	; 0x17
    2cc2:	2e 8b       	std	Y+22, r18	; 0x16
    2cc4:	a8 8a       	std	Y+16, r10	; 0x10
    2cc6:	b9 8a       	std	Y+17, r11	; 0x11
    2cc8:	61 2c       	mov	r6, r1
    2cca:	71 2c       	mov	r7, r1
    2ccc:	20 2e       	mov	r2, r16
    2cce:	31 2c       	mov	r3, r1
    2cd0:	0c 8f       	std	Y+28, r16	; 0x1c
    2cd2:	3d 8e       	std	Y+29, r3	; 0x1d
    2cd4:	f1 c0       	rjmp	.+482    	; 0x2eb8 <LCD_Font+0x254>
    2cd6:	ee 89       	ldd	r30, Y+22	; 0x16
    2cd8:	ff 89       	ldd	r31, Y+23	; 0x17
    2cda:	81 91       	ld	r24, Z+
    2cdc:	ff 8b       	std	Y+23, r31	; 0x17
    2cde:	ee 8b       	std	Y+22, r30	; 0x16
    2ce0:	8a 30       	cpi	r24, 0x0A	; 10
    2ce2:	89 f4       	brne	.+34     	; 0x2d06 <LCD_Font+0xa2>
    2ce4:	2f 81       	ldd	r18, Y+7	; 0x07
    2ce6:	22 9d       	mul	r18, r2
    2ce8:	c0 01       	movw	r24, r0
    2cea:	23 9d       	mul	r18, r3
    2cec:	90 0d       	add	r25, r0
    2cee:	11 24       	eor	r1, r1
    2cf0:	2a 89       	ldd	r18, Y+18	; 0x12
    2cf2:	3b 89       	ldd	r19, Y+19	; 0x13
    2cf4:	28 0f       	add	r18, r24
    2cf6:	39 1f       	adc	r19, r25
    2cf8:	3b 8b       	std	Y+19, r19	; 0x13
    2cfa:	2a 8b       	std	Y+18, r18	; 0x12
    2cfc:	3e 8d       	ldd	r19, Y+30	; 0x1e
    2cfe:	38 8b       	std	Y+16, r19	; 0x10
    2d00:	6f 8d       	ldd	r22, Y+31	; 0x1f
    2d02:	69 8b       	std	Y+17, r22	; 0x11
    2d04:	d6 c0       	rjmp	.+428    	; 0x2eb2 <LCD_Font+0x24e>
    2d06:	2d 81       	ldd	r18, Y+5	; 0x05
    2d08:	82 17       	cp	r24, r18
    2d0a:	08 f4       	brcc	.+2      	; 0x2d0e <LCD_Font+0xaa>
    2d0c:	d2 c0       	rjmp	.+420    	; 0x2eb2 <LCD_Font+0x24e>
    2d0e:	9e 81       	ldd	r25, Y+6	; 0x06
    2d10:	98 17       	cp	r25, r24
    2d12:	08 f4       	brcc	.+2      	; 0x2d16 <LCD_Font+0xb2>
    2d14:	ce c0       	rjmp	.+412    	; 0x2eb2 <LCD_Font+0x24e>
    2d16:	8d 30       	cpi	r24, 0x0D	; 13
    2d18:	09 f4       	brne	.+2      	; 0x2d1c <LCD_Font+0xb8>
    2d1a:	cb c0       	rjmp	.+406    	; 0x2eb2 <LCD_Font+0x24e>
    2d1c:	90 e0       	ldi	r25, 0x00	; 0
    2d1e:	82 1b       	sub	r24, r18
    2d20:	91 09       	sbc	r25, r1
    2d22:	bc 01       	movw	r22, r24
    2d24:	66 0f       	add	r22, r22
    2d26:	77 1f       	adc	r23, r23
    2d28:	66 0f       	add	r22, r22
    2d2a:	77 1f       	adc	r23, r23
    2d2c:	66 0f       	add	r22, r22
    2d2e:	77 1f       	adc	r23, r23
    2d30:	fb 01       	movw	r30, r22
    2d32:	e8 1b       	sub	r30, r24
    2d34:	f9 0b       	sbc	r31, r25
    2d36:	6b 81       	ldd	r22, Y+3	; 0x03
    2d38:	7c 81       	ldd	r23, Y+4	; 0x04
    2d3a:	6e 0f       	add	r22, r30
    2d3c:	7f 1f       	adc	r23, r31
    2d3e:	47 e0       	ldi	r20, 0x07	; 7
    2d40:	50 e0       	ldi	r21, 0x00	; 0
    2d42:	ce 01       	movw	r24, r28
    2d44:	08 96       	adiw	r24, 0x08	; 8
    2d46:	e1 d3       	rcall	.+1986   	; 0x350a <memcpy_P>
    2d48:	89 80       	ldd	r8, Y+1	; 0x01
    2d4a:	9a 80       	ldd	r9, Y+2	; 0x02
    2d4c:	c8 84       	ldd	r12, Y+8	; 0x08
    2d4e:	d9 84       	ldd	r13, Y+9	; 0x09
    2d50:	8b 85       	ldd	r24, Y+11	; 0x0b
    2d52:	81 11       	cpse	r24, r1
    2d54:	99 c0       	rjmp	.+306    	; 0x2e88 <LCD_Font+0x224>
    2d56:	a1 c0       	rjmp	.+322    	; 0x2e9a <LCD_Font+0x236>
    2d58:	a1 2c       	mov	r10, r1
    2d5a:	80 e0       	ldi	r24, 0x00	; 0
    2d5c:	90 e0       	ldi	r25, 0x00	; 0
    2d5e:	ff 85       	ldd	r31, Y+15	; 0x0f
    2d60:	4f 2e       	mov	r4, r31
    2d62:	51 2c       	mov	r5, r1
    2d64:	b1 10       	cpse	r11, r1
    2d66:	0b c0       	rjmp	.+22     	; 0x2d7e <LCD_Font+0x11a>
    2d68:	96 01       	movw	r18, r12
    2d6a:	2f 5f       	subi	r18, 0xFF	; 255
    2d6c:	3f 4f       	sbci	r19, 0xFF	; 255
    2d6e:	f4 01       	movw	r30, r8
    2d70:	ec 0d       	add	r30, r12
    2d72:	fd 1d       	adc	r31, r13
    2d74:	74 90       	lpm	r7, Z
    2d76:	69 01       	movw	r12, r18
    2d78:	68 94       	set
    2d7a:	bb 24       	eor	r11, r11
    2d7c:	b7 f8       	bld	r11, 7
    2d7e:	27 2d       	mov	r18, r7
    2d80:	2b 21       	and	r18, r11
    2d82:	11 f0       	breq	.+4      	; 0x2d88 <LCD_Font+0x124>
    2d84:	01 96       	adiw	r24, 0x01	; 1
    2d86:	39 c0       	rjmp	.+114    	; 0x2dfa <LCD_Font+0x196>
    2d88:	00 97       	sbiw	r24, 0x00	; 0
    2d8a:	b9 f1       	breq	.+110    	; 0x2dfa <LCD_Font+0x196>
    2d8c:	28 9e       	mul	r2, r24
    2d8e:	a0 01       	movw	r20, r0
    2d90:	29 9e       	mul	r2, r25
    2d92:	50 0d       	add	r21, r0
    2d94:	38 9e       	mul	r3, r24
    2d96:	50 0d       	add	r21, r0
    2d98:	11 24       	eor	r1, r1
    2d9a:	2e 85       	ldd	r18, Y+14	; 0x0e
    2d9c:	b2 01       	movw	r22, r4
    2d9e:	62 0f       	add	r22, r18
    2da0:	71 1d       	adc	r23, r1
    2da2:	27 fd       	sbrc	r18, 7
    2da4:	7a 95       	dec	r23
    2da6:	9b 01       	movw	r18, r22
    2da8:	22 9d       	mul	r18, r2
    2daa:	b0 01       	movw	r22, r0
    2dac:	23 9d       	mul	r18, r3
    2dae:	70 0d       	add	r23, r0
    2db0:	32 9d       	mul	r19, r2
    2db2:	70 0d       	add	r23, r0
    2db4:	11 24       	eor	r1, r1
    2db6:	ea 89       	ldd	r30, Y+18	; 0x12
    2db8:	fb 89       	ldd	r31, Y+19	; 0x13
    2dba:	6e 0f       	add	r22, r30
    2dbc:	7f 1f       	adc	r23, r31
    2dbe:	ed 85       	ldd	r30, Y+13	; 0x0d
    2dc0:	2a 2d       	mov	r18, r10
    2dc2:	30 e0       	ldi	r19, 0x00	; 0
    2dc4:	2e 0f       	add	r18, r30
    2dc6:	31 1d       	adc	r19, r1
    2dc8:	e7 fd       	sbrc	r30, 7
    2dca:	3a 95       	dec	r19
    2dcc:	28 1b       	sub	r18, r24
    2dce:	39 0b       	sbc	r19, r25
    2dd0:	22 9d       	mul	r18, r2
    2dd2:	c0 01       	movw	r24, r0
    2dd4:	23 9d       	mul	r18, r3
    2dd6:	90 0d       	add	r25, r0
    2dd8:	32 9d       	mul	r19, r2
    2dda:	90 0d       	add	r25, r0
    2ddc:	11 24       	eor	r1, r1
    2dde:	e8 8c       	ldd	r14, Y+24	; 0x18
    2de0:	f9 8c       	ldd	r15, Y+25	; 0x19
    2de2:	0a 8d       	ldd	r16, Y+26	; 0x1a
    2de4:	1b 8d       	ldd	r17, Y+27	; 0x1b
    2de6:	2c 8d       	ldd	r18, Y+28	; 0x1c
    2de8:	3d 8d       	ldd	r19, Y+29	; 0x1d
    2dea:	e8 89       	ldd	r30, Y+16	; 0x10
    2dec:	f9 89       	ldd	r31, Y+17	; 0x11
    2dee:	8e 0f       	add	r24, r30
    2df0:	9f 1f       	adc	r25, r31
    2df2:	0e 94 ea 0c 	call	0x19d4	; 0x19d4 <LCD_Rect_Fill>
    2df6:	80 e0       	ldi	r24, 0x00	; 0
    2df8:	90 e0       	ldi	r25, 0x00	; 0
    2dfa:	b6 94       	lsr	r11
    2dfc:	a3 94       	inc	r10
    2dfe:	2a 85       	ldd	r18, Y+10	; 0x0a
    2e00:	a2 16       	cp	r10, r18
    2e02:	08 f4       	brcc	.+2      	; 0x2e06 <LCD_Font+0x1a2>
    2e04:	af cf       	rjmp	.-162    	; 0x2d64 <LCD_Font+0x100>
    2e06:	00 97       	sbiw	r24, 0x00	; 0
    2e08:	b1 f1       	breq	.+108    	; 0x2e76 <LCD_Font+0x212>
    2e0a:	28 9e       	mul	r2, r24
    2e0c:	a0 01       	movw	r20, r0
    2e0e:	29 9e       	mul	r2, r25
    2e10:	50 0d       	add	r21, r0
    2e12:	38 9e       	mul	r3, r24
    2e14:	50 0d       	add	r21, r0
    2e16:	11 24       	eor	r1, r1
    2e18:	6e 85       	ldd	r22, Y+14	; 0x0e
    2e1a:	ff 85       	ldd	r31, Y+15	; 0x0f
    2e1c:	2f 2f       	mov	r18, r31
    2e1e:	30 e0       	ldi	r19, 0x00	; 0
    2e20:	26 0f       	add	r18, r22
    2e22:	31 1d       	adc	r19, r1
    2e24:	67 fd       	sbrc	r22, 7
    2e26:	3a 95       	dec	r19
    2e28:	22 9d       	mul	r18, r2
    2e2a:	b0 01       	movw	r22, r0
    2e2c:	23 9d       	mul	r18, r3
    2e2e:	70 0d       	add	r23, r0
    2e30:	32 9d       	mul	r19, r2
    2e32:	70 0d       	add	r23, r0
    2e34:	11 24       	eor	r1, r1
    2e36:	2a 89       	ldd	r18, Y+18	; 0x12
    2e38:	3b 89       	ldd	r19, Y+19	; 0x13
    2e3a:	62 0f       	add	r22, r18
    2e3c:	73 1f       	adc	r23, r19
    2e3e:	ed 85       	ldd	r30, Y+13	; 0x0d
    2e40:	2a 2d       	mov	r18, r10
    2e42:	30 e0       	ldi	r19, 0x00	; 0
    2e44:	2e 0f       	add	r18, r30
    2e46:	31 1d       	adc	r19, r1
    2e48:	e7 fd       	sbrc	r30, 7
    2e4a:	3a 95       	dec	r19
    2e4c:	28 1b       	sub	r18, r24
    2e4e:	39 0b       	sbc	r19, r25
    2e50:	22 9d       	mul	r18, r2
    2e52:	c0 01       	movw	r24, r0
    2e54:	23 9d       	mul	r18, r3
    2e56:	90 0d       	add	r25, r0
    2e58:	32 9d       	mul	r19, r2
    2e5a:	90 0d       	add	r25, r0
    2e5c:	11 24       	eor	r1, r1
    2e5e:	e8 8c       	ldd	r14, Y+24	; 0x18
    2e60:	f9 8c       	ldd	r15, Y+25	; 0x19
    2e62:	0a 8d       	ldd	r16, Y+26	; 0x1a
    2e64:	1b 8d       	ldd	r17, Y+27	; 0x1b
    2e66:	2c 8d       	ldd	r18, Y+28	; 0x1c
    2e68:	3d 8d       	ldd	r19, Y+29	; 0x1d
    2e6a:	e8 89       	ldd	r30, Y+16	; 0x10
    2e6c:	f9 89       	ldd	r31, Y+17	; 0x11
    2e6e:	8e 0f       	add	r24, r30
    2e70:	9f 1f       	adc	r25, r31
    2e72:	0e 94 ea 0c 	call	0x19d4	; 0x19d4 <LCD_Rect_Fill>
    2e76:	ff 85       	ldd	r31, Y+15	; 0x0f
    2e78:	ff 5f       	subi	r31, 0xFF	; 255
    2e7a:	ff 87       	std	Y+15, r31	; 0x0f
    2e7c:	8b 85       	ldd	r24, Y+11	; 0x0b
    2e7e:	f8 17       	cp	r31, r24
    2e80:	40 f0       	brcs	.+16     	; 0x2e92 <LCD_Font+0x22e>
    2e82:	68 a0       	ldd	r6, Y+32	; 0x20
    2e84:	79 a0       	ldd	r7, Y+33	; 0x21
    2e86:	09 c0       	rjmp	.+18     	; 0x2e9a <LCD_Font+0x236>
    2e88:	1f 86       	std	Y+15, r1	; 0x0f
    2e8a:	b1 2c       	mov	r11, r1
    2e8c:	79 a2       	std	Y+33, r7	; 0x21
    2e8e:	68 a2       	std	Y+32, r6	; 0x20
    2e90:	7b 2c       	mov	r7, r11
    2e92:	8a 85       	ldd	r24, Y+10	; 0x0a
    2e94:	81 11       	cpse	r24, r1
    2e96:	60 cf       	rjmp	.-320    	; 0x2d58 <LCD_Font+0xf4>
    2e98:	ee cf       	rjmp	.-36     	; 0x2e76 <LCD_Font+0x212>
    2e9a:	2c 85       	ldd	r18, Y+12	; 0x0c
    2e9c:	22 9d       	mul	r18, r2
    2e9e:	c0 01       	movw	r24, r0
    2ea0:	23 9d       	mul	r18, r3
    2ea2:	90 0d       	add	r25, r0
    2ea4:	11 24       	eor	r1, r1
    2ea6:	28 89       	ldd	r18, Y+16	; 0x10
    2ea8:	39 89       	ldd	r19, Y+17	; 0x11
    2eaa:	28 0f       	add	r18, r24
    2eac:	39 1f       	adc	r19, r25
    2eae:	39 8b       	std	Y+17, r19	; 0x11
    2eb0:	28 8b       	std	Y+16, r18	; 0x10
    2eb2:	3f ef       	ldi	r19, 0xFF	; 255
    2eb4:	63 1a       	sub	r6, r19
    2eb6:	73 0a       	sbc	r7, r19
    2eb8:	ec 89       	ldd	r30, Y+20	; 0x14
    2eba:	fd 89       	ldd	r31, Y+21	; 0x15
    2ebc:	01 90       	ld	r0, Z+
    2ebe:	00 20       	and	r0, r0
    2ec0:	e9 f7       	brne	.-6      	; 0x2ebc <LCD_Font+0x258>
    2ec2:	31 97       	sbiw	r30, 0x01	; 1
    2ec4:	6c 89       	ldd	r22, Y+20	; 0x14
    2ec6:	7d 89       	ldd	r23, Y+21	; 0x15
    2ec8:	e6 1b       	sub	r30, r22
    2eca:	f7 0b       	sbc	r31, r23
    2ecc:	6e 16       	cp	r6, r30
    2ece:	7f 06       	cpc	r7, r31
    2ed0:	08 f4       	brcc	.+2      	; 0x2ed4 <LCD_Font+0x270>
    2ed2:	01 cf       	rjmp	.-510    	; 0x2cd6 <LCD_Font+0x72>
    2ed4:	a1 96       	adiw	r28, 0x21	; 33
    2ed6:	0f b6       	in	r0, 0x3f	; 63
    2ed8:	f8 94       	cli
    2eda:	de bf       	out	0x3e, r29	; 62
    2edc:	0f be       	out	0x3f, r0	; 63
    2ede:	cd bf       	out	0x3d, r28	; 61
    2ee0:	df 91       	pop	r29
    2ee2:	cf 91       	pop	r28
    2ee4:	1f 91       	pop	r17
    2ee6:	0f 91       	pop	r16
    2ee8:	ff 90       	pop	r15
    2eea:	ef 90       	pop	r14
    2eec:	df 90       	pop	r13
    2eee:	cf 90       	pop	r12
    2ef0:	bf 90       	pop	r11
    2ef2:	af 90       	pop	r10
    2ef4:	9f 90       	pop	r9
    2ef6:	8f 90       	pop	r8
    2ef8:	7f 90       	pop	r7
    2efa:	6f 90       	pop	r6
    2efc:	5f 90       	pop	r5
    2efe:	4f 90       	pop	r4
    2f00:	3f 90       	pop	r3
    2f02:	2f 90       	pop	r2
    2f04:	08 95       	ret

00002f06 <LCD_SPI>:

void LCD_SPI(void)
{ // Output: SCK, MOSI, CS_LD, DC_LD
	LCD_PORT |= (1 << LCD_SCK) | (1 << LCD_MOSI) | (1 << LCD_CS) | (1 << LCD_DC);
    2f06:	85 b1       	in	r24, 0x05	; 5
    2f08:	88 6b       	ori	r24, 0xB8	; 184
    2f0a:	85 b9       	out	0x05, r24	; 5
	LCD_DDR  |= (1 << LCD_SCK) | (1 << LCD_MOSI) | (1 << LCD_CS) | (1 << LCD_DC);
    2f0c:	84 b1       	in	r24, 0x04	; 4
    2f0e:	88 6b       	ori	r24, 0xB8	; 184
    2f10:	84 b9       	out	0x04, r24	; 4
	SPCR |= (1 << SPE) | (1 << MSTR); // SPE - SPI Enable | MSTR - Master device
    2f12:	8c b5       	in	r24, 0x2c	; 44
    2f14:	80 65       	ori	r24, 0x50	; 80
    2f16:	8c bd       	out	0x2c, r24	; 44
	SPSR |= (1 << SPI2X) | (0 << SPR1) | (0 << SPR0);
    2f18:	8d b5       	in	r24, 0x2d	; 45
    2f1a:	81 60       	ori	r24, 0x01	; 1
    2f1c:	8d bd       	out	0x2d, r24	; 45
    2f1e:	08 95       	ret

00002f20 <LCD_Reset>:
}

void LCD_Reset(void)
{
	LCD_PORT |= (1 << LCD_RST);
    2f20:	28 9a       	sbi	0x05, 0	; 5
	LCD_DDR  |= (1 << LCD_RST);
    2f22:	20 9a       	sbi	0x04, 0	; 4
	LCD_CS_U
    2f24:	2c 98       	cbi	0x05, 4	; 5
	LCD_RST_S
    2f26:	28 9a       	sbi	0x05, 0	; 5
	#else
		//round up by default
		__ticks_dc = (uint32_t)(ceil(fabs(__tmp)));
	#endif

	__builtin_avr_delay_cycles(__ticks_dc);
    2f28:	2f eb       	ldi	r18, 0xBF	; 191
    2f2a:	87 e2       	ldi	r24, 0x27	; 39
    2f2c:	99 e0       	ldi	r25, 0x09	; 9
    2f2e:	21 50       	subi	r18, 0x01	; 1
    2f30:	80 40       	sbci	r24, 0x00	; 0
    2f32:	90 40       	sbci	r25, 0x00	; 0
    2f34:	e1 f7       	brne	.-8      	; 0x2f2e <LCD_Reset+0xe>
    2f36:	00 c0       	rjmp	.+0      	; 0x2f38 <LCD_Reset+0x18>
    2f38:	00 00       	nop
	_delay_ms(150);
	LCD_RST_U
    2f3a:	28 98       	cbi	0x05, 0	; 5
    2f3c:	2f eb       	ldi	r18, 0xBF	; 191
    2f3e:	87 e2       	ldi	r24, 0x27	; 39
    2f40:	99 e0       	ldi	r25, 0x09	; 9
    2f42:	21 50       	subi	r18, 0x01	; 1
    2f44:	80 40       	sbci	r24, 0x00	; 0
    2f46:	90 40       	sbci	r25, 0x00	; 0
    2f48:	e1 f7       	brne	.-8      	; 0x2f42 <LCD_Reset+0x22>
    2f4a:	00 c0       	rjmp	.+0      	; 0x2f4c <LCD_Reset+0x2c>
    2f4c:	00 00       	nop
	_delay_ms(150);
	LCD_RST_S
    2f4e:	28 9a       	sbi	0x05, 0	; 5
    2f50:	08 95       	ret

00002f52 <LCD_Orientation>:
	else return ((r / 8) << 11) | ((g / 4) << 5) | (b / 8);
}

inline static void LCD_Command(uint8_t cmd)
{
	LCD_CS_U
    2f52:	2c 98       	cbi	0x05, 4	; 5
	LCD_DC_U
    2f54:	2b 98       	cbi	0x05, 3	; 5
	SPDR = cmd;
    2f56:	96 e3       	ldi	r25, 0x36	; 54
    2f58:	9e bd       	out	0x2e, r25	; 46
	while(!(SPSR & (1 << SPIF)));
    2f5a:	0d b4       	in	r0, 0x2d	; 45
    2f5c:	07 fe       	sbrs	r0, 7
    2f5e:	fd cf       	rjmp	.-6      	; 0x2f5a <LCD_Orientation+0x8>
	LCD_CS_S
    2f60:	2c 9a       	sbi	0x05, 4	; 5
}

void LCD_Orientation(uint8_t orientation)
{
	LCD_Command(MEMORY_ACCESS_CONTROL);
	switch (orientation)
    2f62:	81 30       	cpi	r24, 0x01	; 1
    2f64:	e1 f0       	breq	.+56     	; 0x2f9e <LCD_Orientation+0x4c>
    2f66:	30 f0       	brcs	.+12     	; 0x2f74 <LCD_Orientation+0x22>
    2f68:	82 30       	cpi	r24, 0x02	; 2
    2f6a:	71 f1       	breq	.+92     	; 0x2fc8 <LCD_Orientation+0x76>
    2f6c:	83 30       	cpi	r24, 0x03	; 3
    2f6e:	09 f4       	brne	.+2      	; 0x2f72 <LCD_Orientation+0x20>
    2f70:	40 c0       	rjmp	.+128    	; 0x2ff2 <LCD_Orientation+0xa0>
    2f72:	08 95       	ret
	LCD_CS_S
}

inline static void LCD_Data_8(uint8_t data)
{
	LCD_CS_U
    2f74:	2c 98       	cbi	0x05, 4	; 5
	LCD_DC_S
    2f76:	2b 9a       	sbi	0x05, 3	; 5
	SPDR = data;
    2f78:	88 e4       	ldi	r24, 0x48	; 72
    2f7a:	8e bd       	out	0x2e, r24	; 46
	while(!(SPSR & (1 << SPIF)));
    2f7c:	0d b4       	in	r0, 0x2d	; 45
    2f7e:	07 fe       	sbrs	r0, 7
    2f80:	fd cf       	rjmp	.-6      	; 0x2f7c <LCD_Orientation+0x2a>
	LCD_CS_S
    2f82:	2c 9a       	sbi	0x05, 4	; 5
	LCD_Command(MEMORY_ACCESS_CONTROL);
	switch (orientation)
	{
		case 0:
		LCD_Data_8(0x40 | 0x08);
		LCD_Width = LCD_HEIGHT;
    2f84:	80 ef       	ldi	r24, 0xF0	; 240
    2f86:	90 e0       	ldi	r25, 0x00	; 0
    2f88:	90 93 65 01 	sts	0x0165, r25	; 0x800165 <LCD_Width+0x1>
    2f8c:	80 93 64 01 	sts	0x0164, r24	; 0x800164 <LCD_Width>
		LCD_Height = LCD_WIDTH;
    2f90:	80 e4       	ldi	r24, 0x40	; 64
    2f92:	91 e0       	ldi	r25, 0x01	; 1
    2f94:	90 93 63 01 	sts	0x0163, r25	; 0x800163 <__data_end+0x1>
    2f98:	80 93 62 01 	sts	0x0162, r24	; 0x800162 <__data_end>
		break;
    2f9c:	08 95       	ret
	LCD_CS_S
}

inline static void LCD_Data_8(uint8_t data)
{
	LCD_CS_U
    2f9e:	2c 98       	cbi	0x05, 4	; 5
	LCD_DC_S
    2fa0:	2b 9a       	sbi	0x05, 3	; 5
	SPDR = data;
    2fa2:	88 e2       	ldi	r24, 0x28	; 40
    2fa4:	8e bd       	out	0x2e, r24	; 46
	while(!(SPSR & (1 << SPIF)));
    2fa6:	0d b4       	in	r0, 0x2d	; 45
    2fa8:	07 fe       	sbrs	r0, 7
    2faa:	fd cf       	rjmp	.-6      	; 0x2fa6 <LCD_Orientation+0x54>
	LCD_CS_S
    2fac:	2c 9a       	sbi	0x05, 4	; 5
		LCD_Width = LCD_HEIGHT;
		LCD_Height = LCD_WIDTH;
		break;
		case 1:
		LCD_Data_8(0x20 | 0x08);
		LCD_Width  = LCD_WIDTH;
    2fae:	80 e4       	ldi	r24, 0x40	; 64
    2fb0:	91 e0       	ldi	r25, 0x01	; 1
    2fb2:	90 93 65 01 	sts	0x0165, r25	; 0x800165 <LCD_Width+0x1>
    2fb6:	80 93 64 01 	sts	0x0164, r24	; 0x800164 <LCD_Width>
		LCD_Height = LCD_HEIGHT;
    2fba:	80 ef       	ldi	r24, 0xF0	; 240
    2fbc:	90 e0       	ldi	r25, 0x00	; 0
    2fbe:	90 93 63 01 	sts	0x0163, r25	; 0x800163 <__data_end+0x1>
    2fc2:	80 93 62 01 	sts	0x0162, r24	; 0x800162 <__data_end>
		break;
    2fc6:	08 95       	ret
	LCD_CS_S
}

inline static void LCD_Data_8(uint8_t data)
{
	LCD_CS_U
    2fc8:	2c 98       	cbi	0x05, 4	; 5
	LCD_DC_S
    2fca:	2b 9a       	sbi	0x05, 3	; 5
	SPDR = data;
    2fcc:	88 e8       	ldi	r24, 0x88	; 136
    2fce:	8e bd       	out	0x2e, r24	; 46
	while(!(SPSR & (1 << SPIF)));
    2fd0:	0d b4       	in	r0, 0x2d	; 45
    2fd2:	07 fe       	sbrs	r0, 7
    2fd4:	fd cf       	rjmp	.-6      	; 0x2fd0 <LCD_Orientation+0x7e>
	LCD_CS_S
    2fd6:	2c 9a       	sbi	0x05, 4	; 5
		LCD_Width  = LCD_WIDTH;
		LCD_Height = LCD_HEIGHT;
		break;
		case 2:
		LCD_Data_8(0x80 | 0x08);
		LCD_Width  = LCD_HEIGHT;
    2fd8:	80 ef       	ldi	r24, 0xF0	; 240
    2fda:	90 e0       	ldi	r25, 0x00	; 0
    2fdc:	90 93 65 01 	sts	0x0165, r25	; 0x800165 <LCD_Width+0x1>
    2fe0:	80 93 64 01 	sts	0x0164, r24	; 0x800164 <LCD_Width>
		LCD_Height = LCD_WIDTH;
    2fe4:	80 e4       	ldi	r24, 0x40	; 64
    2fe6:	91 e0       	ldi	r25, 0x01	; 1
    2fe8:	90 93 63 01 	sts	0x0163, r25	; 0x800163 <__data_end+0x1>
    2fec:	80 93 62 01 	sts	0x0162, r24	; 0x800162 <__data_end>
		break;
    2ff0:	08 95       	ret
	LCD_CS_S
}

inline static void LCD_Data_8(uint8_t data)
{
	LCD_CS_U
    2ff2:	2c 98       	cbi	0x05, 4	; 5
	LCD_DC_S
    2ff4:	2b 9a       	sbi	0x05, 3	; 5
	SPDR = data;
    2ff6:	88 ee       	ldi	r24, 0xE8	; 232
    2ff8:	8e bd       	out	0x2e, r24	; 46
	while(!(SPSR & (1 << SPIF)));
    2ffa:	0d b4       	in	r0, 0x2d	; 45
    2ffc:	07 fe       	sbrs	r0, 7
    2ffe:	fd cf       	rjmp	.-6      	; 0x2ffa <LCD_Orientation+0xa8>
	LCD_CS_S
    3000:	2c 9a       	sbi	0x05, 4	; 5
		LCD_Width  = LCD_HEIGHT;
		LCD_Height = LCD_WIDTH;
		break;
		case 3:
		LCD_Data_8(0x40 | 0x80 | 0x20 | 0x08);
		LCD_Width  = LCD_WIDTH;
    3002:	80 e4       	ldi	r24, 0x40	; 64
    3004:	91 e0       	ldi	r25, 0x01	; 1
    3006:	90 93 65 01 	sts	0x0165, r25	; 0x800165 <LCD_Width+0x1>
    300a:	80 93 64 01 	sts	0x0164, r24	; 0x800164 <LCD_Width>
		LCD_Height = LCD_HEIGHT;
    300e:	80 ef       	ldi	r24, 0xF0	; 240
    3010:	90 e0       	ldi	r25, 0x00	; 0
    3012:	90 93 63 01 	sts	0x0163, r25	; 0x800163 <__data_end+0x1>
    3016:	80 93 62 01 	sts	0x0162, r24	; 0x800162 <__data_end>
    301a:	08 95       	ret

0000301c <LCD_Init>:
		break;
	}
}

void LCD_Init(void)
{
    301c:	ef 92       	push	r14
    301e:	ff 92       	push	r15
    3020:	0f 93       	push	r16
    3022:	1f 93       	push	r17
	LCD_SPI();
    3024:	70 df       	rcall	.-288    	; 0x2f06 <LCD_SPI>
	LCD_Reset();
    3026:	7c df       	rcall	.-264    	; 0x2f20 <LCD_Reset>
    3028:	2c 98       	cbi	0x05, 4	; 5
	else return ((r / 8) << 11) | ((g / 4) << 5) | (b / 8);
}

inline static void LCD_Command(uint8_t cmd)
{
	LCD_CS_U
    302a:	2b 98       	cbi	0x05, 3	; 5
	LCD_DC_U
    302c:	81 e0       	ldi	r24, 0x01	; 1
	SPDR = cmd;
    302e:	8e bd       	out	0x2e, r24	; 46
    3030:	0d b4       	in	r0, 0x2d	; 45
	while(!(SPSR & (1 << SPIF)));
    3032:	07 fe       	sbrs	r0, 7
    3034:	fd cf       	rjmp	.-6      	; 0x3030 <LCD_Init+0x14>
    3036:	2c 9a       	sbi	0x05, 4	; 5
	LCD_CS_S
    3038:	2c 98       	cbi	0x05, 4	; 5
	else return ((r / 8) << 11) | ((g / 4) << 5) | (b / 8);
}

inline static void LCD_Command(uint8_t cmd)
{
	LCD_CS_U
    303a:	2b 98       	cbi	0x05, 3	; 5
	LCD_DC_U
    303c:	80 ec       	ldi	r24, 0xC0	; 192
	SPDR = cmd;
    303e:	8e bd       	out	0x2e, r24	; 46
    3040:	0d b4       	in	r0, 0x2d	; 45
	while(!(SPSR & (1 << SPIF)));
    3042:	07 fe       	sbrs	r0, 7
    3044:	fd cf       	rjmp	.-6      	; 0x3040 <LCD_Init+0x24>
    3046:	2c 9a       	sbi	0x05, 4	; 5
	LCD_CS_S
    3048:	2c 98       	cbi	0x05, 4	; 5
}

inline static void LCD_Data_8(uint8_t data)
{
	LCD_CS_U
    304a:	2b 9a       	sbi	0x05, 3	; 5
	LCD_DC_S
    304c:	85 e2       	ldi	r24, 0x25	; 37
	SPDR = data;
    304e:	8e bd       	out	0x2e, r24	; 46
    3050:	0d b4       	in	r0, 0x2d	; 45
	while(!(SPSR & (1 << SPIF)));
    3052:	07 fe       	sbrs	r0, 7
    3054:	fd cf       	rjmp	.-6      	; 0x3050 <LCD_Init+0x34>
    3056:	2c 9a       	sbi	0x05, 4	; 5
	LCD_CS_S
    3058:	2c 98       	cbi	0x05, 4	; 5
	else return ((r / 8) << 11) | ((g / 4) << 5) | (b / 8);
}

inline static void LCD_Command(uint8_t cmd)
{
	LCD_CS_U
    305a:	2b 98       	cbi	0x05, 3	; 5
	LCD_DC_U
    305c:	81 ec       	ldi	r24, 0xC1	; 193
	SPDR = cmd;
    305e:	8e bd       	out	0x2e, r24	; 46
    3060:	0d b4       	in	r0, 0x2d	; 45
	while(!(SPSR & (1 << SPIF)));
    3062:	07 fe       	sbrs	r0, 7
    3064:	fd cf       	rjmp	.-6      	; 0x3060 <LCD_Init+0x44>
    3066:	2c 9a       	sbi	0x05, 4	; 5
	LCD_CS_S
    3068:	2c 98       	cbi	0x05, 4	; 5
}

inline static void LCD_Data_8(uint8_t data)
{
	LCD_CS_U
    306a:	2b 9a       	sbi	0x05, 3	; 5
	LCD_DC_S
    306c:	81 e0       	ldi	r24, 0x01	; 1
	SPDR = data;
    306e:	8e bd       	out	0x2e, r24	; 46
    3070:	0d b4       	in	r0, 0x2d	; 45
	while(!(SPSR & (1 << SPIF)));
    3072:	07 fe       	sbrs	r0, 7
    3074:	fd cf       	rjmp	.-6      	; 0x3070 <LCD_Init+0x54>
    3076:	2c 9a       	sbi	0x05, 4	; 5
	LCD_CS_S
    3078:	2c 98       	cbi	0x05, 4	; 5
	else return ((r / 8) << 11) | ((g / 4) << 5) | (b / 8);
}

inline static void LCD_Command(uint8_t cmd)
{
	LCD_CS_U
    307a:	2b 98       	cbi	0x05, 3	; 5
	LCD_DC_U
    307c:	85 ec       	ldi	r24, 0xC5	; 197
	SPDR = cmd;
    307e:	8e bd       	out	0x2e, r24	; 46
    3080:	0d b4       	in	r0, 0x2d	; 45
	while(!(SPSR & (1 << SPIF)));
    3082:	07 fe       	sbrs	r0, 7
    3084:	fd cf       	rjmp	.-6      	; 0x3080 <LCD_Init+0x64>
    3086:	2c 9a       	sbi	0x05, 4	; 5
	LCD_CS_S
    3088:	2c 98       	cbi	0x05, 4	; 5
}

inline static void LCD_Data_8(uint8_t data)
{
	LCD_CS_U
    308a:	2b 9a       	sbi	0x05, 3	; 5
	LCD_DC_S
    308c:	8b e2       	ldi	r24, 0x2B	; 43
	SPDR = data;
    308e:	8e bd       	out	0x2e, r24	; 46
    3090:	0d b4       	in	r0, 0x2d	; 45
	while(!(SPSR & (1 << SPIF)));
    3092:	07 fe       	sbrs	r0, 7
    3094:	fd cf       	rjmp	.-6      	; 0x3090 <LCD_Init+0x74>
    3096:	2c 9a       	sbi	0x05, 4	; 5
	LCD_CS_S
    3098:	2c 98       	cbi	0x05, 4	; 5
	LCD_CS_S
}

inline static void LCD_Data_8(uint8_t data)
{
	LCD_CS_U
    309a:	2b 9a       	sbi	0x05, 3	; 5
	LCD_DC_S
    309c:	8b e2       	ldi	r24, 0x2B	; 43
	SPDR = data;
    309e:	8e bd       	out	0x2e, r24	; 46
    30a0:	0d b4       	in	r0, 0x2d	; 45
	while(!(SPSR & (1 << SPIF)));
    30a2:	07 fe       	sbrs	r0, 7
    30a4:	fd cf       	rjmp	.-6      	; 0x30a0 <LCD_Init+0x84>
    30a6:	2c 9a       	sbi	0x05, 4	; 5
	LCD_CS_S
    30a8:	2c 98       	cbi	0x05, 4	; 5
	else return ((r / 8) << 11) | ((g / 4) << 5) | (b / 8);
}

inline static void LCD_Command(uint8_t cmd)
{
	LCD_CS_U
    30aa:	2b 98       	cbi	0x05, 3	; 5
	LCD_DC_U
    30ac:	87 ec       	ldi	r24, 0xC7	; 199
	SPDR = cmd;
    30ae:	8e bd       	out	0x2e, r24	; 46
    30b0:	0d b4       	in	r0, 0x2d	; 45
	while(!(SPSR & (1 << SPIF)));
    30b2:	07 fe       	sbrs	r0, 7
    30b4:	fd cf       	rjmp	.-6      	; 0x30b0 <LCD_Init+0x94>
    30b6:	2c 9a       	sbi	0x05, 4	; 5
	LCD_CS_S
    30b8:	2c 98       	cbi	0x05, 4	; 5
}

inline static void LCD_Data_8(uint8_t data)
{
	LCD_CS_U
    30ba:	2b 9a       	sbi	0x05, 3	; 5
	LCD_DC_S
    30bc:	86 e0       	ldi	r24, 0x06	; 6
	SPDR = data;
    30be:	8e bd       	out	0x2e, r24	; 46
    30c0:	0d b4       	in	r0, 0x2d	; 45
	while(!(SPSR & (1 << SPIF)));
    30c2:	07 fe       	sbrs	r0, 7
    30c4:	fd cf       	rjmp	.-6      	; 0x30c0 <LCD_Init+0xa4>
    30c6:	2c 9a       	sbi	0x05, 4	; 5
	LCD_CS_S
    30c8:	2c 98       	cbi	0x05, 4	; 5
	else return ((r / 8) << 11) | ((g / 4) << 5) | (b / 8);
}

inline static void LCD_Command(uint8_t cmd)
{
	LCD_CS_U
    30ca:	2b 98       	cbi	0x05, 3	; 5
	LCD_DC_U
    30cc:	8a e3       	ldi	r24, 0x3A	; 58
	SPDR = cmd;
    30ce:	8e bd       	out	0x2e, r24	; 46
    30d0:	0d b4       	in	r0, 0x2d	; 45
	while(!(SPSR & (1 << SPIF)));
    30d2:	07 fe       	sbrs	r0, 7
    30d4:	fd cf       	rjmp	.-6      	; 0x30d0 <LCD_Init+0xb4>
    30d6:	2c 9a       	sbi	0x05, 4	; 5
	LCD_CS_S
    30d8:	2c 98       	cbi	0x05, 4	; 5
}

inline static void LCD_Data_8(uint8_t data)
{
	LCD_CS_U
    30da:	2b 9a       	sbi	0x05, 3	; 5
	LCD_DC_S
    30dc:	85 e0       	ldi	r24, 0x05	; 5
	SPDR = data;
    30de:	8e bd       	out	0x2e, r24	; 46
    30e0:	0d b4       	in	r0, 0x2d	; 45
	while(!(SPSR & (1 << SPIF)));
    30e2:	07 fe       	sbrs	r0, 7
    30e4:	fd cf       	rjmp	.-6      	; 0x30e0 <LCD_Init+0xc4>
    30e6:	2c 9a       	sbi	0x05, 4	; 5
	LCD_CS_S
    30e8:	2c 98       	cbi	0x05, 4	; 5
	else return ((r / 8) << 11) | ((g / 4) << 5) | (b / 8);
}

inline static void LCD_Command(uint8_t cmd)
{
	LCD_CS_U
    30ea:	2b 98       	cbi	0x05, 3	; 5
	LCD_DC_U
    30ec:	81 eb       	ldi	r24, 0xB1	; 177
	SPDR = cmd;
    30ee:	8e bd       	out	0x2e, r24	; 46
    30f0:	0d b4       	in	r0, 0x2d	; 45
	while(!(SPSR & (1 << SPIF)));
    30f2:	07 fe       	sbrs	r0, 7
    30f4:	fd cf       	rjmp	.-6      	; 0x30f0 <LCD_Init+0xd4>
    30f6:	2c 9a       	sbi	0x05, 4	; 5
	LCD_CS_S
    30f8:	2c 98       	cbi	0x05, 4	; 5
}

inline static void LCD_Data_8(uint8_t data)
{
	LCD_CS_U
    30fa:	2b 9a       	sbi	0x05, 3	; 5
	LCD_DC_S
    30fc:	1e bc       	out	0x2e, r1	; 46
	SPDR = data;
    30fe:	0d b4       	in	r0, 0x2d	; 45
	while(!(SPSR & (1 << SPIF)));
    3100:	07 fe       	sbrs	r0, 7
    3102:	fd cf       	rjmp	.-6      	; 0x30fe <LCD_Init+0xe2>
    3104:	2c 9a       	sbi	0x05, 4	; 5
	LCD_CS_S
    3106:	2c 98       	cbi	0x05, 4	; 5
	LCD_CS_S
}

inline static void LCD_Data_8(uint8_t data)
{
	LCD_CS_U
    3108:	2b 9a       	sbi	0x05, 3	; 5
	LCD_DC_S
    310a:	88 e1       	ldi	r24, 0x18	; 24
	SPDR = data;
    310c:	8e bd       	out	0x2e, r24	; 46
    310e:	0d b4       	in	r0, 0x2d	; 45
	while(!(SPSR & (1 << SPIF)));
    3110:	07 fe       	sbrs	r0, 7
    3112:	fd cf       	rjmp	.-6      	; 0x310e <LCD_Init+0xf2>
    3114:	2c 9a       	sbi	0x05, 4	; 5
	LCD_CS_S
    3116:	2c 98       	cbi	0x05, 4	; 5
	else return ((r / 8) << 11) | ((g / 4) << 5) | (b / 8);
}

inline static void LCD_Command(uint8_t cmd)
{
	LCD_CS_U
    3118:	2b 98       	cbi	0x05, 3	; 5
	LCD_DC_U
    311a:	86 eb       	ldi	r24, 0xB6	; 182
	SPDR = cmd;
    311c:	8e bd       	out	0x2e, r24	; 46
    311e:	0d b4       	in	r0, 0x2d	; 45
	while(!(SPSR & (1 << SPIF)));
    3120:	07 fe       	sbrs	r0, 7
    3122:	fd cf       	rjmp	.-6      	; 0x311e <LCD_Init+0x102>
    3124:	2c 9a       	sbi	0x05, 4	; 5
	LCD_CS_S
    3126:	2c 98       	cbi	0x05, 4	; 5
}

inline static void LCD_Data_8(uint8_t data)
{
	LCD_CS_U
    3128:	2b 9a       	sbi	0x05, 3	; 5
	LCD_DC_S
    312a:	8a e0       	ldi	r24, 0x0A	; 10
	SPDR = data;
    312c:	8e bd       	out	0x2e, r24	; 46
    312e:	0d b4       	in	r0, 0x2d	; 45
	while(!(SPSR & (1 << SPIF)));
    3130:	07 fe       	sbrs	r0, 7
    3132:	fd cf       	rjmp	.-6      	; 0x312e <LCD_Init+0x112>
    3134:	2c 9a       	sbi	0x05, 4	; 5
	LCD_CS_S
    3136:	2c 98       	cbi	0x05, 4	; 5
	LCD_CS_S
}

inline static void LCD_Data_8(uint8_t data)
{
	LCD_CS_U
    3138:	2b 9a       	sbi	0x05, 3	; 5
	LCD_DC_S
    313a:	82 e8       	ldi	r24, 0x82	; 130
	SPDR = data;
    313c:	8e bd       	out	0x2e, r24	; 46
    313e:	0d b4       	in	r0, 0x2d	; 45
	while(!(SPSR & (1 << SPIF)));
    3140:	07 fe       	sbrs	r0, 7
    3142:	fd cf       	rjmp	.-6      	; 0x313e <LCD_Init+0x122>
    3144:	2c 9a       	sbi	0x05, 4	; 5
	LCD_CS_S
    3146:	2c 98       	cbi	0x05, 4	; 5
	LCD_CS_S
}

inline static void LCD_Data_8(uint8_t data)
{
	LCD_CS_U
    3148:	2b 9a       	sbi	0x05, 3	; 5
	LCD_DC_S
    314a:	87 e2       	ldi	r24, 0x27	; 39
	SPDR = data;
    314c:	8e bd       	out	0x2e, r24	; 46
    314e:	0d b4       	in	r0, 0x2d	; 45
	while(!(SPSR & (1 << SPIF)));
    3150:	07 fe       	sbrs	r0, 7
    3152:	fd cf       	rjmp	.-6      	; 0x314e <LCD_Init+0x132>
    3154:	2c 9a       	sbi	0x05, 4	; 5
	LCD_CS_S
    3156:	2c 98       	cbi	0x05, 4	; 5
	else return ((r / 8) << 11) | ((g / 4) << 5) | (b / 8);
}

inline static void LCD_Command(uint8_t cmd)
{
	LCD_CS_U
    3158:	2b 98       	cbi	0x05, 3	; 5
	LCD_DC_U
    315a:	8a e3       	ldi	r24, 0x3A	; 58
	SPDR = cmd;
    315c:	8e bd       	out	0x2e, r24	; 46
    315e:	0d b4       	in	r0, 0x2d	; 45
	while(!(SPSR & (1 << SPIF)));
    3160:	07 fe       	sbrs	r0, 7
    3162:	fd cf       	rjmp	.-6      	; 0x315e <LCD_Init+0x142>
    3164:	2c 9a       	sbi	0x05, 4	; 5
	LCD_CS_S
    3166:	2c 98       	cbi	0x05, 4	; 5
}

inline static void LCD_Data_8(uint8_t data)
{
	LCD_CS_U
    3168:	2b 9a       	sbi	0x05, 3	; 5
	LCD_DC_S
    316a:	85 e5       	ldi	r24, 0x55	; 85
	SPDR = data;
    316c:	8e bd       	out	0x2e, r24	; 46
    316e:	0d b4       	in	r0, 0x2d	; 45
	while(!(SPSR & (1 << SPIF)));
    3170:	07 fe       	sbrs	r0, 7
    3172:	fd cf       	rjmp	.-6      	; 0x316e <LCD_Init+0x152>
    3174:	2c 9a       	sbi	0x05, 4	; 5
	LCD_CS_S
    3176:	2c 98       	cbi	0x05, 4	; 5
	else return ((r / 8) << 11) | ((g / 4) << 5) | (b / 8);
}

inline static void LCD_Command(uint8_t cmd)
{
	LCD_CS_U
    3178:	2b 98       	cbi	0x05, 3	; 5
	LCD_DC_U
    317a:	81 e1       	ldi	r24, 0x11	; 17
	SPDR = cmd;
    317c:	8e bd       	out	0x2e, r24	; 46
    317e:	0d b4       	in	r0, 0x2d	; 45
	while(!(SPSR & (1 << SPIF)));
    3180:	07 fe       	sbrs	r0, 7
    3182:	fd cf       	rjmp	.-6      	; 0x317e <LCD_Init+0x162>
    3184:	2c 9a       	sbi	0x05, 4	; 5
	LCD_CS_S
    3186:	2c 98       	cbi	0x05, 4	; 5
	else return ((r / 8) << 11) | ((g / 4) << 5) | (b / 8);
}

inline static void LCD_Command(uint8_t cmd)
{
	LCD_CS_U
    3188:	2b 98       	cbi	0x05, 3	; 5
	LCD_DC_U
    318a:	89 e2       	ldi	r24, 0x29	; 41
	SPDR = cmd;
    318c:	8e bd       	out	0x2e, r24	; 46
    318e:	0d b4       	in	r0, 0x2d	; 45
	while(!(SPSR & (1 << SPIF)));
    3190:	07 fe       	sbrs	r0, 7
    3192:	fd cf       	rjmp	.-6      	; 0x318e <LCD_Init+0x172>
    3194:	2c 9a       	sbi	0x05, 4	; 5
	LCD_Data_8(0x27);
	LCD_Command(COLMOD_PIXEL_FORMAT_SET);
	LCD_Data_8(0x55);
	LCD_Command(SLEEP_OUT);
	LCD_Command(DISPLAY_ON);
	LCD_Orientation(DEFAULT_ORIENTATION);
    3196:	83 e0       	ldi	r24, 0x03	; 3
    3198:	dc de       	rcall	.-584    	; 0x2f52 <LCD_Orientation>
    319a:	e1 2c       	mov	r14, r1
	LCD_Rect_Fill(1, 1, LCD_WIDTH, LCD_HEIGHT, BLACK);
    319c:	f1 2c       	mov	r15, r1
    319e:	87 01       	movw	r16, r14
    31a0:	20 ef       	ldi	r18, 0xF0	; 240
    31a2:	30 e0       	ldi	r19, 0x00	; 0
    31a4:	40 e4       	ldi	r20, 0x40	; 64
    31a6:	51 e0       	ldi	r21, 0x01	; 1
    31a8:	61 e0       	ldi	r22, 0x01	; 1
    31aa:	70 e0       	ldi	r23, 0x00	; 0
    31ac:	81 e0       	ldi	r24, 0x01	; 1
    31ae:	90 e0       	ldi	r25, 0x00	; 0
    31b0:	0e 94 ea 0c 	call	0x19d4	; 0x19d4 <LCD_Rect_Fill>
    31b4:	1f 91       	pop	r17
}
    31b6:	0f 91       	pop	r16
    31b8:	ff 90       	pop	r15
    31ba:	ef 90       	pop	r14
    31bc:	08 95       	ret

000031be <main>:
    31be:	2e df       	rcall	.-420    	; 0x301c <LCD_Init>
//#include "fonts/Font_128_Segment_16_Num.h"
int main(void)
{
	LCD_Init();
	
	LCD_Rect_Fill(0, 0, 320, 240, BLUE);
    31c0:	e1 2c       	mov	r14, r1
    31c2:	f1 2c       	mov	r15, r1
    31c4:	87 01       	movw	r16, r14
    31c6:	ea 94       	dec	r14
    31c8:	20 ef       	ldi	r18, 0xF0	; 240
    31ca:	30 e0       	ldi	r19, 0x00	; 0
    31cc:	40 e4       	ldi	r20, 0x40	; 64
    31ce:	51 e0       	ldi	r21, 0x01	; 1
    31d0:	60 e0       	ldi	r22, 0x00	; 0
    31d2:	70 e0       	ldi	r23, 0x00	; 0
    31d4:	80 e0       	ldi	r24, 0x00	; 0
    31d6:	90 e0       	ldi	r25, 0x00	; 0
    31d8:	0e 94 ea 0c 	call	0x19d4	; 0x19d4 <LCD_Rect_Fill>
	LCD_Rect_Fill(1, 1, 318, 238, BLACK);
    31dc:	e1 2c       	mov	r14, r1
    31de:	f1 2c       	mov	r15, r1
    31e0:	87 01       	movw	r16, r14
    31e2:	2e ee       	ldi	r18, 0xEE	; 238
    31e4:	30 e0       	ldi	r19, 0x00	; 0
    31e6:	4e e3       	ldi	r20, 0x3E	; 62
    31e8:	51 e0       	ldi	r21, 0x01	; 1
    31ea:	61 e0       	ldi	r22, 0x01	; 1
    31ec:	70 e0       	ldi	r23, 0x00	; 0
    31ee:	81 e0       	ldi	r24, 0x01	; 1
    31f0:	90 e0       	ldi	r25, 0x00	; 0
    31f2:	0e 94 ea 0c 	call	0x19d4	; 0x19d4 <LCD_Rect_Fill>
    31f6:	2f ef       	ldi	r18, 0xFF	; 255
    31f8:	88 e0       	ldi	r24, 0x08	; 8
    31fa:	9d e3       	ldi	r25, 0x3D	; 61
    31fc:	21 50       	subi	r18, 0x01	; 1
    31fe:	80 40       	sbci	r24, 0x00	; 0
    3200:	90 40       	sbci	r25, 0x00	; 0
    3202:	e1 f7       	brne	.-8      	; 0x31fc <main+0x3e>
    3204:	00 c0       	rjmp	.+0      	; 0x3206 <main+0x48>
    3206:	00 00       	nop
    3208:	c8 e0       	ldi	r28, 0x08	; 8
    320a:	d0 e0       	ldi	r29, 0x00	; 0

	//LCD_Bitmap_Mono(16, 4, &bitmapImageMono, BLUE, BLACK);
	
	_delay_ms(1000);
	for(uint8_t x = 8; x <= 128; x += 8) LCD_Line(0, 0, x, 128, 1, GREEN);
    320c:	c1 2c       	mov	r12, r1
    320e:	d1 2c       	mov	r13, r1
    3210:	76 01       	movw	r14, r12
    3212:	da 94       	dec	r13
    3214:	01 e0       	ldi	r16, 0x01	; 1
    3216:	20 e8       	ldi	r18, 0x80	; 128
    3218:	30 e0       	ldi	r19, 0x00	; 0
    321a:	ae 01       	movw	r20, r28
    321c:	60 e0       	ldi	r22, 0x00	; 0
    321e:	70 e0       	ldi	r23, 0x00	; 0
    3220:	80 e0       	ldi	r24, 0x00	; 0
    3222:	90 e0       	ldi	r25, 0x00	; 0
    3224:	0e 94 8b 0d 	call	0x1b16	; 0x1b16 <LCD_Line>
    3228:	28 96       	adiw	r28, 0x08	; 8
    322a:	c8 38       	cpi	r28, 0x88	; 136
    322c:	d1 05       	cpc	r29, r1
    322e:	71 f7       	brne	.-36     	; 0x320c <main+0x4e>
    3230:	c8 e0       	ldi	r28, 0x08	; 8
    3232:	d0 e0       	ldi	r29, 0x00	; 0
	for(uint8_t y = 8; y <= 128; y += 8) LCD_Line(0, 0, 128, y, 1, GREEN);
    3234:	c1 2c       	mov	r12, r1
    3236:	d1 2c       	mov	r13, r1
    3238:	76 01       	movw	r14, r12
    323a:	da 94       	dec	r13
    323c:	01 e0       	ldi	r16, 0x01	; 1
    323e:	9e 01       	movw	r18, r28
    3240:	40 e8       	ldi	r20, 0x80	; 128
    3242:	50 e0       	ldi	r21, 0x00	; 0
    3244:	60 e0       	ldi	r22, 0x00	; 0
    3246:	70 e0       	ldi	r23, 0x00	; 0
    3248:	80 e0       	ldi	r24, 0x00	; 0
    324a:	90 e0       	ldi	r25, 0x00	; 0
    324c:	0e 94 8b 0d 	call	0x1b16	; 0x1b16 <LCD_Line>
    3250:	28 96       	adiw	r28, 0x08	; 8
    3252:	c8 38       	cpi	r28, 0x88	; 136
    3254:	d1 05       	cpc	r29, r1
    3256:	71 f7       	brne	.-36     	; 0x3234 <main+0x76>
    3258:	ef e3       	ldi	r30, 0x3F	; 63
    325a:	f2 e4       	ldi	r31, 0x42	; 66
    325c:	2f e0       	ldi	r18, 0x0F	; 15
    325e:	e1 50       	subi	r30, 0x01	; 1
    3260:	f0 40       	sbci	r31, 0x00	; 0
    3262:	20 40       	sbci	r18, 0x00	; 0
    3264:	e1 f7       	brne	.-8      	; 0x325e <main+0xa0>
    3266:	00 c0       	rjmp	.+0      	; 0x3268 <main+0xaa>
    3268:	00 00       	nop
    326a:	c0 e1       	ldi	r28, 0x10	; 16
    326c:	d0 e0       	ldi	r29, 0x00	; 0
    326e:	0f 2e       	mov	r0, r31
    3270:	f4 e1       	ldi	r31, 0x14	; 20
    3272:	af 2e       	mov	r10, r31
    3274:	b1 2c       	mov	r11, r1
    3276:	f0 2d       	mov	r31, r0
	
	uint8_t h = 16;
	uint8_t w = 20;
	for(uint8_t i = 0; i < 8; i++)
	{
		LCD_Rect(80 - w / 2, 64 - h / 2, w, h, 2, YELLOW);
    3278:	68 94       	set
    327a:	66 24       	eor	r6, r6
    327c:	66 f8       	bld	r6, 6
    327e:	71 2c       	mov	r7, r1
    3280:	0f 2e       	mov	r0, r31
    3282:	f0 e5       	ldi	r31, 0x50	; 80
    3284:	8f 2e       	mov	r8, r31
    3286:	91 2c       	mov	r9, r1
    3288:	f0 2d       	mov	r31, r0
    328a:	8c 2f       	mov	r24, r28
    328c:	86 95       	lsr	r24
    328e:	b3 01       	movw	r22, r6
    3290:	68 1b       	sub	r22, r24
    3292:	71 09       	sbc	r23, r1
    3294:	8a 2d       	mov	r24, r10
    3296:	86 95       	lsr	r24
    3298:	c1 2c       	mov	r12, r1
    329a:	dd 24       	eor	r13, r13
    329c:	da 94       	dec	r13
    329e:	ed 2c       	mov	r14, r13
    32a0:	f1 2c       	mov	r15, r1
    32a2:	02 e0       	ldi	r16, 0x02	; 2
    32a4:	9e 01       	movw	r18, r28
    32a6:	a5 01       	movw	r20, r10
    32a8:	f4 01       	movw	r30, r8
    32aa:	e8 1b       	sub	r30, r24
    32ac:	f1 09       	sbc	r31, r1
    32ae:	cf 01       	movw	r24, r30
    32b0:	0e 94 36 0e 	call	0x1c6c	; 0x1c6c <LCD_Rect>
    32b4:	f4 e1       	ldi	r31, 0x14	; 20
    32b6:	af 0e       	add	r10, r31
    32b8:	b1 1c       	adc	r11, r1
    32ba:	60 96       	adiw	r28, 0x10	; 16

	_delay_ms(250);
	
	uint8_t h = 16;
	uint8_t w = 20;
	for(uint8_t i = 0; i < 8; i++)
    32bc:	c0 39       	cpi	r28, 0x90	; 144
    32be:	d1 05       	cpc	r29, r1
    32c0:	21 f7       	brne	.-56     	; 0x328a <main+0xcc>
    32c2:	2f e3       	ldi	r18, 0x3F	; 63
    32c4:	82 e4       	ldi	r24, 0x42	; 66
    32c6:	9f e0       	ldi	r25, 0x0F	; 15
    32c8:	21 50       	subi	r18, 0x01	; 1
    32ca:	80 40       	sbci	r24, 0x00	; 0
    32cc:	90 40       	sbci	r25, 0x00	; 0
    32ce:	e1 f7       	brne	.-8      	; 0x32c8 <main+0x10a>
    32d0:	00 c0       	rjmp	.+0      	; 0x32d2 <main+0x114>
    32d2:	00 00       	nop
		LCD_Rect(80 - w / 2, 64 - h / 2, w, h, 2, YELLOW);
		h += 16;
		w += 20;
	}
	_delay_ms(250);
	LCD_Rect_Fill(0, 0, 160, 128, BLUE);
    32d4:	e1 2c       	mov	r14, r1
    32d6:	f1 2c       	mov	r15, r1
    32d8:	87 01       	movw	r16, r14
    32da:	ea 94       	dec	r14
    32dc:	20 e8       	ldi	r18, 0x80	; 128
    32de:	30 e0       	ldi	r19, 0x00	; 0
    32e0:	40 ea       	ldi	r20, 0xA0	; 160
    32e2:	50 e0       	ldi	r21, 0x00	; 0
    32e4:	60 e0       	ldi	r22, 0x00	; 0
    32e6:	70 e0       	ldi	r23, 0x00	; 0
    32e8:	80 e0       	ldi	r24, 0x00	; 0
    32ea:	90 e0       	ldi	r25, 0x00	; 0
    32ec:	0e 94 ea 0c 	call	0x19d4	; 0x19d4 <LCD_Rect_Fill>
	LCD_Rect_Fill(1, 1, 158, 126, BLACK);
    32f0:	e1 2c       	mov	r14, r1
    32f2:	f1 2c       	mov	r15, r1
    32f4:	87 01       	movw	r16, r14
    32f6:	2e e7       	ldi	r18, 0x7E	; 126
    32f8:	30 e0       	ldi	r19, 0x00	; 0
    32fa:	4e e9       	ldi	r20, 0x9E	; 158
    32fc:	50 e0       	ldi	r21, 0x00	; 0
    32fe:	61 e0       	ldi	r22, 0x01	; 1
    3300:	70 e0       	ldi	r23, 0x00	; 0
    3302:	81 e0       	ldi	r24, 0x01	; 1
    3304:	90 e0       	ldi	r25, 0x00	; 0
    3306:	0e 94 ea 0c 	call	0x19d4	; 0x19d4 <LCD_Rect_Fill>
	LCD_Font(5, 40, "This is\n just a Test\n TomThumb Ext\n", _3_TomThumb_Extended, 1, YELLOW);
    330a:	c1 2c       	mov	r12, r1
    330c:	dd 24       	eor	r13, r13
    330e:	da 94       	dec	r13
    3310:	ed 2c       	mov	r14, r13
    3312:	f1 2c       	mov	r15, r1
    3314:	01 e0       	ldi	r16, 0x01	; 1
    3316:	24 e5       	ldi	r18, 0x54	; 84
    3318:	35 e1       	ldi	r19, 0x15	; 21
    331a:	40 e0       	ldi	r20, 0x00	; 0
    331c:	51 e0       	ldi	r21, 0x01	; 1
    331e:	68 e2       	ldi	r22, 0x28	; 40
    3320:	70 e0       	ldi	r23, 0x00	; 0
    3322:	85 e0       	ldi	r24, 0x05	; 5
    3324:	90 e0       	ldi	r25, 0x00	; 0
    3326:	9e dc       	rcall	.-1732   	; 0x2c64 <LCD_Font>
	LCD_Line(23, 20, 137, 20, 1, MAGENTA);
    3328:	cc 24       	eor	r12, r12
    332a:	ca 94       	dec	r12
    332c:	d1 2c       	mov	r13, r1
    332e:	76 01       	movw	r14, r12
    3330:	24 e1       	ldi	r18, 0x14	; 20
    3332:	30 e0       	ldi	r19, 0x00	; 0
    3334:	49 e8       	ldi	r20, 0x89	; 137
    3336:	50 e0       	ldi	r21, 0x00	; 0
    3338:	64 e1       	ldi	r22, 0x14	; 20
    333a:	70 e0       	ldi	r23, 0x00	; 0
    333c:	87 e1       	ldi	r24, 0x17	; 23
    333e:	90 e0       	ldi	r25, 0x00	; 0
    3340:	0e 94 8b 0d 	call	0x1b16	; 0x1b16 <LCD_Line>
	LCD_Line(23, 21, 137, 21, 1, BLUE);
    3344:	c1 2c       	mov	r12, r1
    3346:	d1 2c       	mov	r13, r1
    3348:	76 01       	movw	r14, r12
    334a:	ca 94       	dec	r12
    334c:	25 e1       	ldi	r18, 0x15	; 21
    334e:	30 e0       	ldi	r19, 0x00	; 0
    3350:	49 e8       	ldi	r20, 0x89	; 137
    3352:	50 e0       	ldi	r21, 0x00	; 0
    3354:	65 e1       	ldi	r22, 0x15	; 21
    3356:	70 e0       	ldi	r23, 0x00	; 0
    3358:	87 e1       	ldi	r24, 0x17	; 23
    335a:	90 e0       	ldi	r25, 0x00	; 0
    335c:	0e 94 8b 0d 	call	0x1b16	; 0x1b16 <LCD_Line>
	LCD_Line(23, 21, 137, 21, 1, BLUE);
    3360:	25 e1       	ldi	r18, 0x15	; 21
    3362:	30 e0       	ldi	r19, 0x00	; 0
    3364:	49 e8       	ldi	r20, 0x89	; 137
    3366:	50 e0       	ldi	r21, 0x00	; 0
    3368:	65 e1       	ldi	r22, 0x15	; 21
    336a:	70 e0       	ldi	r23, 0x00	; 0
    336c:	87 e1       	ldi	r24, 0x17	; 23
    336e:	90 e0       	ldi	r25, 0x00	; 0
    3370:	0e 94 8b 0d 	call	0x1b16	; 0x1b16 <LCD_Line>
	LCD_Font(41, 10, "DISPLAY DRIVER", _5_Org, 1, MAGENTA);
    3374:	cc 24       	eor	r12, r12
    3376:	ca 94       	dec	r12
    3378:	d1 2c       	mov	r13, r1
    337a:	76 01       	movw	r14, r12
    337c:	25 ea       	ldi	r18, 0xA5	; 165
    337e:	31 e1       	ldi	r19, 0x11	; 17
    3380:	44 e2       	ldi	r20, 0x24	; 36
    3382:	51 e0       	ldi	r21, 0x01	; 1
    3384:	6a e0       	ldi	r22, 0x0A	; 10
    3386:	70 e0       	ldi	r23, 0x00	; 0
    3388:	89 e2       	ldi	r24, 0x29	; 41
    338a:	90 e0       	ldi	r25, 0x00	; 0
    338c:	6b dc       	rcall	.-1834   	; 0x2c64 <LCD_Font>
	LCD_Font(45, 35, "SERIF BOLD", _9_Serif_Bold, 1, RED);
    338e:	c1 2c       	mov	r12, r1
    3390:	d1 2c       	mov	r13, r1
    3392:	76 01       	movw	r14, r12
    3394:	ea 94       	dec	r14
    3396:	2d e3       	ldi	r18, 0x3D	; 61
    3398:	36 e0       	ldi	r19, 0x06	; 6
    339a:	43 e3       	ldi	r20, 0x33	; 51
    339c:	51 e0       	ldi	r21, 0x01	; 1
    339e:	63 e2       	ldi	r22, 0x23	; 35
    33a0:	70 e0       	ldi	r23, 0x00	; 0
    33a2:	8d e2       	ldi	r24, 0x2D	; 45
    33a4:	90 e0       	ldi	r25, 0x00	; 0
    33a6:	5e dc       	rcall	.-1860   	; 0x2c64 <LCD_Font>
	LCD_Circle(40, 90, 30, 0, 1, RED);
    33a8:	20 e0       	ldi	r18, 0x00	; 0
    33aa:	4e e1       	ldi	r20, 0x1E	; 30
    33ac:	6a e5       	ldi	r22, 0x5A	; 90
    33ae:	70 e0       	ldi	r23, 0x00	; 0
    33b0:	88 e2       	ldi	r24, 0x28	; 40
    33b2:	90 e0       	ldi	r25, 0x00	; 0
    33b4:	3b d8       	rcall	.-3978   	; 0x242c <LCD_Circle>
	LCD_Circle(45, 90, 20, 1, 1, BLUE);
    33b6:	c1 2c       	mov	r12, r1
    33b8:	d1 2c       	mov	r13, r1
    33ba:	76 01       	movw	r14, r12
    33bc:	ca 94       	dec	r12
    33be:	21 e0       	ldi	r18, 0x01	; 1
    33c0:	44 e1       	ldi	r20, 0x14	; 20
    33c2:	6a e5       	ldi	r22, 0x5A	; 90
    33c4:	70 e0       	ldi	r23, 0x00	; 0
    33c6:	8d e2       	ldi	r24, 0x2D	; 45
    33c8:	90 e0       	ldi	r25, 0x00	; 0
    33ca:	30 d8       	rcall	.-4000   	; 0x242c <LCD_Circle>
	LCD_Triangle(5, 5, 5, 20, 25, 25, 2, BLUE);
    33cc:	81 2c       	mov	r8, r1
    33ce:	91 2c       	mov	r9, r1
    33d0:	54 01       	movw	r10, r8
    33d2:	8a 94       	dec	r8
    33d4:	68 94       	set
    33d6:	cc 24       	eor	r12, r12
    33d8:	c1 f8       	bld	r12, 1
    33da:	0f 2e       	mov	r0, r31
    33dc:	f9 e1       	ldi	r31, 0x19	; 25
    33de:	ef 2e       	mov	r14, r31
    33e0:	f1 2c       	mov	r15, r1
    33e2:	f0 2d       	mov	r31, r0
    33e4:	09 e1       	ldi	r16, 0x19	; 25
    33e6:	10 e0       	ldi	r17, 0x00	; 0
    33e8:	24 e1       	ldi	r18, 0x14	; 20
    33ea:	30 e0       	ldi	r19, 0x00	; 0
    33ec:	45 e0       	ldi	r20, 0x05	; 5
    33ee:	50 e0       	ldi	r21, 0x00	; 0
    33f0:	65 e0       	ldi	r22, 0x05	; 5
    33f2:	70 e0       	ldi	r23, 0x00	; 0
    33f4:	85 e0       	ldi	r24, 0x05	; 5
    33f6:	90 e0       	ldi	r25, 0x00	; 0
    33f8:	0e 94 75 0e 	call	0x1cea	; 0x1cea <LCD_Triangle>
	LCD_Rect(60, 45, 30, 20, 2, GREEN);
    33fc:	c1 2c       	mov	r12, r1
    33fe:	d1 2c       	mov	r13, r1
    3400:	76 01       	movw	r14, r12
    3402:	da 94       	dec	r13
    3404:	02 e0       	ldi	r16, 0x02	; 2
    3406:	24 e1       	ldi	r18, 0x14	; 20
    3408:	30 e0       	ldi	r19, 0x00	; 0
    340a:	4e e1       	ldi	r20, 0x1E	; 30
    340c:	50 e0       	ldi	r21, 0x00	; 0
    340e:	6d e2       	ldi	r22, 0x2D	; 45
    3410:	70 e0       	ldi	r23, 0x00	; 0
    3412:	8c e3       	ldi	r24, 0x3C	; 60
    3414:	90 e0       	ldi	r25, 0x00	; 0
    3416:	0e 94 36 0e 	call	0x1c6c	; 0x1c6c <LCD_Rect>
	LCD_Rect_Round(80, 70, 60, 25, 10, 3, WHITE);
    341a:	aa 24       	eor	r10, r10
    341c:	aa 94       	dec	r10
    341e:	ba 2c       	mov	r11, r10
    3420:	ca 2c       	mov	r12, r10
    3422:	d1 2c       	mov	r13, r1
    3424:	0f 2e       	mov	r0, r31
    3426:	f3 e0       	ldi	r31, 0x03	; 3
    3428:	ef 2e       	mov	r14, r31
    342a:	f0 2d       	mov	r31, r0
    342c:	0a e0       	ldi	r16, 0x0A	; 10
    342e:	10 e0       	ldi	r17, 0x00	; 0
    3430:	29 e1       	ldi	r18, 0x19	; 25
    3432:	30 e0       	ldi	r19, 0x00	; 0
    3434:	4c e3       	ldi	r20, 0x3C	; 60
    3436:	50 e0       	ldi	r21, 0x00	; 0
    3438:	66 e4       	ldi	r22, 0x46	; 70
    343a:	70 e0       	ldi	r23, 0x00	; 0
    343c:	80 e5       	ldi	r24, 0x50	; 80
    343e:	90 e0       	ldi	r25, 0x00	; 0
    3440:	18 da       	rcall	.-3024   	; 0x2872 <LCD_Rect_Round>
	LCD_Rect_Round_Fill(80, 100, 60, 25, 10, WHITE);
    3442:	cc 24       	eor	r12, r12
    3444:	ca 94       	dec	r12
    3446:	dc 2c       	mov	r13, r12
    3448:	ec 2c       	mov	r14, r12
    344a:	f1 2c       	mov	r15, r1
    344c:	29 e1       	ldi	r18, 0x19	; 25
    344e:	30 e0       	ldi	r19, 0x00	; 0
    3450:	4c e3       	ldi	r20, 0x3C	; 60
    3452:	50 e0       	ldi	r21, 0x00	; 0
    3454:	64 e6       	ldi	r22, 0x64	; 100
    3456:	70 e0       	ldi	r23, 0x00	; 0
    3458:	80 e5       	ldi	r24, 0x50	; 80
    345a:	90 e0       	ldi	r25, 0x00	; 0
    345c:	98 db       	rcall	.-2256   	; 0x2b8e <LCD_Rect_Round_Fill>
	LCD_Ellipse(60, 100, 30, 20, 0, 2, YELLOW);
    345e:	a1 2c       	mov	r10, r1
    3460:	bb 24       	eor	r11, r11
    3462:	ba 94       	dec	r11
    3464:	cb 2c       	mov	r12, r11
    3466:	d1 2c       	mov	r13, r1
    3468:	68 94       	set
    346a:	ee 24       	eor	r14, r14
    346c:	e1 f8       	bld	r14, 1
    346e:	00 e0       	ldi	r16, 0x00	; 0
    3470:	24 e1       	ldi	r18, 0x14	; 20
    3472:	30 e0       	ldi	r19, 0x00	; 0
    3474:	4e e1       	ldi	r20, 0x1E	; 30
    3476:	50 e0       	ldi	r21, 0x00	; 0
    3478:	64 e6       	ldi	r22, 0x64	; 100
    347a:	70 e0       	ldi	r23, 0x00	; 0
    347c:	8c e3       	ldi	r24, 0x3C	; 60
    347e:	90 e0       	ldi	r25, 0x00	; 0
    3480:	0e 94 c2 0e 	call	0x1d84	; 0x1d84 <LCD_Ellipse>
	LCD_Ellipse(125, 60, 25, 15, 1, 1, YELLOW);
    3484:	ee 24       	eor	r14, r14
    3486:	e3 94       	inc	r14
    3488:	01 e0       	ldi	r16, 0x01	; 1
    348a:	2f e0       	ldi	r18, 0x0F	; 15
    348c:	30 e0       	ldi	r19, 0x00	; 0
    348e:	49 e1       	ldi	r20, 0x19	; 25
    3490:	50 e0       	ldi	r21, 0x00	; 0
    3492:	6c e3       	ldi	r22, 0x3C	; 60
    3494:	70 e0       	ldi	r23, 0x00	; 0
    3496:	8d e7       	ldi	r24, 0x7D	; 125
    3498:	90 e0       	ldi	r25, 0x00	; 0
    349a:	0e 94 c2 0e 	call	0x1d84	; 0x1d84 <LCD_Ellipse>
	LCD_Font(0, 200, "1234567890", _32_Segment_7_Num_Plus, 1, RED);
    349e:	c1 2c       	mov	r12, r1
    34a0:	d1 2c       	mov	r13, r1
    34a2:	76 01       	movw	r14, r12
    34a4:	ea 94       	dec	r14
    34a6:	28 e6       	ldi	r18, 0x68	; 104
    34a8:	30 e0       	ldi	r19, 0x00	; 0
    34aa:	4e e3       	ldi	r20, 0x3E	; 62
    34ac:	51 e0       	ldi	r21, 0x01	; 1
    34ae:	68 ec       	ldi	r22, 0xC8	; 200
    34b0:	70 e0       	ldi	r23, 0x00	; 0
    34b2:	80 e0       	ldi	r24, 0x00	; 0
    34b4:	90 e0       	ldi	r25, 0x00	; 0
    34b6:	d6 db       	rcall	.-2132   	; 0x2c64 <LCD_Font>
	LCD_Font(10, 220, "1234567890 Default Font", _8_Default, 1, RED);
    34b8:	27 e6       	ldi	r18, 0x67	; 103
    34ba:	3d e0       	ldi	r19, 0x0D	; 13
    34bc:	49 e4       	ldi	r20, 0x49	; 73
    34be:	51 e0       	ldi	r21, 0x01	; 1
    34c0:	6c ed       	ldi	r22, 0xDC	; 220
    34c2:	70 e0       	ldi	r23, 0x00	; 0
    34c4:	8a e0       	ldi	r24, 0x0A	; 10
    34c6:	90 e0       	ldi	r25, 0x00	; 0
    34c8:	cd db       	rcall	.-2150   	; 0x2c64 <LCD_Font>
    34ca:	ff cf       	rjmp	.-2      	; 0x34ca <main+0x30c>

000034cc <__umulhisi3>:
    34cc:	a2 9f       	mul	r26, r18
    34ce:	b0 01       	movw	r22, r0
    34d0:	b3 9f       	mul	r27, r19
    34d2:	c0 01       	movw	r24, r0
    34d4:	a3 9f       	mul	r26, r19
    34d6:	70 0d       	add	r23, r0
    34d8:	81 1d       	adc	r24, r1
    34da:	11 24       	eor	r1, r1
    34dc:	91 1d       	adc	r25, r1
    34de:	b2 9f       	mul	r27, r18
    34e0:	70 0d       	add	r23, r0
    34e2:	81 1d       	adc	r24, r1
    34e4:	11 24       	eor	r1, r1
    34e6:	91 1d       	adc	r25, r1
    34e8:	08 95       	ret

000034ea <__mulshisi3>:
    34ea:	b7 ff       	sbrs	r27, 7
    34ec:	04 c0       	rjmp	.+8      	; 0x34f6 <__muluhisi3>

000034ee <__mulohisi3>:
    34ee:	03 d0       	rcall	.+6      	; 0x34f6 <__muluhisi3>
    34f0:	82 1b       	sub	r24, r18
    34f2:	93 0b       	sbc	r25, r19
    34f4:	08 95       	ret

000034f6 <__muluhisi3>:
    34f6:	ea df       	rcall	.-44     	; 0x34cc <__umulhisi3>
    34f8:	a5 9f       	mul	r26, r21
    34fa:	90 0d       	add	r25, r0
    34fc:	b4 9f       	mul	r27, r20
    34fe:	90 0d       	add	r25, r0
    3500:	a4 9f       	mul	r26, r20
    3502:	80 0d       	add	r24, r0
    3504:	91 1d       	adc	r25, r1
    3506:	11 24       	eor	r1, r1
    3508:	08 95       	ret

0000350a <memcpy_P>:
    350a:	fb 01       	movw	r30, r22
    350c:	dc 01       	movw	r26, r24
    350e:	02 c0       	rjmp	.+4      	; 0x3514 <memcpy_P+0xa>
    3510:	05 90       	lpm	r0, Z+
    3512:	0d 92       	st	X+, r0
    3514:	41 50       	subi	r20, 0x01	; 1
    3516:	50 40       	sbci	r21, 0x00	; 0
    3518:	d8 f7       	brcc	.-10     	; 0x3510 <memcpy_P+0x6>
    351a:	08 95       	ret

0000351c <_exit>:
    351c:	f8 94       	cli

0000351e <__stop_program>:
    351e:	ff cf       	rjmp	.-2      	; 0x351e <__stop_program>
